Archive member included to satisfy reference by file (symbol)

c:/program files/microchip/xc32/v4.35/bin/bin/../../lib/gcc/pic32c/8.3.1/../../../../pic32c/lib/thumb/v6-m/nofp\libpic32c.a(data_init.o)
                              build/default/production/_ext/1171490990/startup_xc32.o (__pic32c_data_initialization)
c:/program files/microchip/xc32/v4.35/bin/bin/../../lib/gcc/pic32c/8.3.1/../../../../pic32c/lib/thumb/v6-m/nofp\libm-fast-emfloat.a(__aeabi_fadd.o)
                              build/default/production/_ext/559172130/phy_helper.o (__aeabi_fadd)
c:/program files/microchip/xc32/v4.35/bin/bin/../../lib/gcc/pic32c/8.3.1/../../../../pic32c/lib/thumb/v6-m/nofp\libm-fast-emfloat.a(__aeabi_dadd.o)
                              build/default/production/_ext/559172130/phy_helper.o (__aeabi_dadd)
c:/program files/microchip/xc32/v4.35/bin/bin/../../lib/gcc/pic32c/8.3.1/../../../../pic32c/lib/thumb/v6-m/nofp\libm-fast-emfloat.a(__aeabi_fsub.o)
                              build/default/production/_ext/559172130/phy_helper.o (__aeabi_fsub)
c:/program files/microchip/xc32/v4.35/bin/bin/../../lib/gcc/pic32c/8.3.1/../../../../pic32c/lib/thumb/v6-m/nofp\libm-fast-emfloat.a(__aeabi_dmul_aux.o)
                              build/default/production/_ext/559172130/phy_helper.o (__aeabi_dmul)
c:/program files/microchip/xc32/v4.35/bin/bin/../../lib/gcc/pic32c/8.3.1/../../../../pic32c/lib/thumb/v6-m/nofp\libm-fast-emfloat.a(__aeabi_fcmpgt.o)
                              build/default/production/_ext/559172130/phy_helper.o (__aeabi_fcmpgt)
c:/program files/microchip/xc32/v4.35/bin/bin/../../lib/gcc/pic32c/8.3.1/../../../../pic32c/lib/thumb/v6-m/nofp\libm-fast-emfloat.a(__aeabi_fcmplt.o)
                              build/default/production/_ext/559172130/phy_helper.o (__aeabi_fcmplt)
c:/program files/microchip/xc32/v4.35/bin/bin/../../lib/gcc/pic32c/8.3.1/../../../../pic32c/lib/thumb/v6-m/nofp\libm-fast-emfloat.a(__aeabi_f2iz.o)
                              build/default/production/_ext/559172130/phy_helper.o (__aeabi_f2iz)
c:/program files/microchip/xc32/v4.35/bin/bin/../../lib/gcc/pic32c/8.3.1/../../../../pic32c/lib/thumb/v6-m/nofp\libm-fast-emfloat.a(__aeabi_f2uiz.o)
                              build/default/production/_ext/559172130/phy_helper.o (__aeabi_f2uiz)
c:/program files/microchip/xc32/v4.35/bin/bin/../../lib/gcc/pic32c/8.3.1/../../../../pic32c/lib/thumb/v6-m/nofp\libm-fast-emfloat.a(__aeabi_ui2f.o)
                              build/default/production/_ext/559172130/phy_helper.o (__aeabi_ui2f)
c:/program files/microchip/xc32/v4.35/bin/bin/../../lib/gcc/pic32c/8.3.1/../../../../pic32c/lib/thumb/v6-m/nofp\libm-fast-emfloat.a(__aeabi_f2d.o)
                              build/default/production/_ext/559172130/phy_helper.o (__aeabi_f2d)
c:/program files/microchip/xc32/v4.35/bin/bin/../../lib/gcc/pic32c/8.3.1/../../../../pic32c/lib/thumb/v6-m/nofp\libm-fast-emfloat.a(__aeabi_d2f.o)
                              build/default/production/_ext/559172130/phy_helper.o (__aeabi_d2f)
c:/program files/microchip/xc32/v4.35/bin/bin/../../lib/gcc/pic32c/8.3.1/../../../../pic32c/lib/thumb/v6-m/nofp\libc-musl.a(__libc_start_main.o)
                              build/default/production/_ext/1171490990/startup_xc32.o (__libc_init_array)
c:/program files/microchip/xc32/v4.35/bin/bin/../../lib/gcc/pic32c/8.3.1/../../../../pic32c/lib/thumb/v6-m/nofp\libc-musl.a(libc.o)
                              c:/program files/microchip/xc32/v4.35/bin/bin/../../lib/gcc/pic32c/8.3.1/../../../../pic32c/lib/thumb/v6-m/nofp\libc-musl.a(__libc_start_main.o) (__progname_full)
c:/program files/microchip/xc32/v4.35/bin/bin/../../lib/gcc/pic32c/8.3.1/../../../../pic32c/lib/thumb/v6-m/nofp\libc-musl.a(rand.o)
                              build/default/production/_ext/559172130/phy_init.o (srand)
c:/program files/microchip/xc32/v4.35/bin/bin/../../lib/gcc/pic32c/8.3.1/../../../../pic32c/lib/thumb/v6-m/nofp\libc-musl.a(vsnprintf.o)
                              build/default/production/_ext/1832805299/sys_console.o (vsnprintf)
c:/program files/microchip/xc32/v4.35/bin/bin/../../lib/gcc/pic32c/8.3.1/../../../../pic32c/lib/thumb/v6-m/nofp\libc-musl.a(memcpy.o)
                              build/default/production/_ext/1655452824/mac_process_beacon_frame.o (memcpy)
c:/program files/microchip/xc32/v4.35/bin/bin/../../lib/gcc/pic32c/8.3.1/../../../../pic32c/lib/thumb/v6-m/nofp\libc-musl.a(memset.o)
                              build/default/production/_ext/404212886/FreeRTOS_tasks.o (memset)
c:/program files/microchip/xc32/v4.35/bin/bin/../../lib/gcc/pic32c/8.3.1/../../../../pic32c/lib/thumb/v6-m/nofp\libc-musl.a(strlen.o)
                              build/default/production/_ext/1832805299/sys_console.o (strlen)
c:/program files/microchip/xc32/v4.35/bin/bin/../../lib/gcc/pic32c/8.3.1/../../../../pic32c/lib/thumb/v6-m/nofp\libc-musl.a(__environ.o)
                              c:/program files/microchip/xc32/v4.35/bin/bin/../../lib/gcc/pic32c/8.3.1/../../../../pic32c/lib/thumb/v6-m/nofp\libc-musl.a(__libc_start_main.o) (__environ)
c:/program files/microchip/xc32/v4.35/bin/bin/../../lib/gcc/pic32c/8.3.1/../../../../pic32c/lib/thumb/v6-m/nofp\libc-musl.a(__errno_location.o)
                              c:/program files/microchip/xc32/v4.35/bin/bin/../../lib/gcc/pic32c/8.3.1/../../../../pic32c/lib/thumb/v6-m/nofp\libc-musl.a(vsnprintf.o) (__errno_val)
c:/program files/microchip/xc32/v4.35/bin/bin/../../lib/gcc/pic32c/8.3.1/../../../../pic32c/lib/thumb/v6-m/nofp\libc-musl.a(vfprintf.o)
                              c:/program files/microchip/xc32/v4.35/bin/bin/../../lib/gcc/pic32c/8.3.1/../../../../pic32c/lib/thumb/v6-m/nofp\libc-musl.a(vsnprintf.o) (vfprintf)
c:/program files/microchip/xc32/v4.35/bin/bin/../../lib/gcc/pic32c/8.3.1/../../../../pic32c/lib/thumb/v6-m/nofp\libc-musl.a(__io_fmt_needed.o)
                              c:/program files/microchip/xc32/v4.35/bin/bin/../../lib/gcc/pic32c/8.3.1/../../../../pic32c/lib/thumb/v6-m/nofp\libc-musl.a(vfprintf.o) (__io_fmt_needed)
c:/program files/microchip/xc32/v4.35/bin/bin/../../lib/gcc/pic32c/8.3.1/../../../../pic32c/lib/thumb/v6-m/nofp\libc-musl.a(__pop_float.o)
                              c:/program files/microchip/xc32/v4.35/bin/bin/../../lib/gcc/pic32c/8.3.1/../../../../pic32c/lib/thumb/v6-m/nofp\libc-musl.a(__io_fmt_needed.o) (__pop_float_needed)
c:/program files/microchip/xc32/v4.35/bin/bin/../../lib/gcc/pic32c/8.3.1/../../../../pic32c/lib/thumb/v6-m/nofp\libc-musl.a(__pop_int.o)
                              c:/program files/microchip/xc32/v4.35/bin/bin/../../lib/gcc/pic32c/8.3.1/../../../../pic32c/lib/thumb/v6-m/nofp\libc-musl.a(__io_fmt_needed.o) (__pop_int_needed)
c:/program files/microchip/xc32/v4.35/bin/bin/../../lib/gcc/pic32c/8.3.1/../../../../pic32c/lib/thumb/v6-m/nofp\libc-musl.a(__pop_ptr.o)
                              c:/program files/microchip/xc32/v4.35/bin/bin/../../lib/gcc/pic32c/8.3.1/../../../../pic32c/lib/thumb/v6-m/nofp\libc-musl.a(__io_fmt_needed.o) (__pop_ptr_needed)
c:/program files/microchip/xc32/v4.35/bin/bin/../../lib/gcc/pic32c/8.3.1/../../../../pic32c/lib/thumb/v6-m/nofp\libc-musl.a(__printf_core.o)
                              c:/program files/microchip/xc32/v4.35/bin/bin/../../lib/gcc/pic32c/8.3.1/../../../../pic32c/lib/thumb/v6-m/nofp\libc-musl.a(vfprintf.o) (__printf_core)
c:/program files/microchip/xc32/v4.35/bin/bin/../../lib/gcc/pic32c/8.3.1/../../../../pic32c/lib/thumb/v6-m/nofp\libc-musl.a(atoi.o)
                              c:/program files/microchip/xc32/v4.35/bin/bin/../../lib/gcc/pic32c/8.3.1/../../../../pic32c/lib/thumb/v6-m/nofp\libc-musl.a(__printf_core.o) (atoi)
c:/program files/microchip/xc32/v4.35/bin/bin/../../lib/gcc/pic32c/8.3.1/../../../../pic32c/lib/thumb/v6-m/nofp\libc-musl.a(tolower.o)
                              c:/program files/microchip/xc32/v4.35/bin/bin/../../lib/gcc/pic32c/8.3.1/../../../../pic32c/lib/thumb/v6-m/nofp\libc-musl.a(__printf_core.o) (tolower)
c:/program files/microchip/xc32/v4.35/bin/bin/../../lib/gcc/pic32c/8.3.1/../../../../pic32c/lib/thumb/v6-m/nofp\libc-musl.a(__fmt_a.o)
                              c:/program files/microchip/xc32/v4.35/bin/bin/../../lib/gcc/pic32c/8.3.1/../../../../pic32c/lib/thumb/v6-m/nofp\libc-musl.a(__io_fmt_needed.o) (__fmt_a_needed)
c:/program files/microchip/xc32/v4.35/bin/bin/../../lib/gcc/pic32c/8.3.1/../../../../pic32c/lib/thumb/v6-m/nofp\libc-musl.a(__fmt_d.o)
                              c:/program files/microchip/xc32/v4.35/bin/bin/../../lib/gcc/pic32c/8.3.1/../../../../pic32c/lib/thumb/v6-m/nofp\libc-musl.a(__io_fmt_needed.o) (__fmt_d_needed)
c:/program files/microchip/xc32/v4.35/bin/bin/../../lib/gcc/pic32c/8.3.1/../../../../pic32c/lib/thumb/v6-m/nofp\libc-musl.a(__fmt_fp.o)
                              c:/program files/microchip/xc32/v4.35/bin/bin/../../lib/gcc/pic32c/8.3.1/../../../../pic32c/lib/thumb/v6-m/nofp\libc-musl.a(__io_fmt_needed.o) (__fmt_f_needed)
c:/program files/microchip/xc32/v4.35/bin/bin/../../lib/gcc/pic32c/8.3.1/../../../../pic32c/lib/thumb/v6-m/nofp\libc-musl.a(__fmt_o.o)
                              c:/program files/microchip/xc32/v4.35/bin/bin/../../lib/gcc/pic32c/8.3.1/../../../../pic32c/lib/thumb/v6-m/nofp\libc-musl.a(__io_fmt_needed.o) (__fmt_o_needed)
c:/program files/microchip/xc32/v4.35/bin/bin/../../lib/gcc/pic32c/8.3.1/../../../../pic32c/lib/thumb/v6-m/nofp\libc-musl.a(__fmt_s.o)
                              c:/program files/microchip/xc32/v4.35/bin/bin/../../lib/gcc/pic32c/8.3.1/../../../../pic32c/lib/thumb/v6-m/nofp\libc-musl.a(__io_fmt_needed.o) (__fmt_s_needed)
c:/program files/microchip/xc32/v4.35/bin/bin/../../lib/gcc/pic32c/8.3.1/../../../../pic32c/lib/thumb/v6-m/nofp\libc-musl.a(__fmt_u.o)
                              c:/program files/microchip/xc32/v4.35/bin/bin/../../lib/gcc/pic32c/8.3.1/../../../../pic32c/lib/thumb/v6-m/nofp\libc-musl.a(__io_fmt_needed.o) (__fmt_u_needed)
c:/program files/microchip/xc32/v4.35/bin/bin/../../lib/gcc/pic32c/8.3.1/../../../../pic32c/lib/thumb/v6-m/nofp\libc-musl.a(__fmt_x.o)
                              c:/program files/microchip/xc32/v4.35/bin/bin/../../lib/gcc/pic32c/8.3.1/../../../../pic32c/lib/thumb/v6-m/nofp\libc-musl.a(__io_fmt_needed.o) (__fmt_x_needed)
c:/program files/microchip/xc32/v4.35/bin/bin/../../lib/gcc/pic32c/8.3.1/../../../../pic32c/lib/thumb/v6-m/nofp\libc-musl.a(strcpy.o)
                              c:/program files/microchip/xc32/v4.35/bin/bin/../../lib/gcc/pic32c/8.3.1/../../../../pic32c/lib/thumb/v6-m/nofp\libc-musl.a(__fmt_a.o) (strcpy)
c:/program files/microchip/xc32/v4.35/bin/bin/../../lib/gcc/pic32c/8.3.1/../../../../pic32c/lib/thumb/v6-m/nofp\libc-musl.a(toupper.o)
                              c:/program files/microchip/xc32/v4.35/bin/bin/../../lib/gcc/pic32c/8.3.1/../../../../pic32c/lib/thumb/v6-m/nofp\libc-musl.a(__fmt_a.o) (toupper)
c:/program files/microchip/xc32/v4.35/bin/bin/../../lib/gcc/pic32c/8.3.1/../../../../pic32c/lib/thumb/v6-m/nofp\libc-musl.a(__cvt_u.o)
                              c:/program files/microchip/xc32/v4.35/bin/bin/../../lib/gcc/pic32c/8.3.1/../../../../pic32c/lib/thumb/v6-m/nofp\libc-musl.a(__fmt_d.o) (__cvt_u)
c:/program files/microchip/xc32/v4.35/bin/bin/../../lib/gcc/pic32c/8.3.1/../../../../pic32c/lib/thumb/v6-m/nofp\libc-musl.a(stpcpy.o)
                              c:/program files/microchip/xc32/v4.35/bin/bin/../../lib/gcc/pic32c/8.3.1/../../../../pic32c/lib/thumb/v6-m/nofp\libc-musl.a(strcpy.o) (__stpcpy)
c:/program files/microchip/xc32/v4.35/bin/bin/../../lib/gcc/pic32c/8.3.1/../../../../pic32c/lib/thumb/v6-m/nofp\libm-fast-emfloat.a(fma.o)
                              c:/program files/microchip/xc32/v4.35/bin/bin/../../lib/gcc/pic32c/8.3.1/../../../../pic32c/lib/thumb/v6-m/nofp\libc-musl.a(__fmt_fp.o) (fma)
c:/program files/microchip/xc32/v4.35/bin/bin/../../lib/gcc/pic32c/8.3.1/../../../../pic32c/lib/thumb/v6-m/nofp\libm-fast-emfloat.a(floor.o)
                              c:/program files/microchip/xc32/v4.35/bin/bin/../../lib/gcc/pic32c/8.3.1/../../../../pic32c/lib/thumb/v6-m/nofp\libc-musl.a(__fmt_a.o) (floor)
c:/program files/microchip/xc32/v4.35/bin/bin/../../lib/gcc/pic32c/8.3.1/../../../../pic32c/lib/thumb/v6-m/nofp\libm-fast-emfloat.a(__aeabi_dsub.o)
                              c:/program files/microchip/xc32/v4.35/bin/bin/../../lib/gcc/pic32c/8.3.1/../../../../pic32c/lib/thumb/v6-m/nofp\libc-musl.a(__fmt_a.o) (__aeabi_dsub)
c:/program files/microchip/xc32/v4.35/bin/bin/../../lib/gcc/pic32c/8.3.1/../../../../pic32c/lib/thumb/v6-m/nofp\libm-fast-emfloat.a(__aeabi_ddiv.o)
                              c:/program files/microchip/xc32/v4.35/bin/bin/../../lib/gcc/pic32c/8.3.1/../../../../pic32c/lib/thumb/v6-m/nofp\libc-musl.a(__fmt_a.o) (__aeabi_ddiv)
c:/program files/microchip/xc32/v4.35/bin/bin/../../lib/gcc/pic32c/8.3.1/../../../../pic32c/lib/thumb/v6-m/nofp\libm-fast-emfloat.a(__aeabi_dcmple.o)
                              c:/program files/microchip/xc32/v4.35/bin/bin/../../lib/gcc/pic32c/8.3.1/../../../../pic32c/lib/thumb/v6-m/nofp\libc-musl.a(__fmt_fp.o) (__aeabi_dcmple)
c:/program files/microchip/xc32/v4.35/bin/bin/../../lib/gcc/pic32c/8.3.1/../../../../pic32c/lib/thumb/v6-m/nofp\libm-fast-emfloat.a(__aeabi_dcmpeq.o)
                              c:/program files/microchip/xc32/v4.35/bin/bin/../../lib/gcc/pic32c/8.3.1/../../../../pic32c/lib/thumb/v6-m/nofp\libc-musl.a(__fmt_a.o) (__aeabi_dcmpeq)
c:/program files/microchip/xc32/v4.35/bin/bin/../../lib/gcc/pic32c/8.3.1/../../../../pic32c/lib/thumb/v6-m/nofp\libm-fast-emfloat.a(__aeabi_dcmpgt.o)
                              c:/program files/microchip/xc32/v4.35/bin/bin/../../lib/gcc/pic32c/8.3.1/../../../../pic32c/lib/thumb/v6-m/nofp\libc-musl.a(__fmt_fp.o) (__aeabi_dcmpgt)
c:/program files/microchip/xc32/v4.35/bin/bin/../../lib/gcc/pic32c/8.3.1/../../../../pic32c/lib/thumb/v6-m/nofp\libm-fast-emfloat.a(__aeabi_dcmplt.o)
                              c:/program files/microchip/xc32/v4.35/bin/bin/../../lib/gcc/pic32c/8.3.1/../../../../pic32c/lib/thumb/v6-m/nofp\libc-musl.a(__fmt_a.o) (__aeabi_dcmplt)
c:/program files/microchip/xc32/v4.35/bin/bin/../../lib/gcc/pic32c/8.3.1/../../../../pic32c/lib/thumb/v6-m/nofp\libm-fast-emfloat.a(__aeabi_d2iz.o)
                              c:/program files/microchip/xc32/v4.35/bin/bin/../../lib/gcc/pic32c/8.3.1/../../../../pic32c/lib/thumb/v6-m/nofp\libc-musl.a(__fmt_a.o) (__aeabi_d2iz)
c:/program files/microchip/xc32/v4.35/bin/bin/../../lib/gcc/pic32c/8.3.1/../../../../pic32c/lib/thumb/v6-m/nofp\libm-fast-emfloat.a(__aeabi_d2uiz.o)
                              c:/program files/microchip/xc32/v4.35/bin/bin/../../lib/gcc/pic32c/8.3.1/../../../../pic32c/lib/thumb/v6-m/nofp\libm-fast-emfloat.a(__aeabi_d2iz.o) (.L__aeabi_d2uiz_fast_entry)
c:/program files/microchip/xc32/v4.35/bin/bin/../../lib/gcc/pic32c/8.3.1/thumb/v6-m/nofp\libgcc.a(_udivsi3.o)
                              build/default/production/_ext/17022449/plib_sercom4_spi_master.o (__aeabi_uidiv)
c:/program files/microchip/xc32/v4.35/bin/bin/../../lib/gcc/pic32c/8.3.1/thumb/v6-m/nofp\libgcc.a(_divsi3.o)
                              build/default/production/_ext/559172130/tfa.o (__aeabi_idiv)
c:/program files/microchip/xc32/v4.35/bin/bin/../../lib/gcc/pic32c/8.3.1/thumb/v6-m/nofp\libgcc.a(_dvmd_tls.o)
                              c:/program files/microchip/xc32/v4.35/bin/bin/../../lib/gcc/pic32c/8.3.1/thumb/v6-m/nofp\libgcc.a(_udivsi3.o) (__aeabi_idiv0)
c:/program files/microchip/xc32/v4.35/bin/bin/../../lib/gcc/pic32c/8.3.1/thumb/v6-m/nofp\libgcc.a(_aeabi_uldivmod.o)
                              build/default/production/_ext/101884895/sys_time.o (__aeabi_uldivmod)
c:/program files/microchip/xc32/v4.35/bin/bin/../../lib/gcc/pic32c/8.3.1/thumb/v6-m/nofp\libgcc.a(_muldi3.o)
                              build/default/production/_ext/101884895/sys_time.o (__aeabi_lmul)
c:/program files/microchip/xc32/v4.35/bin/bin/../../lib/gcc/pic32c/8.3.1/thumb/v6-m/nofp\libgcc.a(_udivmoddi4.o)
                              c:/program files/microchip/xc32/v4.35/bin/bin/../../lib/gcc/pic32c/8.3.1/thumb/v6-m/nofp\libgcc.a(_aeabi_uldivmod.o) (__udivmoddi4)
c:/program files/microchip/xc32/v4.35/bin/bin/../../lib/gcc/pic32c/8.3.1/thumb/v6-m/nofp\libgcc.a(_lshrdi3.o)
                              c:/program files/microchip/xc32/v4.35/bin/bin/../../lib/gcc/pic32c/8.3.1/thumb/v6-m/nofp\libgcc.a(_udivmoddi4.o) (__aeabi_llsr)
c:/program files/microchip/xc32/v4.35/bin/bin/../../lib/gcc/pic32c/8.3.1/thumb/v6-m/nofp\libgcc.a(_ashldi3.o)
                              c:/program files/microchip/xc32/v4.35/bin/bin/../../lib/gcc/pic32c/8.3.1/thumb/v6-m/nofp\libgcc.a(_udivmoddi4.o) (__aeabi_llsl)
c:/program files/microchip/xc32/v4.35/bin/bin/../../lib/gcc/pic32c/8.3.1/thumb/v6-m/nofp\libgcc.a(_clzdi2.o)
                              c:/program files/microchip/xc32/v4.35/bin/bin/../../lib/gcc/pic32c/8.3.1/thumb/v6-m/nofp\libgcc.a(_udivmoddi4.o) (__clzdi2)
c:/program files/microchip/xc32/v4.35/bin/bin/../../lib/gcc/pic32c/8.3.1/thumb/v6-m/nofp\libgcc.a(_clzsi2.o)
                              c:/program files/microchip/xc32/v4.35/bin/bin/../../lib/gcc/pic32c/8.3.1/thumb/v6-m/nofp\libgcc.a(_clzdi2.o) (__clzsi2)
c:/program files/microchip/xc32/v4.35/bin/bin/../../lib/gcc/pic32c/8.3.1/../../../../pic32c/lib/thumb/v6-m/nofp\libpic32c.a(pic32_data_init_clear.o)
                              (__dinit_clear_needed)
c:/program files/microchip/xc32/v4.35/bin/bin/../../lib/gcc/pic32c/8.3.1/../../../../pic32c/lib/thumb/v6-m/nofp\libpic32c.a(pic32_data_init_copy.o)
                              (__dinit_copy_needed)

Microchip PIC32 Memory-Usage Report

ROM Program-Memory Usage
section                    address  length [bytes]      (dec)  Description
-------                 ----------  -------------------------  -----------
.vectors                         0           0xac         172   
.text                         0xac           0x20          32  App's exec code 
.ARM.exidx                    0xcc            0x8           8   
.text.__fmt_fp                0xd4          0x4bc        1212   
.text.__fmt_a                0x590          0x488        1160   
.text.MAC_ProcessPhyDat      0xa18          0x460        1120   
.dinit                       0xe78          0x440        1088   
.rodata.MAC_MLME_Set        0x12b8          0x3c4         964   
.rodata.MAC_MLME_Get        0x167c          0x3c4         964   
.text.__printf_core         0x1a40          0x340         832   
.text.MAC_MCPS_DataRequ     0x1d80          0x2d4         724   
.text.PHY_TxDoneCallbac     0x2054          0x24c         588   
.rodata                     0x22a0          0x234         564  Read-only const 
.text.MAC_BuildAndTxDat     0x24d4          0x230         560   
.text.PHY_PibSet            0x2704          0x210         528   
.text.set_trx_state         0x2914          0x208         520   
.text.MAC_MLME_Get          0x2b1c          0x200         512   
.text.xTaskCreate           0x2d1c          0x1d8         472   
.text.MAC_MLME_Disassoc     0x2ef4          0x1d8         472   
.text.MAC_MLME_ScanRequ     0x30cc          0x1d0         464   
.text.MAC_ProcessBeacon     0x329c          0x1cc         460   
.text.__aeabi_dadd          0x3468          0x1c8         456   
.text.Handle_ButtonInte     0x3630          0x1b4         436   
.text.MAC_BuildAndTxBea     0x37e4          0x1a8         424   
.text.MAC_MLME_Set          0x398c          0x1a4         420   
.text.prvTimerTask          0x3b30          0x19c         412   
.text.MAC_MLME_Associat     0x3ccc          0x18c         396   
.text.ScanProceed           0x3e58          0x18c         396   
.text.__aeabi_dmul_aux      0x3fe4          0x18a         394   
.text.NonMaskableInt_Ha     0x416e            0x2           2   
.text.MAC_PrepDisassocC     0x4170          0x17c         380   
.text.SERCOM4_SPI_Write     0x42ec          0x178         376   
.text.MAC_ProcessDataFr     0x4464          0x168         360   
.text.PHY_Init              0x45cc          0x15c         348   
.text.MAC_HandleTxNullD     0x4728          0x15c         348   
.text.SERCOM4_SPI_Inter     0x4884          0x154         340   
.text.MAC_TxCoordRealig     0x49d8          0x14c         332   
.text.xQueueGenericSend     0x4b24          0x138         312   
.text.xQueueSemaphoreTa     0x4c5c          0x136         310   
.text.HardFault_Handler     0x4d92            0x2           2   
.text.xTaskIncrementTic     0x4d94          0x134         308   
.text.__fmt_x               0x4ec8          0x132         306   
.text.vApplicationIdleH     0x4ffa            0x2           2   
.text.pvPortMalloc          0x4ffc          0x128         296   
.text.MAC_MLME_StartReq     0x5124          0x124         292   
.text.PHY_PibGet            0x5248          0x11c         284   
.text.CheckForPanIdConf     0x5364          0x118         280   
.text.SYS_Initialize        0x547c          0x110         272   
.text.MAC_MLME_Associat     0x558c          0x108         264   
.text.SERCOM0_USART_Wri     0x5694          0x104         260   
.text.xQueueReceive         0x5798           0xf8         248   
.text.MAC_ExtractMhrAdd     0x5890           0xec         236   
.text.SERCOM0_USART_ISR     0x597c           0xec         236   
.text.xTaskResumeAll        0x5a68           0xe8         232   
.text.SYS_TIME_PLIBCall     0x5b50           0xe8         232   
.text                       0x5c38           0xe2         226  App's exec code 
.text.vApplicationTickH     0x5d1a            0x2           2   
.text.SERCOM0_USART_ISR     0x5d1c           0xe0         224   
.text.SYS_TIME_AddToLis     0x5dfc           0xdc         220   
.text.Handle_AssociateI     0x5ed8           0xdc         220   
.text.send_frame            0x5fb4           0xd8         216   
.text.vTaskSwitchContex     0x608c           0xc4         196   
.text.SYS_TIME_Initiali     0x6150           0xc4         196   
.text.__aeabi_ddiv          0x6214           0xc4         196   
.text.SYS_TIME_TimerObj     0x62d8           0xc0         192   
.text.MAC_SoftReset         0x6398           0xc0         192   
.text.__pop_int             0x6458           0xbe         190   
.text.Dummy_Handler         0x6516            0x2           2   
.text.SYS_TIME_HwTimerC     0x6518           0xbc         188   
.rodata.set_trx_state       0x65d4           0xb4         180   
.text.SendScanCmd           0x6688           0xb4         180   
.text.MAC_ProcessOrphan     0x673c           0xb4         180   
.text.Handle_DataConf       0x67f0           0xb4         180   
.text.floor                 0x68a4           0xb4         180   
.text.__fmt_d               0x6958           0xb2         178   
.text.USR_MLME_SyncLoss     0x6a0a            0x2           2   
.text.MAC_SyncLoss          0x6a0c           0xb0         176   
.text.MAC_ProcessDataRe     0x6abc           0xb0         176   
.text.MAC_MLME_RxEnable     0x6b6c           0xb0         176   
.text.prvSampleTimeNow      0x6c1c           0xb0         176   
.text.PHY_EdStart           0x6ccc           0xa8         168   
.text                       0x6d74           0xa8         168  App's exec code 
.text.CLOCK_Initialize      0x6e1c           0xa4         164   
.text.bmm_buffer_init       0x6ec0           0xa4         164   
.text.switch_pll_on         0x6f64           0xa0         160   
.text.xQueueGenericSend     0x7004           0x9e         158   
.text.Dummy_App_Func        0x70a2            0x2           2   
.text.MAC_ProcessAssoci     0x70a4           0x9c         156   
.text.ScanSetComplete       0x7140           0x9c         156   
.text.prvUnlockQueue        0x71dc           0x98         152   
.text.SERCOM0_USART_Rea     0x7274           0x94         148   
.text.MAC_ScanSendCompl     0x7308           0x94         148   
.text.Handle_SetConf        0x739c           0x94         148   
.text.xTaskPriorityInhe     0x7430           0x90         144   
.rodata.dispatch_Table      0x74c0           0x90         144   
.text.write_all_tal_pib     0x7550           0x90         144   
.text.WPAN_MCPS_Datareq     0x75e0           0x90         144   
.text.handle_tx_end_irq     0x7670           0x8c         140   
.rodata.MAC_ProcessPhyD     0x76fc           0x8c         140   
.text.Handle_DataInd        0x7788           0x8c         140   
.text.Handle_GetConf        0x7814           0x8c         140   
.text                       0x78a0           0x8c         140  App's exec code 
.text.internal_tal_rese     0x792c           0x88         136   
.text.SERCOM0_USART_Ini     0x79b4           0x88         136   
.text.prvAddCurrentTask     0x7a3c           0x84         132   
.text.tal_generate_rand     0x7ac0           0x80         128   
.text.PHY_TaskHandler       0x7b40           0x80         128   
.text.PAL_TimerStart        0x7bc0           0x80         128   
.text.WPAN_Tasks            0x7c40           0x7c         124   
.text.EIC_Initialize        0x7cbc           0x7c         124   
.text.handle_received_f     0x7d38           0x7c         124   
.text.xQueueGiveFromISR     0x7db4           0x7a         122   
.text.__pad                 0x7e2e           0x7a         122   
.text.xTaskRemoveFromEv     0x7ea8           0x78         120   
.text.WPAN_MLME_StartRe     0x7f20           0x78         120   
.text.MAC_MLME_PollRequ     0x7f98           0x78         120   
.text.prvCopyDataToQueu     0x8010           0x76         118   
.text.__cvt_u               0x8086           0x76         118   
.text.xTaskCheckForTime     0x80fc           0x74         116   
.text.MAC_Timer_Persist     0x8170           0x74         116   
.text.NVIC_Initialize       0x81e4           0x70         112   
.text.PORT_Initialize       0x8254           0x70         112   
.text.SYS_CONSOLE_Initi     0x82c4           0x70         112   
.text.SYS_CONSOLE_Print     0x8334           0x70         112   
.text.SYS_Tasks             0x83a4           0x70         112   
.text.__fmt_o               0x8414           0x6e         110   
.text.Console_UART_Task     0x8482            0x2           2   
.text.MAC_ProcessCoordR     0x8484           0x6c         108   
.text.trx_config            0x84f0           0x6c         108   
.text.prvIdleTask           0x855c           0x6c         108   
.text.vTaskPriorityDisi     0x85c8           0x6c         108   
.text.trx_reg_read          0x8634           0x6c         108   
.text.qmm_queue_remove      0x86a0           0x6a         106   
.text.vPortSVCHandler       0x870a            0x2           2   
.text.MAC_MLME_CommStat     0x870c           0x68         104   
.text.trx_reg_write         0x8774           0x68         104   
.text.__pop_ptr             0x87dc           0x68         104   
.text.MAC_MLME_ResetReq     0x8844           0x64         100   
.text.MAC_ProcessDataRe     0x88a8           0x64         100   
.text.xQueueGenericRese     0x890c           0x62          98   
.text.Data_Ind_LED_Time     0x896e            0x2           2   
.text.PHY_Reset             0x8970           0x60          96   
.text.EIC_InterruptHand     0x89d0           0x60          96   
.text.xTaskPriorityDisi     0x8a30           0x60          96   
.text.SYS_TIME_RemoveFr     0x8a90           0x60          96   
.text.SYS_TIME_TimerSta     0x8af0           0x60          96   
.text.MAC_Timer_Respons     0x8b50           0x60          96   
.text.trx_frame_write       0x8bb0           0x60          96   
.text.trx_frame_read        0x8c10           0x60          96   
.text.MAC_FFDDemoInit       0x8c70           0x60          96   
.text.vsnprintf             0x8cd0           0x60          96   
.text.vTaskStartSchedul     0x8d30           0x5c          92   
.text.MAC_Init              0x8d8c           0x5c          92   
.text.palTimerCallback      0x8de8           0x5c          92   
.text.__libc_start_init     0x8e44           0x5c          92   
.text.OSAL_SEM_Create       0x8ea0           0x5a          90   
.text.Data_Conf_LED_Tim     0x8efa            0x2           2   
.text.PHY_RxEnable          0x8efc           0x58          88   
.text.SYS_TIME_TimerAdd     0x8f54           0x58          88   
.text.MAC_Timer_RxOffCb     0x8fac           0x58          88   
.text.MAC_MCPS_DataInd      0x9004           0x58          88   
.text.WPAN_MLME_SetReq      0x905c           0x58          88   
.text.xTimerGenericComm     0x90b4           0x58          88   
.text.vPortFree             0x910c           0x58          88   
.text.__fmt_u               0x9164           0x56          86   
.text.USR_MCPS_PurgeCon     0x91ba            0x2           2   
.text.SYS_TIME_DelayUS      0x91bc           0x54          84   
.text.MAC_TaskHandler       0x9210           0x54          84   
.text.init_tal_pib          0x9264           0x54          84   
.text.MAC_TimersStop        0x92b8           0x54          84   
.text.SERCOM0_USART_Int     0x930c           0x54          84   
.text.trx_irq_handler_c     0x9360           0x54          84   
.text.prvInsertBlockInt     0x93b4           0x54          84   
.text.WPAN_MLME_Associa     0x9408           0x50          80   
.text.WPAN_MLME_ScanReq     0x9458           0x50          80   
.text.MAC_MCPS_PurgeReq     0x94a8           0x50          80   
.text.prvCheckForValidL     0x94f8           0x50          80   
.text.vQueueWaitForMess     0x9548           0x50          80   
.text.ScanCleanUp           0x9598           0x50          80   
.text.ed_scan_done          0x95e8           0x50          80   
.text.Handle_MACMessage     0x9638           0x50          80   
.text.__fmt_s               0x9688           0x50          80   
.text.findLongBuffer        0x96d8           0x4e          78   
.text.prvNotifyQueueSet     0x9726           0x4e          78   
.text.MAC_Timer_Assocre     0x9774           0x4c          76   
.text.convert_phyTransm     0x97c0           0x4c          76   
.text.MAC_TimersInit        0x980c           0x4c          76   
.text.SERCOM0_USART_ISR     0x9858           0x4c          76   
.text.PHY_RxFrameCallba     0x98a4           0x4c          76   
.rodata.Handle_SetConf      0x98f0           0x4c          76   
.text.__pic32c_data_ini     0x993c           0x4c          76   
.text                       0x9988           0x48          72  App's exec code 
.text.Reset_Handler         0x99d0           0x48          72   
.text.prvInsertTimerInA     0x9a18           0x48          72   
.text.CheckForPanIdConf     0x9a60           0x48          72   
.text.PAL_GetRandomNumb     0x9aa8           0x48          72   
.text.MAC_CoordRealignm     0x9af0           0x48          72   
.text.Handle_StartConf      0x9b38           0x48          72   
.text.MAC_MLME_OrphanRe     0x9b80           0x46          70   
.text.xTimerCreate          0x9bc6           0x46          70   
.text.PHY_TrxSleep          0x9c0c           0x44          68   
.text.tx_done_handling      0x9c50           0x44          68   
.text.MAC_ProcessDisass     0x9c94           0x44          68   
.rodata                     0x9cd8            0x8           8  Read-only const 
.text.xPortPendSVHandle     0x9ce0           0x44          68   
.text.trx_ed_irq_handle     0x9d24           0x44          68   
.text.PAL_Init              0x9d68           0x44          68   
.text.process_incoming_     0x9dac           0x44          68   
.text.USR_MCPS_DataInd      0x9df0           0x44          68   
.text.__aeabi_dcmple        0x9e34           0x44          68   
.text                       0x9e78           0x44          68  App's exec code 
.text.findShortBuffer       0x9ebc           0x40          64   
.text.TC3_TimerInitiali     0x9efc           0x40          64   
.text.SYS_TIME_GetTimer     0x9f3c           0x40          64   
.text.SYS_TIME_TimerDes     0x9f7c           0x40          64   
.text.MAC_ProcessAssoci     0x9fbc           0x40          64   
.text.MAC_GetPibAttribu     0x9ffc           0x40          64   
.text.APP_Tasks             0xa03c           0x40          64   
.text.MAC_Gen_MLME_Disa     0xa07c           0x40          64   
.text.Console_UART_Read     0xa0bc           0x40          64   
.text.Console_UART_Writ     0xa0fc           0x40          64   
.text.MAC_MLME_CommStat     0xa13c           0x40          64   
.text.MAC_Timer_ScanDur     0xa17c           0x40          64   
.text.USR_MLME_Associat     0xa1bc           0x40          64   
.text.atoi                  0xa1fc           0x40          64   
.text                       0xa23c           0x40          64  App's exec code 
.text.__aeabi_dcmpgt        0xa27c           0x3e          62   
.text.__aeabi_dcmplt        0xa2ba           0x3e          62   
.text.SYS_INT_SourceDis     0xa2f8           0x3c          60   
.text.SYS_TIME_Resource     0xa334           0x3c          60   
.text.SYS_TIME_CountToU     0xa370           0x3c          60   
.text.PHY_TxFrame           0xa3ac           0x3c          60   
.text.SERCOM4_SPI_Initi     0xa3e8           0x3c          60   
.text.AddPendingShortAd     0xa424           0x3c          60   
.text.AddPendingExtende     0xa460           0x3c          60   
.rodata.PHY_TxDoneCallb     0xa49c           0x3c          60   
.text.WPAN_MLME_ResetRe     0xa4d8           0x3c          60   
.text.WPAN_MLME_GetReq      0xa514           0x3c          60   
.text.xTimerCreateTimer     0xa550           0x3c          60   
.text.PHY_EdEndCallback     0xa58c           0x3c          60   
.text.xPortStartSchedul     0xa5c8           0x3c          60   
.rodata.Handle_MACMessa     0xa604           0x3c          60   
.text.USR_MLME_BeaconNo     0xa640           0x3c          60   
.text.USR_MLME_ScanConf     0xa67c           0x3c          60   
.text                       0xa6b8           0x3c          60  App's exec code 
.text.SYS_TIME_UpdateTi     0xa6f4           0x38          56   
.text.Console_UART_Writ     0xa72c           0x38          56   
.text.Console_UART_Writ     0xa764           0x38          56   
.text.Console_UART_Read     0xa79c           0x38          56   
.text.Console_UART_Read     0xa7d4           0x38          56   
.text.bmm_buffer_alloc      0xa80c           0x38          56   
.text.OSAL_QUEUE_SendIS     0xa844           0x34          52   
.text.SYS_CONSOLE_Messa     0xa878           0x34          52   
.text.OSAL_SEM_PostISR      0xa8ac           0x34          52   
.text.MAC_StartPersiste     0xa8e0           0x34          52   
.text.xTaskGetTickCount     0xa914            0xc          12   
.text.vPortStartFirstTa     0xa920           0x34          52   
.text.__fmt_state           0xa954           0x34          52   
.text.__aeabi_d2iz          0xa988           0x34          52   
.text.MAC_IdleTrans         0xa9bc           0x32          50   
.text.xQueueGenericCrea     0xa9ee           0x32          50   
.text.SYS_TIME_Counter6     0xaa20           0x30          48   
.text.MAC_MLME_SetReque     0xaa50           0x30          48   
.text.SetPhyPibInternal     0xaa80           0x30          48   
.text.bmm_buffer_free       0xaab0           0x30          48   
.text.MAC_Timer_PollWai     0xaae0           0x30          48   
.text.Handle_ScanConf       0xab10           0x30          48   
.text.USR_MCPS_DataConf     0xab40           0x30          48   
.text.USR_MLME_Associat     0xab70           0x30          48   
.text.USR_MLME_CommStat     0xaba0           0x30          48   
.text.USR_MLME_GetConf      0xabd0           0x30          48   
.text.vListInsert           0xac00           0x2e          46   
.text.qmm_queue_read        0xac2e           0x2e          46   
.text.__aeabi_dcmpeq        0xac5c           0x2e          46   
.text.__aeabi_d2uiz         0xac8a           0x2e          46   
.text.prvResetNextTaskU     0xacb8           0x2c          44   
.text.MAC_MLME_GetReque     0xace4           0x2c          44   
.rodata.sysConsoleUARTD     0xad10           0x2c          44   
.text.MAC_MLME_BeaconNo     0xad3c           0x2c          44   
.text.MAC_MLME_Disassoc     0xad68           0x2c          44   
.text.PAL_TimerStop         0xad94           0x2c          44   
.text.button_next_state     0xadc0           0x2c          44   
.text.SYS_TIME_TimerPer     0xadec           0x2a          42   
.text.__pop_float           0xae16           0x2a          42   
.text.EIC_CallbackRegis     0xae40           0x28          40   
.text.vTaskPlaceOnEvent     0xae68           0x28          40   
.text.TC3_TimerInterrup     0xae90           0x28          40   
.text.SYS_TIME_Resource     0xaeb8           0x28          40   
.text.PHY_TrxWakeup         0xaee0           0x28          40   
.text.SERCOM4_SPI_IsBus     0xaf08           0x28          40   
.text.PHY_PostTask          0xaf30           0x28          40   
.text.TAL_PostTask          0xaf58           0x28          40   
.text.MAC_ProcessOrphan     0xaf80           0x28          40   
.text.MAC_MLME_ScanConf     0xafa8           0x28          40   
.rodata.prvTimerTask        0xafd0           0x28          40   
.text.vPortSetupTimerIn     0xaff8           0x28          40   
.text.Gen_MLME_PollConf     0xb020           0x28          40   
.text.PAL_TimerDelay        0xb048           0x28          40   
.text.qmm_queue_append      0xb070           0x28          40   
.text.qmm_queue_flush       0xb098           0x28          40   
.text.print_stack_app_b     0xb0c0           0x28          40   
.text.xQueueAddToSet        0xb0e8           0x26          38   
.text.uxListRemove          0xb10e           0x26          38   
.text.__string_out          0xb134           0x26          38   
.text.USR_MLME_Disassoc     0xb15a            0x2           2   
.text.DispatchEvent         0xb15c           0x24          36   
.text.OSAL_QUEUE_Send       0xb180           0x24          36   
.text.OSAL_QUEUE_Receiv     0xb1a4           0x24          36   
.text.SYS_TIME_USToCoun     0xb1c8           0x24          36   
.text.tal_trx_wakeup        0xb1ec           0x24          36   
.text.sendFrame             0xb210           0x24          36   
.text.OSAL_SEM_Pend         0xb234           0x24          36   
.text.OSAL_MUTEX_Lock       0xb258           0x24          36   
.text.Console_UART_Init     0xb27c           0x24          36   
.text.RemoveFrameFromIn     0xb2a0           0x24          36   
.rodata                     0xb2c4           0x24          36  Read-only const 
.text.WPAN_Task             0xb2e8           0x24          36   
.text.MAC_TrxInitSleep      0xb30c           0x24          36   
.text.MAC_SleepTrans        0xb330           0x24          36   
.text.prvCopyDataFromQu     0xb354           0x24          36   
.text.xQueueCreateMutex     0xb378           0x24          36   
.text.trx_reg_bit_write     0xb39c           0x24          36   
.text.xPortSysTickHandl     0xb3c0           0x24          36   
.text.PAL_TimerIsRunnin     0xb3e4           0x24          36   
.text.xTaskGetScheduler     0xb408           0x20          32   
.text.TC3_Timer16bitCou     0xb428           0x20          32   
.text.SYS_TIME_TimerCre     0xb448           0x20          32   
.rodata.tx_done_handlin     0xb468           0x20          32   
.text.MAC_GenMLMEAssoci     0xb488           0x20          32   
.rodata.mac_PibSize         0xb4a8           0x20          32   
.text.TAL_Tasks             0xb4c8           0x20          32   
.text.MAC_TrxWakeup         0xb4e8           0x20          32   
.text.MAC_GenMCPSDataCo     0xb508           0x20          32   
.text.pxPortInitialiseS     0xb528           0x20          32   
.rodata.Dispaly_Result_     0xb548           0x20          32   
.text.USR_MLME_PollConf     0xb568           0x20          32   
.text.USR_MLME_ResetCon     0xb588           0x20          32   
.text.USR_MLME_SetConf      0xb5a8           0x20          32   
.text.USR_MLME_StartCon     0xb5c8           0x20          32   
.rodata                     0xb5e8           0x1e          30  Read-only const 
.text.__dinit_copy          0xb606           0x1e          30   
.text.WPAN_PostTask         0xb624           0x1c          28   
.text.vTaskPlaceOnEvent     0xb640           0x1c          28   
.text.pvTaskIncrementMu     0xb65c           0x1c          28   
.text.SYS_INT_SourceRes     0xb678           0x1c          28   
.text.SYS_TIME_GetElaps     0xb694           0x1c          28   
.text.APP_Initialize        0xb6b0           0x1c          28   
.text.GenRxEnableConf       0xb6cc           0x1c          28   
.rodata.sysTimePlibAPI      0xb6e8           0x1c          28   
.text.tal_get_trx_statu     0xb704           0x1c          28   
.text.SERCOM0_USART_Wri     0xb720           0x1c          28   
.text.SERCOM0_USART_Rea     0xb73c           0x1c          28   
.text.PAL_TimerGetId        0xb758           0x1c          28   
.text.Gen_MLME_StartCon     0xb774           0x1c          28   
.text.OSAL_CRIT_Enter       0xb790           0x1a          26   
.text.OSAL_MUTEX_Create     0xb7aa           0x1a          26   
.text.MAC_MLME_GetConf      0xb7c4           0x1a          26   
.text.USR_MLME_Disassoc     0xb7de            0x2           2   
.text.vTaskInternalSetT     0xb7e0           0x18          24   
.text.TC3_TimerStart        0xb7f8           0x18          24   
.text.TC3_TimerStop         0xb810           0x18          24   
.text.OSAL_QUEUE_Create     0xb828           0x18          24   
.text.SYS_TIME_DelayIsC     0xb840           0x18          24   
.text.OSAL_CRIT_Leave       0xb858           0x18          24   
.text.OSAL_SEM_Post         0xb870           0x18          24   
.text.OSAL_MUTEX_Unlock     0xb888           0x18          24   
.text.Console_UART_Reso     0xb8a0           0x18          24   
.text.trx_delay_micros      0xb8b8           0x18          24   
.rodata.sysConsole0UART     0xb8d0           0x18          24   
.text.MAC_MCPS_DataConf     0xb8e8           0x18          24   
.text.MAC_MLME_Associat     0xb900           0x18          24   
.text.MAC_MLME_Disassoc     0xb918           0x18          24   
.text.trx_irq_awake_han     0xb930           0x18          24   
.text.xTimerIsTimerActi     0xb948           0x18          24   
.text.vPortYield            0xb960           0x18          24   
.text.vPortEnterCritica     0xb978           0x18          24   
.text.Handle_ResetConf      0xb990           0x18          24   
.rodata.Display_Associa     0xb9a8           0x18          24   
.text.rand                  0xb9c0           0x18          24   
.text.strlen                0xb9d8           0x18          24   
.text.vfprintf              0xb9f0           0x18          24   
.text                       0xba08           0x18          24  App's exec code 
.text                       0xba20           0x18          24  App's exec code 
.text                       0xba38           0x18          24  App's exec code 
.text.OSAL_QUEUE_Select     0xba50           0x16          22   
.text.MAC_MCPS_PurgeCon     0xba66           0x16          22   
.text.MAC_MLME_Associat     0xba7c           0x16          22   
.text.MAC_MLME_OrphanIn     0xba92           0x16          22   
.text.MAC_MLME_SetConf      0xbaa8           0x16          22   
.text.xQueueSelectFromS     0xbabe           0x16          22   
.text.vListInitialise       0xbad4           0x16          22   
.text.vListInsertEnd        0xbaea           0x16          22   
.text.NVIC_INT_Restore      0xbb00           0x14          20   
.text.TC3_Timer16bitPer     0xbb14           0x14          20   
.text.TC3_Timer16bitCom     0xbb28           0x14          20   
.text.OSAL_QUEUE_Create     0xbb3c           0x14          20   
.text.OSAL_QUEUE_AddToS     0xbb50           0x14          20   
.text.Console_UART_Stat     0xbb64           0x14          20   
.text.MAC_MLME_PollConf     0xbb78           0x14          20   
.text.MAC_MLME_ResetCon     0xbb8c           0x14          20   
.text.MAC_MLME_RxEnable     0xbba0           0x14          20   
.text.MAC_MLME_StartCon     0xbbb4           0x14          20   
.text.WPAN_Init             0xbbc8           0x14          20   
.text.SERCOM0_USART_Rea     0xbbdc           0x14          20   
.text.SERCOM0_USART_Wri     0xbbf0           0x14          20   
.text.CheckPersistenceT     0xbc04           0x14          20   
.text.prvIsQueueEmpty       0xbc18           0x14          20   
.text.xQueueCreateCount     0xbc2c           0x14          20   
.text.vPortExitCritical     0xbc40           0x14          20   
.text.Handle_Default        0xbc54           0x14          20   
.rodata.Display_MSDU_Ha     0xbc68           0x14          20   
.rodata.Display_Rx_Fram     0xbc7c           0x14          20   
.rodata                     0xbc90           0x14          20  Read-only const 
.text.memcpy                0xbca4           0x14          20   
.text.memset                0xbcb8           0x14          20   
.text.stpcpy                0xbccc           0x14          20   
.text.NVIC_INT_Disable      0xbce0           0x12          18   
.text.OSAL_QUEUE_IsFull     0xbcf2           0x12          18   
.text.OSAL_SEM_GetCount     0xbd04           0x12          18   
.text.MAC_MLME_SyncLoss     0xbd16           0x12          18   
.text.uxQueueMessagesWa     0xbd28           0x12          18   
.text.trx_reg_bit_read      0xbd3a           0x12          18   
.text.prvTaskExitError      0xbd4c           0x12          18   
.text.__dinit_clear         0xbd5e           0x12          18   
.text.EIC_InterruptEnab     0xbd70           0x10          16   
.text.EIC_InterruptDisa     0xbd80           0x10          16   
.text.vTaskSuspendAll       0xbd90           0x10          16   
.text.SERCOM4_SPI_Read      0xbda0           0x10          16   
.rodata.tx_pwr_table        0xbdb0           0x10          16   
.text.DecrementPersiste     0xbdc0           0x10          16   
.rodata                     0xbdd0           0x10          16  Read-only const 
.rodata                     0xbde0           0x10          16  Read-only const 
.text.fma                   0xbdf0           0x10          16   
.text.__aeabi_dsub          0xbe00           0x10          16   
.text.main                  0xbe10            0xe          14   
.text.CheckMsduHandleCb     0xbe1e            0xe          14   
.text.tolower               0xbe2c            0xe          14   
.text.toupper               0xbe3a            0xe          14   
.text.vTaskMissedYield      0xbe48            0xc          12   
.text.TC3_TimerCallback     0xbe54            0xc          12   
.text.SERCOM4_SPI_Write     0xbe60            0xc          12   
.text.MAC_ProcessBeacon     0xbe6c            0xc          12   
.text.NVMCTRL_Initializ     0xbe78            0xc          12   
.text.FindBufferCb          0xbe84            0xc          12   
.rodata.sysConsole0Init     0xbe90            0xc          12   
.text.xQueueIsQueueFull     0xbe9c            0xc          12   
.text.xQueueCreateSet       0xbea8            0xc          12   
.text.PAL_GetCurrentTim     0xbeb4            0xc          12   
.text.qmm_queue_init        0xbec0            0xc          12   
.text.srand                 0xbecc            0xc          12   
.text.strcpy                0xbed8            0xc          12   
.text.EIC_interrupt_cb      0xbee4            0xa          10   
.text.USR_MLME_OrphanIn     0xbeee            0x2           2   
.text.TC3_TimerFrequenc     0xbef0            0x8           8   
.text.SYS_INT_Disable       0xbef8            0x8           8   
.text.SYS_INT_Restore       0xbf00            0x8           8   
.text.SYS_TIME_CounterG     0xbf08            0x8           8   
.rodata.phy_PibSize         0xbf10            0x8           8   
.text.OSAL_Malloc           0xbf18            0x8           8   
.text.OSAL_Free             0xbf20            0x8           8   
.text.TAL_TaskHandler       0xbf28            0x8           8   
.rodata.sysTimeInitData     0xbf30            0x8           8   
.text.lAPP_Tasks            0xbf38            0x8           8   
.text._TAL_Tasks            0xbf40            0x8           8   
.text._WPAN_Tasks           0xbf48            0x8           8   
.text.SERCOM0_USART_Wri     0xbf50            0x8           8   
.rodata                     0xbf58            0x8           8  Read-only const 
.text.ulSetInterruptMas     0xbf60            0x8           8   
.rodata                     0xbf68            0x7           7  Read-only const 
.text.trx_delay_loop        0xbf70            0x6           6   
.text.vClearInterruptMa     0xbf76            0x6           6   
.text.vListInitialiseIt     0xbf7c            0x6           6   
.text.vApplicationStack     0xbf82            0x4           4   
.text.vApplicationMallo     0xbf86            0x4           4   
.text.Console_UART_Flus     0xbf8a            0x4           4   
.text.USR_MLME_RxEnable     0xbf8e            0x2           2   
.rodata.sysConsole0UART     0xbf90            0x4           4   
.text.__dummy_decompres     0xbf94            0x4           4   
.text                       0xbf98            0x4           4  App's exec code 
.text.__dummy               0xbf9c            0x2           2   
      Total ROM used  :      0xbf9d       49053  18.7% of 0x40000
        --------------------------------------------------------------------------
         Total Program Memory used  :      0xbf9d       49053  18.7% of 0x40000
        --------------------------------------------------------------------------


RAM Data-Memory Usage
section                    address  length [bytes]      (dec)  Description
-------                 ----------  -------------------------  -----------
.bss.ucHeap             0x20000000         0x2f40       12096   
.bss.buf_pool           0x20002f40         0x10a4        4260   
.bss.buf_header         0x20003fe4           0xd8         216   
.bss.consolePrintBuffer 0x200040bc           0xc8         200   
.bss.eicCallbackObject  0x20004184           0xc0         192   
.bss.timers             0x20004244           0xa0         160   
.bss.SERCOM0_USART_Read 0x200042e4           0x80         128   
.bss.SERCOM0_USART_Writ 0x20004364           0x80         128   
.bss.pxReadyTasksLists  0x200043e4           0x64         100   
.bss.device_list        0x20004448           0x60          96   
.bss.palTimers          0x200044a8           0x50          80   
.bss                    0x200044f8           0x50          80  Uninitialized data 
.bss.osalAPIList        0x20004548           0x44          68   
.bss.semMacInternalHand 0x2000458c            0x4           4   
.bss.gSystemCounterObj  0x20004590           0x40          64   
.bss.macParseData       0x200045d0           0x40          64   
.bss.sercom0USARTObj    0x20004610           0x40          64   
.bss.macBeacon_Payload  0x20004650           0x34          52   
.bss.sercom4SPIObj      0x20004684           0x2c          44   
.bss.macPib             0x200046b0           0x20          32   
.bss.payload_arr        0x200046d0           0x1e          30   
.bss.macScanOrigPanid   0x200046ee            0x2           2   
.bss.tal_pib            0x200046f0           0x1d          29   
.bss.TAL_RETRY_TIMER    0x2000470d            0x1           1   
.bss.tal_sw_retry_count 0x2000470e            0x1           1   
.bss.tal_sw_retry_no_cs 0x2000470f            0x1           1   
.bss                    0x20004710           0x1c          28  Uninitialized data 
.bss.phy_info           0x2000472c           0x1c          28   
.bss.xDelayedTaskList1  0x20004748           0x14          20   
.bss.xDelayedTaskList2  0x2000475c           0x14          20   
.bss.xPendingReadyList  0x20004770           0x14          20   
.bss.xSuspendedTaskList 0x20004784           0x14          20   
.bss.xTasksWaitingTermi 0x20004798           0x14          20   
.bss.xActiveTimerList1  0x200047ac           0x14          20   
.bss.xActiveTimerList2  0x200047c0           0x14          20   
.bss.MAC_SyncLossBuffer 0x200047d4            0xe          14   
.bss.no_of_assoc_device 0x200047e2            0x2           2   
.bss.consoleDeviceInsta 0x200047e4            0xc          12   
.bss.indirectDataQueue  0x200047f0            0xc          12   
.bss.nhleMacQueue       0x200047fc            0xc          12   
.bss.phyMacQueue        0x20004808            0xc          12   
.bss.gConsoleUartData   0x20004814            0xc          12   
.bss.tal_incoming_frame 0x20004820            0xc          12   
.bss.free_large_buffer_ 0x2000482c            0xc          12   
.bss.free_small_buffer_ 0x20004838            0xc          12   
.bss.macNhleQueue       0x20004844            0xc          12   
.bss.msrParams          0x20004850            0xc          12   
.bss.TC3_CallbackObject 0x2000485c            0x8           8   
.bss.appData            0x20004864            0x8           8   
.bss.xActivatedMember   0x2000486c            0x4           4   
.bss.macLastSrcAddr     0x20004870            0x8           8   
.bss.phyTxFrameInfo     0x20004878            0x8           8   
.bss.sysObj             0x20004880            0x8           8   
.bss.xStart             0x20004888            0x8           8   
.bss.xQueueSet          0x20004890            0x4           4   
.bss.pxCurrentTCB       0x20004894            0x4           4   
.bss.pxDelayedTaskList  0x20004898            0x4           4   
.bss.pxOverflowDelayedT 0x2000489c            0x4           4   
.bss.uxCurrentNumberOfT 0x200048a0            0x4           4   
.bss.uxDeletedTasksWait 0x200048a4            0x4           4   
.bss.uxSchedulerSuspend 0x200048a8            0x4           4   
.bss.uxTaskNumber       0x200048ac            0x4           4   
.bss.uxTopReadyPriority 0x200048b0            0x4           4   
.bss.xIdleTaskHandle    0x200048b4            0x4           4   
.bss.xNextTaskUnblockTi 0x200048b8            0x4           4   
.bss.xNumOfOverflows    0x200048bc            0x4           4   
.bss.xPendedTicks       0x200048c0            0x4           4   
.bss.xSchedulerRunning  0x200048c4            0x4           4   
.bss.xTickCount         0x200048c8            0x4           4   
.bss.xYieldPending      0x200048cc            0x4           4   
.bss.beaconPtr          0x200048d0            0x4           4   
.bss.consolePrintBuffer 0x200048d4            0x4           4   
.bss.macConfBufPtr      0x200048d8            0x4           4   
.bss.macFrameInfo       0x200048dc            0x4           4   
.bss.macScanCmdBufPtr   0x200048e0            0x4           4   
.bss.mac_frame_ptr      0x200048e4            0x4           4   
.bss.tal_frame_to_tx    0x200048e8            0x4           4   
.bss.tal_rx_buffer      0x200048ec            0x4           4   
.bss.semPhyInternalHand 0x200048f0            0x4           4   
.bss.semTalInternalHand 0x200048f4            0x4           4   
.bss.xAPP_Tasks         0x200048f8            0x4           4   
.bss.xTAL_Tasks         0x200048fc            0x4           4   
.bss.xWPAN_Tasks        0x20004900            0x4           4   
.bss.pxCurrentTimerList 0x20004904            0x4           4   
.bss.pxOverflowTimerLis 0x20004908            0x4           4   
.bss.xLastTime.5144     0x2000490c            0x4           4   
.bss.xTimerQueue        0x20004910            0x4           4   
.bss.xTimerTaskHandle   0x20004914            0x4           4   
.bss.scanChannels       0x20004918            0x4           4   
.bss.sampler_counter    0x2000491c            0x4           4   
.bss.pxEnd              0x20004920            0x4           4   
.bss.xBlockAllocatedBit 0x20004924            0x4           4   
.bss.xFreeBytesRemainin 0x20004928            0x4           4   
.bss.xMinimumEverFreeBy 0x2000492c            0x4           4   
.bss.xNumberOfSuccessfu 0x20004930            0x4           4   
.bss.xNumberOfSuccessfu 0x20004934            0x4           4   
.bss.Button_state       0x20004938            0x4           4   
.bss.Data_Conf_LED_Time 0x2000493c            0x4           4   
.bss.Data_Ind_LED_Timer 0x20004940            0x4           4   
.bss                    0x20004944            0x4           4  Uninitialized data 
.bss                    0x20004948            0x4           4  Uninitialized data 
.bss                    0x2000494c            0x4           4  Uninitialized data 
.bss                    0x20004950            0x4           4  Uninitialized data 
.bss.trx_trac_status    0x20004954            0x1           1   
.bss.isLastByteTransfer 0x20004955            0x1           1   
.bss.trx_pib_wakeup.846 0x20004956            0x1           1   
.bss.pendingAddressCoun 0x20004957            0x1           1   
.bss.isConsoleMutexCrea 0x20004958            0x1           1   
.bss.macBusy            0x20004959            0x1           1   
.bss.macLastDsn         0x2000495a            0x1           1   
.bss.macPollState       0x2000495b            0x1           1   
.bss.macRadioSleepState 0x2000495c            0x1           1   
.bss.macRxEnabled       0x2000495d            0x1           1   
.bss.macScanOrigChannel 0x2000495e            0x1           1   
.bss.macScanOrigPage    0x2000495f            0x1           1   
.bss.macScanState       0x20004960            0x1           1   
.bss.macState           0x20004961            0x1           1   
.bss.macSyncState       0x20004962            0x1           1   
.bss.Timer_DataPersiste 0x20004963            0x1           1   
.bss.Timer_PollWaitTime 0x20004964            0x1           1   
.bss.Timer_RxEnable     0x20004965            0x1           1   
.bss.Timer_ScanDuration 0x20004966            0x1           1   
.bss.scanCurrChannel    0x20004967            0x1           1   
.bss.scanCurrPage       0x20004968            0x1           1   
.bss.scanDuration       0x20004969            0x1           1   
.bss.scanType           0x2000496a            0x1           1   
.bss.max_ed_level       0x2000496b            0x1           1   
.bss.numOfTimers        0x2000496c            0x1           1   
.bss.palTimerInitialize 0x2000496d            0x1           1   
.bss.coord_state        0x2000496e            0x1           1   
.bss.curr_msdu_handle   0x2000496f            0x1           1   
.bss.current_channel    0x20004970            0x1           1   
.bss.current_channel_pa 0x20004971            0x1           1   
.data.gSysTimeTokenCoun 0x20004972            0x2           2   
.data.beacon_payload    0x20004974           0x18          24   
.data.uxCriticalNesting 0x2000498c            0x4           4   
         Total RAM used  :      0x4990       18832  57.5% of 0x8000
        --------------------------------------------------------------------------
            Total Data Memory used  :      0x4990       18832  57.5% of 0x8000
        --------------------------------------------------------------------------


Dynamic Data-Memory Reservation
section                    address  length [bytes]      (dec)  Description
-------                 ----------  -------------------------  -----------
heap                    0x20004998          0x200         512  Reserved for heap 
stack                   0x20004bb0         0x3448       13384  Reserved for stack 

        --------------------------------------------------------------------------

Microchip PIC32 Memory-Usage Report By Module

        text        data         bss         dec         hex    basename                              filename
--------------------------------------------------------------------------------
         468           0       12128       12596        3134    heap_4.o                          build/default/production/_ext/1665200909/heap_4.o
         268           0        4500        4768        12a0    bmm.o                             build/default/production/_ext/1374435801/bmm.o
        3104           0           1        3105         c21    mac_pib.o                         build/default/production/_ext/1655452824/mac_pib.o
        2488          24         144        2656         a60    demo_app_ffd.o                    build/default/production/_ext/85628700/demo_app_ffd.o
        2368           0         260        2628         a44    FreeRTOS_tasks.o                  build/default/production/_ext/404212886/FreeRTOS_tasks.o
        1954           2         224        2180         884    sys_time.o                        build/default/production/_ext/101884895/sys_time.o
        1940           0           0        1940         794    queue.o                           build/default/production/_ext/404212886/queue.o
        1728           0           8        1736         6c8    mac_scan.o                        build/default/production/_ext/1655452824/mac_scan.o
        1688           0           0        1688         698    mac_data_ind.o                    build/default/production/_ext/1655452824/mac_data_ind.o
        1268           0         320        1588         634    plib_sercom0_usart.o              build/default/production/_ext/504274921/plib_sercom0_usart.o
        1414           0           0        1414         586    mac_mcps_data.o                   build/default/production/_ext/1655452824/mac_mcps_data.o
        1228           0           0        1228         4cc    __fmt_fp.o                        libc-musl.a
        1226           0           0        1226         4ca    mac_data_req.o                    build/default/production/_ext/1655452824/mac_data_req.o
        1176           0           0        1176         498    __fmt_a.o                         libc-musl.a
        1132           0           0        1132         46c    phy_pib.o                         build/default/production/_ext/559172130/phy_pib.o
        1026           0          81        1107         453    phy.o                             build/default/production/_ext/559172130/phy.o
        1030           0          60        1090         442    timers.o                          build/default/production/_ext/404212886/timers.o
        1088           0           0        1088         440    data_init                         data_init
        1084           0           0        1084         43c    mac_associate.o                   build/default/production/_ext/1655452824/mac_associate.o
        1074           0           0        1074         432    __printf_core.o                   libc-musl.a
         984           0           0         984         3d8    mac_disassociate.o                build/default/production/_ext/1655452824/mac_disassociate.o
         844           0          45         889         379    plib_sercom4_spi_master.o         build/default/production/_ext/17022449/plib_sercom4_spi_master.o
         816           0           1         817         331    phy_init.o                        build/default/production/_ext/559172130/phy_init.o
         802           0           4         806         326    mac_misc.o                        build/default/production/_ext/1655452824/mac_misc.o
         688           0          12         700         2bc    mac_api.o                         build/default/production/_ext/1655452824/mac_api.o
         696           0           0         696         2b8    mac_process_phy_tx_frame_status.o build/default/production/_ext/1655452824/mac_process_phy_tx_frame_status.o
         520           0          82         602         25a    pal.o                             build/default/production/_ext/745501718/pal.o
         582           0           0         582         246    usr_mac_callbacks.o               build/default/production/_ext/85628700/usr_mac_callbacks.o
         564           0           0         564         234    mac_callback_wrapper.o            build/default/production/_ext/1655452824/mac_callback_wrapper.o
         556           0           5         561         231    mac_beacon.o                      build/default/production/_ext/1655452824/mac_beacon.o
         516           0           3         519         207    phy_tx.o                          build/default/production/_ext/559172130/phy_tx.o
         482           0          12         494         1ee    sys_console_uart.o                build/default/production/_ext/1832805299/sys_console_uart.o
         276           0         217         493         1ed    sys_console.o                     build/default/production/_ext/1832805299/sys_console.o
         292           0         192         484         1e4    plib_eic.o                        build/default/production/_ext/60167341/plib_eic.o
         460           0           0         460         1cc    mac_process_beacon_frame.o        build/default/production/_ext/1655452824/mac_process_beacon_frame.o
         458           0           0         458         1ca    phy_trx_reg_access.o              build/default/production/_ext/559172130/phy_trx_reg_access.o
         456           0           0         456         1c8    __aeabi_dadd.o                    libm-fast-emfloat.a
         356           0          84         440         1b8    initialization.o                  build/default/production/_ext/1171490990/initialization.o
         392           0          12         404         194    mac_start.o                       build/default/production/_ext/1655452824/mac_start.o
         390           4           0         394         18a    port.o                            build/default/production/_ext/1624415188/port.o
         394           0           0         394         18a    __aeabi_dmul_aux.o                libm-fast-emfloat.a
         372           0           0         372         174    osal_freertos.o                   build/default/production/_ext/1529399856/osal_freertos.o
         120           0         224         344         158    mac.o                             build/default/production/_ext/1655452824/mac.o
         332           0           0         332         14c    mac_tx_coord_realignment_command.obuild/default/production/_ext/1655452824/mac_tx_coord_realignment_command.o
         316           0           5         321         141    phy_ed.o                          build/default/production/_ext/559172130/phy_ed.o
         308           0           0         308         134    mac_poll.o                        build/default/production/_ext/1655452824/mac_poll.o
         306           0           0         306         132    __fmt_x.o                         libc-musl.a
         284           0          14         298         12a    mac_sync.o                        build/default/production/_ext/1655452824/mac_sync.o
         292           0           0         292         124    mac_rx_enable.o                   build/default/production/_ext/1655452824/mac_rx_enable.o
         244           0           8         252          fc    plib_tc3.o                        build/default/production/_ext/829342655/plib_tc3.o
         244           0           0         244          f4    qmm.o                             build/default/production/_ext/874725666/qmm.o
         236           0           0         236          ec    mac_data_extract_mhr.o            build/default/production/_ext/1655452824/mac_data_extract_mhr.o
         234           0           0         234          ea    _udivmoddi4.o                     libgcc.a
         228           0           0         228          e4    osal_freertos_extend.o            build/default/production/_ext/1529399856/osal_freertos_extend.o
         196           0           0         196          c4    __aeabi_ddiv.o                    libm-fast-emfloat.a
         192           0           0         192          c0    phy_rx.o                          build/default/production/_ext/559172130/phy_rx.o
         190           0           0         190          be    __pop_int.o                       libc-musl.a
         172           0          12         184          b8    tasks.o                           build/default/production/_ext/1171490990/tasks.o
         180           0           0         180          b4    mac_dispatcher.o                  build/default/production/_ext/1655452824/mac_dispatcher.o
         180           0           0         180          b4    floor.o                           libm-fast-emfloat.a
         178           0           0         178          b2    __fmt_d.o                         libc-musl.a
         174           0           0         174          ae    interrupts.o                      build/default/production/_ext/1171490990/interrupts.o
         168           0           0         168          a8    _divsi3.o                         libgcc.a
         152           0          12         164          a4    mac_task.o                        build/default/production/_ext/1655452824/mac_task.o
         164           0           0         164          a4    plib_clock.o                      build/default/production/_ext/1984496892/plib_clock.o
         150           0           0         150          96    plib_nvic.o                       build/default/production/_ext/1865468468/plib_nvic.o
         144           0           0         144          90    phy_pwr_mgmt.o                    build/default/production/_ext/559172130/phy_pwr_mgmt.o
         140           0           0         140          8c    _udivsi3.o                        libgcc.a
         134           0           0         134          86    list.o                            build/default/production/_ext/404212886/list.o
         118           0           0         118          76    __cvt_u.o                         libc-musl.a
         118           0           0         118          76    phy_irq_handler.o                 build/default/production/_ext/559172130/phy_irq_handler.o
         112           0           0         112          70    plib_port.o                       build/default/production/_ext/1865521619/plib_port.o
         112           0           0         112          70    phy_task.o                        build/default/production/_ext/957911548/phy_task.o
         110           0           0         110          6e    __fmt_o.o                         libc-musl.a
         110           0           0         110          6e    mac_orphan.o                      build/default/production/_ext/1655452824/mac_orphan.o
          80           0          28         108          6c    crtbegin.o                        c:/program files/microchip/xc32/v4.35/bin/bin/../../lib/gcc/pic32c/8.3.1/thumb/v6-m/nofp/crtbegin.o
         100           0           4         104          68    data_init.o                       libpic32c.a
         104           0           0         104          68    __pop_ptr.o                       libc-musl.a
         104           0           0         104          68    sys_int.o                         build/default/production/_ext/1881668453/sys_int.o
          92           0           8         100          64    app.o                             build/default/production/_ext/1360937237/app.o
          96           0           0          96          60    vsnprintf.o                       libc-musl.a
          94           0           0          94          5e    __libc_start_main.o               libc-musl.a
          88           0           0          88          58    phy_rx_enable.o                   build/default/production/_ext/559172130/phy_rx_enable.o
          87           0           0          87          57    __fmt_s.o                         libc-musl.a
          86           0           0          86          56    __fmt_u.o                         libc-musl.a
           0           0          80          80          50    libc.o                            libc-musl.a
          74           0           0          74          4a    startup_xc32.o                    build/default/production/_ext/1171490990/startup_xc32.o
          68           0           0          68          44    __aeabi_dcmple.o                  libm-fast-emfloat.a
          68           0           0          68          44    _muldi3.o                         libgcc.a
          64           0           0          64          40    _aeabi_uldivmod.o                 libgcc.a
          64           0           0          64          40    atoi.o                            libc-musl.a
          62           0           0          62          3e    __aeabi_dcmplt.o                  libm-fast-emfloat.a
          62           0           0          62          3e    __aeabi_dcmpgt.o                  libm-fast-emfloat.a
          60           0           0          60          3c    _clzsi2.o                         libgcc.a
          52           0           0          52          34    __aeabi_d2iz.o                    libm-fast-emfloat.a
          46           0           0          46          2e    __aeabi_d2uiz.o                   libm-fast-emfloat.a
          46           0           0          46          2e    __aeabi_dcmpeq.o                  libm-fast-emfloat.a
          42           0           0          42          2a    __pop_float.o                     libc-musl.a
          36           0           4          40          28    rand.o                            libc-musl.a
          30           0           0          30          1e    pic32_data_init_copy.o            libpic32c.a
          28           0           0          28          1c    phy_helper.o                      build/default/production/_ext/559172130/phy_helper.o
          24           0           0          24          18    _lshrdi3.o                        libgcc.a
          24           0           0          24          18    strlen.o                          libc-musl.a
          24           0           0          24          18    vfprintf.o                        libc-musl.a
          24           0           0          24          18    _clzdi2.o                         libgcc.a
          24           0           0          24          18    _ashldi3.o                        libgcc.a
          20           0           0          20          14    stpcpy.o                          libc-musl.a
          20           0           0          20          14    memset.o                          libc-musl.a
          20           0           0          20          14    memcpy.o                          libc-musl.a
          18           0           0          18          12    pic32_data_init_clear.o           libpic32c.a
          16           0           0          16          10    crtn.o                            c:/program files/microchip/xc32/v4.35/bin/bin/../../lib/gcc/pic32c/8.3.1/thumb/v6-m/nofp/crtn.o
          16           0           0          16          10    __aeabi_dsub.o                    libm-fast-emfloat.a
          16           0           0          16          10    fma.o                             libm-fast-emfloat.a
          14           0           0          14           e    toupper.o                         libc-musl.a
          14           0           0          14           e    tolower.o                         libc-musl.a
          14           0           0          14           e    main.o                            build/default/production/_ext/1360937237/main.o
          12           0           0          12           c    strcpy.o                          libc-musl.a
          12           0           0          12           c    freertos_hooks.o                  build/default/production/_ext/1171490990/freertos_hooks.o
          12           0           0          12           c    plib_nvmctrl.o                    build/default/production/_ext/1593096446/plib_nvmctrl.o
           8           0           0           8           8    crti.o                            c:/program files/microchip/xc32/v4.35/bin/bin/../../lib/gcc/pic32c/8.3.1/thumb/v6-m/nofp/crti.o
           4           0           0           4           4    _dvmd_tls.o                       libgcc.a
           0           0           4           4           4    __errno_location.o                libc-musl.a
           0           0           4           4           4    __environ.o                       libc-musl.a
           4           0           0           4           4    exceptions.o                      build/default/production/_ext/1171490990/exceptions.o
           2           0           0           2           2    usr_mlme_sync_loss_ind.o          build/default/production/_ext/1655452824/usr_mlme_sync_loss_ind.o
--------------------------------------------------------------------------------
       49061          30       18802       67893       10935    dist/default/production/Project.X.production.elf


Discarded input sections

 .text          0x00000000        0x0 c:/program files/microchip/xc32/v4.35/bin/bin/../../lib/gcc/pic32c/8.3.1/thumb/v6-m/nofp/crti.o
 .data          0x00000000        0x0 c:/program files/microchip/xc32/v4.35/bin/bin/../../lib/gcc/pic32c/8.3.1/thumb/v6-m/nofp/crti.o
 .bss           0x00000000        0x0 c:/program files/microchip/xc32/v4.35/bin/bin/../../lib/gcc/pic32c/8.3.1/thumb/v6-m/nofp/crti.o
 .xc_stack_usage.hdr
                0x00000000        0xe c:/program files/microchip/xc32/v4.35/bin/bin/../../lib/gcc/pic32c/8.3.1/thumb/v6-m/nofp/crti.o
 .xc_stack_usage
                0x00000000       0x26 c:/program files/microchip/xc32/v4.35/bin/bin/../../lib/gcc/pic32c/8.3.1/thumb/v6-m/nofp/crti.o
 .data          0x00000000        0x4 c:/program files/microchip/xc32/v4.35/bin/bin/../../lib/gcc/pic32c/8.3.1/thumb/v6-m/nofp/crtbegin.o
 .xc_stack_usage
                0x00000000       0x3c c:/program files/microchip/xc32/v4.35/bin/bin/../../lib/gcc/pic32c/8.3.1/thumb/v6-m/nofp/crtbegin.o
 .xc_stack_usage.hdr
                0x00000000        0xe c:/program files/microchip/xc32/v4.35/bin/bin/../../lib/gcc/pic32c/8.3.1/thumb/v6-m/nofp/crtbegin.o
 .text          0x00000000        0x0 build/default/production/_ext/1171490990/exceptions.o
 .data          0x00000000        0x0 build/default/production/_ext/1171490990/exceptions.o
 .bss           0x00000000        0x0 build/default/production/_ext/1171490990/exceptions.o
 .text          0x00000000        0x0 build/default/production/_ext/1655452824/mac_task.o
 .data          0x00000000        0x0 build/default/production/_ext/1655452824/mac_task.o
 .bss           0x00000000        0x0 build/default/production/_ext/1655452824/mac_task.o
 .text          0x00000000        0x0 build/default/production/_ext/1655452824/mac_process_beacon_frame.o
 .data          0x00000000        0x0 build/default/production/_ext/1655452824/mac_process_beacon_frame.o
 .bss           0x00000000        0x0 build/default/production/_ext/1655452824/mac_process_beacon_frame.o
 .text          0x00000000        0x0 build/default/production/_ext/1171490990/freertos_hooks.o
 .data          0x00000000        0x0 build/default/production/_ext/1171490990/freertos_hooks.o
 .bss           0x00000000        0x0 build/default/production/_ext/1171490990/freertos_hooks.o
 .text.vAssertCalled
                0x00000000       0x1a build/default/production/_ext/1171490990/freertos_hooks.o
 .text          0x00000000        0x0 build/default/production/_ext/1655452824/usr_mcps_purge_conf.o
 .data          0x00000000        0x0 build/default/production/_ext/1655452824/usr_mcps_purge_conf.o
 .bss           0x00000000        0x0 build/default/production/_ext/1655452824/usr_mcps_purge_conf.o
 .text.USR_MCPS_PurgeConf
                0x00000000        0x2 build/default/production/_ext/1655452824/usr_mcps_purge_conf.o
 .debug_info    0x00000000      0x352 build/default/production/_ext/1655452824/usr_mcps_purge_conf.o
 .debug_abbrev  0x00000000       0x5e build/default/production/_ext/1655452824/usr_mcps_purge_conf.o
 .debug_loc     0x00000000       0x4a build/default/production/_ext/1655452824/usr_mcps_purge_conf.o
 .debug_aranges
                0x00000000       0x20 build/default/production/_ext/1655452824/usr_mcps_purge_conf.o
 .debug_ranges  0x00000000       0x10 build/default/production/_ext/1655452824/usr_mcps_purge_conf.o
 .debug_line    0x00000000       0xd1 build/default/production/_ext/1655452824/usr_mcps_purge_conf.o
 .debug_str     0x00000000        0x0 build/default/production/_ext/1655452824/usr_mcps_purge_conf.o
 .comment       0x00000000       0x2c build/default/production/_ext/1655452824/usr_mcps_purge_conf.o
 .debug_frame   0x00000000       0x20 build/default/production/_ext/1655452824/usr_mcps_purge_conf.o
 .ARM.attributes
                0x00000000       0x2c build/default/production/_ext/1655452824/usr_mcps_purge_conf.o
 .text          0x00000000        0x0 build/default/production/_ext/1865468468/plib_nvic.o
 .data          0x00000000        0x0 build/default/production/_ext/1865468468/plib_nvic.o
 .bss           0x00000000        0x0 build/default/production/_ext/1865468468/plib_nvic.o
 .text.NVIC_INT_Enable
                0x00000000        0x8 build/default/production/_ext/1865468468/plib_nvic.o
 .text          0x00000000        0x0 build/default/production/_ext/1655452824/mac_sync.o
 .data          0x00000000        0x0 build/default/production/_ext/1655452824/mac_sync.o
 .bss           0x00000000        0x0 build/default/production/_ext/1655452824/mac_sync.o
 .text          0x00000000        0x0 build/default/production/_ext/559172130/phy_init.o
 .data          0x00000000        0x0 build/default/production/_ext/559172130/phy_init.o
 .bss           0x00000000        0x0 build/default/production/_ext/559172130/phy_init.o
 .text.trx_irq_flag_clear
                0x00000000        0xa build/default/production/_ext/559172130/phy_init.o
 .text          0x00000000        0x0 build/default/production/_ext/60167341/plib_eic.o
 .data          0x00000000        0x0 build/default/production/_ext/60167341/plib_eic.o
 .bss           0x00000000        0x0 build/default/production/_ext/60167341/plib_eic.o
 .text          0x00000000        0x0 build/default/production/_ext/1655452824/mac_data_req.o
 .data          0x00000000        0x0 build/default/production/_ext/1655452824/mac_data_req.o
 .bss           0x00000000        0x0 build/default/production/_ext/1655452824/mac_data_req.o
 .text          0x00000000        0x0 build/default/production/_ext/404212886/FreeRTOS_tasks.o
 .data          0x00000000        0x0 build/default/production/_ext/404212886/FreeRTOS_tasks.o
 .bss           0x00000000        0x0 build/default/production/_ext/404212886/FreeRTOS_tasks.o
 .text.vTaskDelete
                0x00000000       0x98 build/default/production/_ext/404212886/FreeRTOS_tasks.o
 .text.eTaskGetState
                0x00000000       0x78 build/default/production/_ext/404212886/FreeRTOS_tasks.o
 .text.uxTaskPriorityGet
                0x00000000       0x20 build/default/production/_ext/404212886/FreeRTOS_tasks.o
 .text.uxTaskPriorityGetFromISR
                0x00000000       0x20 build/default/production/_ext/404212886/FreeRTOS_tasks.o
 .text.vTaskPrioritySet
                0x00000000       0xb4 build/default/production/_ext/404212886/FreeRTOS_tasks.o
 .text.vTaskResume
                0x00000000       0x7c build/default/production/_ext/404212886/FreeRTOS_tasks.o
 .text.vTaskEndScheduler
                0x00000000       0x14 build/default/production/_ext/404212886/FreeRTOS_tasks.o
 .text.xTaskGetTickCountFromISR
                0x00000000        0xc build/default/production/_ext/404212886/FreeRTOS_tasks.o
 .text.uxTaskGetNumberOfTasks
                0x00000000        0xc build/default/production/_ext/404212886/FreeRTOS_tasks.o
 .text.pcTaskGetName
                0x00000000       0x14 build/default/production/_ext/404212886/FreeRTOS_tasks.o
 .text.vTaskDelayUntil
                0x00000000       0x54 build/default/production/_ext/404212886/FreeRTOS_tasks.o
 .text.vTaskDelay
                0x00000000       0x20 build/default/production/_ext/404212886/FreeRTOS_tasks.o
 .text.xTaskCatchUpTicks
                0x00000000       0x1c build/default/production/_ext/404212886/FreeRTOS_tasks.o
 .text.xTaskAbortDelay
                0x00000000       0x84 build/default/production/_ext/404212886/FreeRTOS_tasks.o
 .text.vTaskSuspend
                0x00000000       0x9c build/default/production/_ext/404212886/FreeRTOS_tasks.o
 .text.vTaskPlaceOnUnorderedEventList
                0x00000000       0x28 build/default/production/_ext/404212886/FreeRTOS_tasks.o
 .text.vTaskRemoveFromUnorderedEventList
                0x00000000       0x5c build/default/production/_ext/404212886/FreeRTOS_tasks.o
 .text.vTaskSetTimeOutState
                0x00000000       0x24 build/default/production/_ext/404212886/FreeRTOS_tasks.o
 .text.xTaskGetCurrentTaskHandle
                0x00000000        0xc build/default/production/_ext/404212886/FreeRTOS_tasks.o
 .text.uxTaskResetEventItemValue
                0x00000000       0x18 build/default/production/_ext/404212886/FreeRTOS_tasks.o
 .text.ulTaskNotifyTake
                0x00000000       0x6c build/default/production/_ext/404212886/FreeRTOS_tasks.o
 .text.xTaskNotifyWait
                0x00000000       0x84 build/default/production/_ext/404212886/FreeRTOS_tasks.o
 .text.xTaskGenericNotify
                0x00000000       0xa4 build/default/production/_ext/404212886/FreeRTOS_tasks.o
 .text.xTaskGenericNotifyFromISR
                0x00000000       0xdc build/default/production/_ext/404212886/FreeRTOS_tasks.o
 .text.vTaskNotifyGiveFromISR
                0x00000000       0x94 build/default/production/_ext/404212886/FreeRTOS_tasks.o
 .text.xTaskNotifyStateClear
                0x00000000       0x30 build/default/production/_ext/404212886/FreeRTOS_tasks.o
 .text.ulTaskNotifyValueClear
                0x00000000       0x2c build/default/production/_ext/404212886/FreeRTOS_tasks.o
 .text          0x00000000        0x0 build/default/production/_ext/1171490990/interrupts.o
 .data          0x00000000        0x0 build/default/production/_ext/1171490990/interrupts.o
 .bss           0x00000000        0x0 build/default/production/_ext/1171490990/interrupts.o
 .text          0x00000000        0x0 build/default/production/_ext/1655452824/usr_mlme_get_conf.o
 .data          0x00000000        0x0 build/default/production/_ext/1655452824/usr_mlme_get_conf.o
 .bss           0x00000000        0x0 build/default/production/_ext/1655452824/usr_mlme_get_conf.o
 .text.USR_MLME_GetConf
                0x00000000        0x2 build/default/production/_ext/1655452824/usr_mlme_get_conf.o
 .debug_info    0x00000000      0x36e build/default/production/_ext/1655452824/usr_mlme_get_conf.o
 .debug_abbrev  0x00000000       0x76 build/default/production/_ext/1655452824/usr_mlme_get_conf.o
 .debug_loc     0x00000000       0x4a build/default/production/_ext/1655452824/usr_mlme_get_conf.o
 .debug_aranges
                0x00000000       0x20 build/default/production/_ext/1655452824/usr_mlme_get_conf.o
 .debug_ranges  0x00000000       0x10 build/default/production/_ext/1655452824/usr_mlme_get_conf.o
 .debug_line    0x00000000       0xd0 build/default/production/_ext/1655452824/usr_mlme_get_conf.o
 .debug_str     0x00000000        0x0 build/default/production/_ext/1655452824/usr_mlme_get_conf.o
 .comment       0x00000000       0x2c build/default/production/_ext/1655452824/usr_mlme_get_conf.o
 .debug_frame   0x00000000       0x20 build/default/production/_ext/1655452824/usr_mlme_get_conf.o
 .ARM.attributes
                0x00000000       0x2c build/default/production/_ext/1655452824/usr_mlme_get_conf.o
 .text          0x00000000        0x0 build/default/production/_ext/1655452824/usr_mlme_set_conf.o
 .data          0x00000000        0x0 build/default/production/_ext/1655452824/usr_mlme_set_conf.o
 .bss           0x00000000        0x0 build/default/production/_ext/1655452824/usr_mlme_set_conf.o
 .text.USR_MLME_SetConf
                0x00000000        0x2 build/default/production/_ext/1655452824/usr_mlme_set_conf.o
 .debug_info    0x00000000      0x350 build/default/production/_ext/1655452824/usr_mlme_set_conf.o
 .debug_abbrev  0x00000000       0x5e build/default/production/_ext/1655452824/usr_mlme_set_conf.o
 .debug_loc     0x00000000       0x4a build/default/production/_ext/1655452824/usr_mlme_set_conf.o
 .debug_aranges
                0x00000000       0x20 build/default/production/_ext/1655452824/usr_mlme_set_conf.o
 .debug_ranges  0x00000000       0x10 build/default/production/_ext/1655452824/usr_mlme_set_conf.o
 .debug_line    0x00000000       0xcf build/default/production/_ext/1655452824/usr_mlme_set_conf.o
 .debug_str     0x00000000        0x0 build/default/production/_ext/1655452824/usr_mlme_set_conf.o
 .comment       0x00000000       0x2c build/default/production/_ext/1655452824/usr_mlme_set_conf.o
 .debug_frame   0x00000000       0x20 build/default/production/_ext/1655452824/usr_mlme_set_conf.o
 .ARM.attributes
                0x00000000       0x2c build/default/production/_ext/1655452824/usr_mlme_set_conf.o
 .text          0x00000000        0x0 build/default/production/_ext/1655452824/mac_dispatcher.o
 .data          0x00000000        0x0 build/default/production/_ext/1655452824/mac_dispatcher.o
 .bss           0x00000000        0x0 build/default/production/_ext/1655452824/mac_dispatcher.o
 .text          0x00000000        0x0 build/default/production/_ext/829342655/plib_tc3.o
 .data          0x00000000        0x0 build/default/production/_ext/829342655/plib_tc3.o
 .bss           0x00000000        0x0 build/default/production/_ext/829342655/plib_tc3.o
 .text.TC3_TimerCommandSet
                0x00000000       0x18 build/default/production/_ext/829342655/plib_tc3.o
 .text.TC3_Timer16bitCounterSet
                0x00000000       0x14 build/default/production/_ext/829342655/plib_tc3.o
 .text.TC3_Timer16bitPeriodGet
                0x00000000       0x20 build/default/production/_ext/829342655/plib_tc3.o
 .text          0x00000000        0x0 build/default/production/_ext/1655452824/mac_security.o
 .data          0x00000000        0x0 build/default/production/_ext/1655452824/mac_security.o
 .bss           0x00000000        0x0 build/default/production/_ext/1655452824/mac_security.o
 .debug_line    0x00000000        0x0 build/default/production/_ext/1655452824/mac_security.o
 .debug_str     0x00000000        0x0 build/default/production/_ext/1655452824/mac_security.o
 .comment       0x00000000       0x2c build/default/production/_ext/1655452824/mac_security.o
 .ARM.attributes
                0x00000000       0x32 build/default/production/_ext/1655452824/mac_security.o
 .text          0x00000000        0x0 build/default/production/_ext/1655452824/mac_data_extract_mhr.o
 .data          0x00000000        0x0 build/default/production/_ext/1655452824/mac_data_extract_mhr.o
 .bss           0x00000000        0x0 build/default/production/_ext/1655452824/mac_data_extract_mhr.o
 .text          0x00000000        0x0 build/default/production/_ext/1881668453/sys_int.o
 .data          0x00000000        0x0 build/default/production/_ext/1881668453/sys_int.o
 .bss           0x00000000        0x0 build/default/production/_ext/1881668453/sys_int.o
 .text.SYS_INT_Enable
                0x00000000        0x8 build/default/production/_ext/1881668453/sys_int.o
 .text          0x00000000        0x0 build/default/production/_ext/559172130/phy_rx_enable.o
 .data          0x00000000        0x0 build/default/production/_ext/559172130/phy_rx_enable.o
 .bss           0x00000000        0x0 build/default/production/_ext/559172130/phy_rx_enable.o
 .text          0x00000000        0x0 build/default/production/_ext/1655452824/usr_mlme_beacon_notify_ind.o
 .data          0x00000000        0x0 build/default/production/_ext/1655452824/usr_mlme_beacon_notify_ind.o
 .bss           0x00000000        0x0 build/default/production/_ext/1655452824/usr_mlme_beacon_notify_ind.o
 .text.USR_MLME_BeaconNotifyInd
                0x00000000        0x2 build/default/production/_ext/1655452824/usr_mlme_beacon_notify_ind.o
 .debug_info    0x00000000      0x58a build/default/production/_ext/1655452824/usr_mlme_beacon_notify_ind.o
 .debug_abbrev  0x00000000       0xc9 build/default/production/_ext/1655452824/usr_mlme_beacon_notify_ind.o
 .debug_loc     0x00000000       0x4a build/default/production/_ext/1655452824/usr_mlme_beacon_notify_ind.o
 .debug_aranges
                0x00000000       0x20 build/default/production/_ext/1655452824/usr_mlme_beacon_notify_ind.o
 .debug_ranges  0x00000000       0x10 build/default/production/_ext/1655452824/usr_mlme_beacon_notify_ind.o
 .debug_line    0x00000000      0x11e build/default/production/_ext/1655452824/usr_mlme_beacon_notify_ind.o
 .debug_str     0x00000000        0x0 build/default/production/_ext/1655452824/usr_mlme_beacon_notify_ind.o
 .comment       0x00000000       0x2c build/default/production/_ext/1655452824/usr_mlme_beacon_notify_ind.o
 .debug_frame   0x00000000       0x20 build/default/production/_ext/1655452824/usr_mlme_beacon_notify_ind.o
 .ARM.attributes
                0x00000000       0x2c build/default/production/_ext/1655452824/usr_mlme_beacon_notify_ind.o
 .text          0x00000000        0x0 build/default/production/_ext/1655452824/usr_mlme_sync_loss_ind.o
 .data          0x00000000        0x0 build/default/production/_ext/1655452824/usr_mlme_sync_loss_ind.o
 .bss           0x00000000        0x0 build/default/production/_ext/1655452824/usr_mlme_sync_loss_ind.o
 .text          0x00000000        0x0 build/default/production/_ext/163028504/xc32_monitor.o
 .data          0x00000000        0x0 build/default/production/_ext/163028504/xc32_monitor.o
 .bss           0x00000000        0x0 build/default/production/_ext/163028504/xc32_monitor.o
 .text.read     0x00000000        0x6 build/default/production/_ext/163028504/xc32_monitor.o
 .text.write    0x00000000        0x6 build/default/production/_ext/163028504/xc32_monitor.o
 .debug_info    0x00000000      0x30e build/default/production/_ext/163028504/xc32_monitor.o
 .debug_abbrev  0x00000000       0x96 build/default/production/_ext/163028504/xc32_monitor.o
 .debug_loc     0x00000000       0x4a build/default/production/_ext/163028504/xc32_monitor.o
 .debug_aranges
                0x00000000       0x28 build/default/production/_ext/163028504/xc32_monitor.o
 .debug_ranges  0x00000000       0x18 build/default/production/_ext/163028504/xc32_monitor.o
 .debug_line    0x00000000       0xce build/default/production/_ext/163028504/xc32_monitor.o
 .debug_str     0x00000000        0x0 build/default/production/_ext/163028504/xc32_monitor.o
 .comment       0x00000000       0x2c build/default/production/_ext/163028504/xc32_monitor.o
 .debug_frame   0x00000000       0x30 build/default/production/_ext/163028504/xc32_monitor.o
 .ARM.attributes
                0x00000000       0x2c build/default/production/_ext/163028504/xc32_monitor.o
 .text          0x00000000        0x0 build/default/production/_ext/1529399856/osal_freertos_extend.o
 .data          0x00000000        0x0 build/default/production/_ext/1529399856/osal_freertos_extend.o
 .bss           0x00000000        0x0 build/default/production/_ext/1529399856/osal_freertos_extend.o
 .text          0x00000000        0x0 build/default/production/_ext/101884895/sys_time.o
 .data          0x00000000        0x0 build/default/production/_ext/101884895/sys_time.o
 .bss           0x00000000        0x0 build/default/production/_ext/101884895/sys_time.o
 .text.SYS_TIME_Deinitialize
                0x00000000       0x30 build/default/production/_ext/101884895/sys_time.o
 .text.SYS_TIME_Status
                0x00000000       0x18 build/default/production/_ext/101884895/sys_time.o
 .text.SYS_TIME_FrequencyGet
                0x00000000        0xc build/default/production/_ext/101884895/sys_time.o
 .text.SYS_TIME_CounterSet
                0x00000000       0x1c build/default/production/_ext/101884895/sys_time.o
 .text.SYS_TIME_CountToMS
                0x00000000       0x20 build/default/production/_ext/101884895/sys_time.o
 .text.SYS_TIME_MSToCount
                0x00000000       0x20 build/default/production/_ext/101884895/sys_time.o
 .text.SYS_TIME_TimerReload
                0x00000000       0x9c build/default/production/_ext/101884895/sys_time.o
 .text.SYS_TIME_TimerStop
                0x00000000       0x40 build/default/production/_ext/101884895/sys_time.o
 .text.SYS_TIME_TimerCounterGet
                0x00000000       0x88 build/default/production/_ext/101884895/sys_time.o
 .text.SYS_TIME_DelayMS
                0x00000000       0x54 build/default/production/_ext/101884895/sys_time.o
 .text.SYS_TIME_CallbackRegisterUS
                0x00000000       0x5c build/default/production/_ext/101884895/sys_time.o
 .text.SYS_TIME_CallbackRegisterMS
                0x00000000       0x58 build/default/production/_ext/101884895/sys_time.o
 .text          0x00000000        0x0 build/default/production/_ext/1655452824/usr_mlme_comm_status_ind.o
 .data          0x00000000        0x0 build/default/production/_ext/1655452824/usr_mlme_comm_status_ind.o
 .bss           0x00000000        0x0 build/default/production/_ext/1655452824/usr_mlme_comm_status_ind.o
 .text.USR_MLME_CommStatusInd
                0x00000000        0x2 build/default/production/_ext/1655452824/usr_mlme_comm_status_ind.o
 .debug_info    0x00000000      0x44e build/default/production/_ext/1655452824/usr_mlme_comm_status_ind.o
 .debug_abbrev  0x00000000       0xc9 build/default/production/_ext/1655452824/usr_mlme_comm_status_ind.o
 .debug_loc     0x00000000       0x25 build/default/production/_ext/1655452824/usr_mlme_comm_status_ind.o
 .debug_aranges
                0x00000000       0x20 build/default/production/_ext/1655452824/usr_mlme_comm_status_ind.o
 .debug_ranges  0x00000000       0x10 build/default/production/_ext/1655452824/usr_mlme_comm_status_ind.o
 .debug_line    0x00000000      0x119 build/default/production/_ext/1655452824/usr_mlme_comm_status_ind.o
 .debug_str     0x00000000        0x0 build/default/production/_ext/1655452824/usr_mlme_comm_status_ind.o
 .comment       0x00000000       0x2c build/default/production/_ext/1655452824/usr_mlme_comm_status_ind.o
 .debug_frame   0x00000000       0x20 build/default/production/_ext/1655452824/usr_mlme_comm_status_ind.o
 .ARM.attributes
                0x00000000       0x2c build/default/production/_ext/1655452824/usr_mlme_comm_status_ind.o
 .text          0x00000000        0x0 build/default/production/_ext/1171490990/libc_syscalls.o
 .data          0x00000000        0x0 build/default/production/_ext/1171490990/libc_syscalls.o
 .bss           0x00000000        0x0 build/default/production/_ext/1171490990/libc_syscalls.o
 .text._exit    0x00000000        0x2 build/default/production/_ext/1171490990/libc_syscalls.o
 .debug_info    0x00000000      0x2f5 build/default/production/_ext/1171490990/libc_syscalls.o
 .debug_abbrev  0x00000000       0x52 build/default/production/_ext/1171490990/libc_syscalls.o
 .debug_loc     0x00000000       0x15 build/default/production/_ext/1171490990/libc_syscalls.o
 .debug_aranges
                0x00000000       0x20 build/default/production/_ext/1171490990/libc_syscalls.o
 .debug_ranges  0x00000000       0x10 build/default/production/_ext/1171490990/libc_syscalls.o
 .debug_line    0x00000000       0x5b build/default/production/_ext/1171490990/libc_syscalls.o
 .debug_str     0x00000000        0x0 build/default/production/_ext/1171490990/libc_syscalls.o
 .comment       0x00000000       0x2c build/default/production/_ext/1171490990/libc_syscalls.o
 .debug_frame   0x00000000       0x20 build/default/production/_ext/1171490990/libc_syscalls.o
 .ARM.attributes
                0x00000000       0x2c build/default/production/_ext/1171490990/libc_syscalls.o
 .text          0x00000000        0x0 build/default/production/_ext/957911548/phy_tx_frame_done_cb.o
 .data          0x00000000        0x0 build/default/production/_ext/957911548/phy_tx_frame_done_cb.o
 .bss           0x00000000        0x0 build/default/production/_ext/957911548/phy_tx_frame_done_cb.o
 .text.PHY_TxDoneCallback
                0x00000000        0x2 build/default/production/_ext/957911548/phy_tx_frame_done_cb.o
 .debug_info    0x00000000      0x548 build/default/production/_ext/957911548/phy_tx_frame_done_cb.o
 .debug_abbrev  0x00000000       0xc9 build/default/production/_ext/957911548/phy_tx_frame_done_cb.o
 .debug_loc     0x00000000       0x25 build/default/production/_ext/957911548/phy_tx_frame_done_cb.o
 .debug_aranges
                0x00000000       0x20 build/default/production/_ext/957911548/phy_tx_frame_done_cb.o
 .debug_ranges  0x00000000       0x10 build/default/production/_ext/957911548/phy_tx_frame_done_cb.o
 .debug_line    0x00000000      0x185 build/default/production/_ext/957911548/phy_tx_frame_done_cb.o
 .debug_str     0x00000000        0x0 build/default/production/_ext/957911548/phy_tx_frame_done_cb.o
 .comment       0x00000000       0x2c build/default/production/_ext/957911548/phy_tx_frame_done_cb.o
 .debug_frame   0x00000000       0x20 build/default/production/_ext/957911548/phy_tx_frame_done_cb.o
 .ARM.attributes
                0x00000000       0x2c build/default/production/_ext/957911548/phy_tx_frame_done_cb.o
 .text          0x00000000        0x0 build/default/production/_ext/1865521619/plib_port.o
 .data          0x00000000        0x0 build/default/production/_ext/1865521619/plib_port.o
 .bss           0x00000000        0x0 build/default/production/_ext/1865521619/plib_port.o
 .text.PORT_GroupRead
                0x00000000        0x4 build/default/production/_ext/1865521619/plib_port.o
 .text.PORT_GroupWrite
                0x00000000        0xc build/default/production/_ext/1865521619/plib_port.o
 .text.PORT_GroupLatchRead
                0x00000000        0x4 build/default/production/_ext/1865521619/plib_port.o
 .text.PORT_GroupSet
                0x00000000        0x4 build/default/production/_ext/1865521619/plib_port.o
 .text.PORT_GroupClear
                0x00000000        0x4 build/default/production/_ext/1865521619/plib_port.o
 .text.PORT_GroupToggle
                0x00000000        0x4 build/default/production/_ext/1865521619/plib_port.o
 .text.PORT_GroupInputEnable
                0x00000000        0x4 build/default/production/_ext/1865521619/plib_port.o
 .text.PORT_GroupOutputEnable
                0x00000000        0x4 build/default/production/_ext/1865521619/plib_port.o
 .text.PORT_PinPeripheralFunctionConfig
                0x00000000       0x48 build/default/production/_ext/1865521619/plib_port.o
 .text.PORT_PinGPIOConfig
                0x00000000       0x20 build/default/production/_ext/1865521619/plib_port.o
 .text          0x00000000        0x0 build/default/production/_ext/559172130/phy_pwr_mgmt.o
 .data          0x00000000        0x0 build/default/production/_ext/559172130/phy_pwr_mgmt.o
 .bss           0x00000000        0x0 build/default/production/_ext/559172130/phy_pwr_mgmt.o
 .text          0x00000000        0x0 build/default/production/_ext/1655452824/mac_tx_coord_realignment_command.o
 .data          0x00000000        0x0 build/default/production/_ext/1655452824/mac_tx_coord_realignment_command.o
 .bss           0x00000000        0x0 build/default/production/_ext/1655452824/mac_tx_coord_realignment_command.o
 .text          0x00000000        0x0 build/default/production/_ext/559172130/phy_tx.o
 .data          0x00000000        0x0 build/default/production/_ext/559172130/phy_tx.o
 .bss           0x00000000        0x0 build/default/production/_ext/559172130/phy_tx.o
 .text.retransmissionTimerCallback
                0x00000000       0x24 build/default/production/_ext/559172130/phy_tx.o
 .text.tal_start_retransmission_timer
                0x00000000       0x54 build/default/production/_ext/559172130/phy_tx.o
 .text          0x00000000        0x0 build/default/production/_ext/17022449/plib_sercom4_spi_master.o
 .data          0x00000000        0x0 build/default/production/_ext/17022449/plib_sercom4_spi_master.o
 .bss           0x00000000        0x0 build/default/production/_ext/17022449/plib_sercom4_spi_master.o
 .text.SERCOM4_SPI_TransferSetup
                0x00000000       0x90 build/default/production/_ext/17022449/plib_sercom4_spi_master.o
 .text.SERCOM4_SPI_CallbackRegister
                0x00000000        0xc build/default/production/_ext/17022449/plib_sercom4_spi_master.o
 .text.SERCOM4_SPI_IsTransmitterBusy
                0x00000000       0x14 build/default/production/_ext/17022449/plib_sercom4_spi_master.o
 .text          0x00000000        0x0 build/default/production/_ext/1655452824/mac_associate.o
 .data          0x00000000        0x0 build/default/production/_ext/1655452824/mac_associate.o
 .bss           0x00000000        0x0 build/default/production/_ext/1655452824/mac_associate.o
 .text          0x00000000        0x0 build/default/production/_ext/1655452824/mac_pib.o
 .data          0x00000000        0x0 build/default/production/_ext/1655452824/mac_pib.o
 .bss           0x00000000        0x0 build/default/production/_ext/1655452824/mac_pib.o
 .text          0x00000000        0x0 build/default/production/_ext/1171490990/startup_xc32.o
 .data          0x00000000        0x0 build/default/production/_ext/1171490990/startup_xc32.o
 .bss           0x00000000        0x0 build/default/production/_ext/1171490990/startup_xc32.o
 .text          0x00000000        0x0 build/default/production/_ext/1655452824/usr_mlme_rx_enable_conf.o
 .data          0x00000000        0x0 build/default/production/_ext/1655452824/usr_mlme_rx_enable_conf.o
 .bss           0x00000000        0x0 build/default/production/_ext/1655452824/usr_mlme_rx_enable_conf.o
 .text.USR_MLME_RxEnableConf
                0x00000000        0x2 build/default/production/_ext/1655452824/usr_mlme_rx_enable_conf.o
 .debug_info    0x00000000      0x33e build/default/production/_ext/1655452824/usr_mlme_rx_enable_conf.o
 .debug_abbrev  0x00000000       0x5e build/default/production/_ext/1655452824/usr_mlme_rx_enable_conf.o
 .debug_loc     0x00000000       0x25 build/default/production/_ext/1655452824/usr_mlme_rx_enable_conf.o
 .debug_aranges
                0x00000000       0x20 build/default/production/_ext/1655452824/usr_mlme_rx_enable_conf.o
 .debug_ranges  0x00000000       0x10 build/default/production/_ext/1655452824/usr_mlme_rx_enable_conf.o
 .debug_line    0x00000000       0xd4 build/default/production/_ext/1655452824/usr_mlme_rx_enable_conf.o
 .debug_str     0x00000000        0x0 build/default/production/_ext/1655452824/usr_mlme_rx_enable_conf.o
 .comment       0x00000000       0x2c build/default/production/_ext/1655452824/usr_mlme_rx_enable_conf.o
 .debug_frame   0x00000000       0x20 build/default/production/_ext/1655452824/usr_mlme_rx_enable_conf.o
 .ARM.attributes
                0x00000000       0x2c build/default/production/_ext/1655452824/usr_mlme_rx_enable_conf.o
 .text          0x00000000        0x0 build/default/production/_ext/1655452824/mac_beacon.o
 .data          0x00000000        0x0 build/default/production/_ext/1655452824/mac_beacon.o
 .bss           0x00000000        0x0 build/default/production/_ext/1655452824/mac_beacon.o
 .text          0x00000000        0x0 build/default/production/_ext/1832805299/sys_console.o
 .data          0x00000000        0x0 build/default/production/_ext/1832805299/sys_console.o
 .bss           0x00000000        0x0 build/default/production/_ext/1832805299/sys_console.o
 .text.SYS_CONSOLE_Status
                0x00000000       0x60 build/default/production/_ext/1832805299/sys_console.o
 .text.SYS_CONSOLE_HandleGet
                0x00000000        0x8 build/default/production/_ext/1832805299/sys_console.o
 .text.SYS_CONSOLE_DeviceGet
                0x00000000       0x1c build/default/production/_ext/1832805299/sys_console.o
 .text.SYS_CONSOLE_Tasks
                0x00000000       0x28 build/default/production/_ext/1832805299/sys_console.o
 .text.SYS_CONSOLE_Read
                0x00000000       0x38 build/default/production/_ext/1832805299/sys_console.o
 .text.SYS_CONSOLE_ReadFreeBufferCountGet
                0x00000000       0x38 build/default/production/_ext/1832805299/sys_console.o
 .text.SYS_CONSOLE_ReadCountGet
                0x00000000       0x38 build/default/production/_ext/1832805299/sys_console.o
 .text.SYS_CONSOLE_Write
                0x00000000       0x38 build/default/production/_ext/1832805299/sys_console.o
 .text.SYS_CONSOLE_WriteFreeBufferCountGet
                0x00000000       0x38 build/default/production/_ext/1832805299/sys_console.o
 .text.SYS_CONSOLE_WriteCountGet
                0x00000000       0x38 build/default/production/_ext/1832805299/sys_console.o
 .text.SYS_CONSOLE_Flush
                0x00000000       0x34 build/default/production/_ext/1832805299/sys_console.o
 .text          0x00000000        0x0 build/default/production/_ext/1360937237/app.o
 .data          0x00000000        0x0 build/default/production/_ext/1360937237/app.o
 .bss           0x00000000        0x0 build/default/production/_ext/1360937237/app.o
 .text          0x00000000        0x0 build/default/production/_ext/559172130/tfa.o
 .data          0x00000000        0x0 build/default/production/_ext/559172130/tfa.o
 .bss           0x00000000        0x0 build/default/production/_ext/559172130/tfa.o
 .text.PHY_CCAPerform
                0x00000000       0x6a build/default/production/_ext/559172130/tfa.o
 .text.PHY_EdSample
                0x00000000       0x68 build/default/production/_ext/559172130/tfa.o
 .text.PHY_StartContinuousTransmit
                0x00000000       0xa8 build/default/production/_ext/559172130/tfa.o
 .text.PHY_StopContinuousTransmit
                0x00000000        0xa build/default/production/_ext/559172130/tfa.o
 .text.tfa_pib_set
                0x00000000       0x50 build/default/production/_ext/559172130/tfa.o
 .text.tfa_init
                0x00000000       0x18 build/default/production/_ext/559172130/tfa.o
 .text.tfa_reset
                0x00000000       0x1c build/default/production/_ext/559172130/tfa.o
 .text.tfa_pib_get
                0x00000000       0x14 build/default/production/_ext/559172130/tfa.o
 .bss.tfa_pib_rx_sens
                0x00000000        0x1 build/default/production/_ext/559172130/tfa.o
 .bss.txcwdata  0x00000000       0x80 build/default/production/_ext/559172130/tfa.o
 .debug_info    0x00000000     0x1484 build/default/production/_ext/559172130/tfa.o
 .debug_abbrev  0x00000000      0x33e build/default/production/_ext/559172130/tfa.o
 .debug_loc     0x00000000      0x375 build/default/production/_ext/559172130/tfa.o
 .debug_aranges
                0x00000000       0x58 build/default/production/_ext/559172130/tfa.o
 .debug_ranges  0x00000000       0x78 build/default/production/_ext/559172130/tfa.o
 .debug_line    0x00000000      0x47e build/default/production/_ext/559172130/tfa.o
 .debug_str     0x00000000       0x94 build/default/production/_ext/559172130/tfa.o
 .comment       0x00000000       0x2c build/default/production/_ext/559172130/tfa.o
 .debug_frame   0x00000000       0xd0 build/default/production/_ext/559172130/tfa.o
 .ARM.attributes
                0x00000000       0x2c build/default/production/_ext/559172130/tfa.o
 .text          0x00000000        0x0 build/default/production/_ext/1655452824/mac_rx_enable.o
 .data          0x00000000        0x0 build/default/production/_ext/1655452824/mac_rx_enable.o
 .bss           0x00000000        0x0 build/default/production/_ext/1655452824/mac_rx_enable.o
 .text          0x00000000        0x0 build/default/production/_ext/1655452824/mac.o
 .data          0x00000000        0x0 build/default/production/_ext/1655452824/mac.o
 .bss           0x00000000        0x0 build/default/production/_ext/1655452824/mac.o
 .text.MAC_ReadyToSleep
                0x00000000       0x40 build/default/production/_ext/1655452824/mac.o
 .text          0x00000000        0x0 build/default/production/_ext/1360937237/main.o
 .data          0x00000000        0x0 build/default/production/_ext/1360937237/main.o
 .bss           0x00000000        0x0 build/default/production/_ext/1360937237/main.o
 .text          0x00000000        0x0 build/default/production/_ext/1984496892/plib_clock.o
 .data          0x00000000        0x0 build/default/production/_ext/1984496892/plib_clock.o
 .bss           0x00000000        0x0 build/default/production/_ext/1984496892/plib_clock.o
 .text          0x00000000        0x0 build/default/production/_ext/957911548/phy_task.o
 .data          0x00000000        0x0 build/default/production/_ext/957911548/phy_task.o
 .bss           0x00000000        0x0 build/default/production/_ext/957911548/phy_task.o
 .text.PHY_Tasks
                0x00000000       0x20 build/default/production/_ext/957911548/phy_task.o
 .text          0x00000000        0x0 build/default/production/_ext/1529399856/osal_freertos.o
 .data          0x00000000        0x0 build/default/production/_ext/1529399856/osal_freertos.o
 .bss           0x00000000        0x0 build/default/production/_ext/1529399856/osal_freertos.o
 .text.OSAL_SEM_Delete
                0x00000000       0x12 build/default/production/_ext/1529399856/osal_freertos.o
 .text.OSAL_MUTEX_Delete
                0x00000000       0x1a build/default/production/_ext/1529399856/osal_freertos.o
 .text.OSAL_Initialize
                0x00000000        0x4 build/default/production/_ext/1529399856/osal_freertos.o
 .text          0x00000000        0x0 build/default/production/_ext/559172130/phy_pib.o
 .data          0x00000000        0x0 build/default/production/_ext/559172130/phy_pib.o
 .bss           0x00000000        0x0 build/default/production/_ext/559172130/phy_pib.o
 .text          0x00000000        0x0 build/default/production/_ext/1655452824/mac_disassociate.o
 .data          0x00000000        0x0 build/default/production/_ext/1655452824/mac_disassociate.o
 .bss           0x00000000        0x0 build/default/production/_ext/1655452824/mac_disassociate.o
 .text          0x00000000        0x0 build/default/production/_ext/1655452824/mac_orphan.o
 .data          0x00000000        0x0 build/default/production/_ext/1655452824/mac_orphan.o
 .bss           0x00000000        0x0 build/default/production/_ext/1655452824/mac_orphan.o
 .text          0x00000000        0x0 build/default/production/_ext/1832805299/sys_console_uart.o
 .data          0x00000000        0x0 build/default/production/_ext/1832805299/sys_console_uart.o
 .bss           0x00000000        0x0 build/default/production/_ext/1832805299/sys_console_uart.o
 .text          0x00000000        0x0 build/default/production/_ext/1593096446/plib_nvmctrl.o
 .data          0x00000000        0x0 build/default/production/_ext/1593096446/plib_nvmctrl.o
 .bss           0x00000000        0x0 build/default/production/_ext/1593096446/plib_nvmctrl.o
 .text.NVMCTRL_CacheInvalidate
                0x00000000       0x10 build/default/production/_ext/1593096446/plib_nvmctrl.o
 .text.NVMCTRL_Read
                0x00000000       0x10 build/default/production/_ext/1593096446/plib_nvmctrl.o
 .text.NVMCTRL_PageBufferWrite
                0x00000000       0x14 build/default/production/_ext/1593096446/plib_nvmctrl.o
 .text.NVMCTRL_PageBufferCommit
                0x00000000       0x18 build/default/production/_ext/1593096446/plib_nvmctrl.o
 .text.NVMCTRL_PageWrite
                0x00000000       0x28 build/default/production/_ext/1593096446/plib_nvmctrl.o
 .text.NVMCTRL_RowErase
                0x00000000       0x18 build/default/production/_ext/1593096446/plib_nvmctrl.o
 .text.NVMCTRL_USER_ROW_PageWrite
                0x00000000       0x38 build/default/production/_ext/1593096446/plib_nvmctrl.o
 .text.NVMCTRL_USER_ROW_RowErase
                0x00000000       0x2c build/default/production/_ext/1593096446/plib_nvmctrl.o
 .text.NVMCTRL_ErrorGet
                0x00000000       0x18 build/default/production/_ext/1593096446/plib_nvmctrl.o
 .text.NVMCTRL_IsBusy
                0x00000000       0x14 build/default/production/_ext/1593096446/plib_nvmctrl.o
 .text.NVMCTRL_RegionLock
                0x00000000       0x14 build/default/production/_ext/1593096446/plib_nvmctrl.o
 .text.NVMCTRL_RegionUnlock
                0x00000000       0x14 build/default/production/_ext/1593096446/plib_nvmctrl.o
 .text.NVMCTRL_SecurityBitSet
                0x00000000       0x10 build/default/production/_ext/1593096446/plib_nvmctrl.o
 .text          0x00000000        0x0 build/default/production/_ext/1655452824/usr_mlme_start_conf.o
 .data          0x00000000        0x0 build/default/production/_ext/1655452824/usr_mlme_start_conf.o
 .bss           0x00000000        0x0 build/default/production/_ext/1655452824/usr_mlme_start_conf.o
 .text.USR_MLME_StartConf
                0x00000000        0x2 build/default/production/_ext/1655452824/usr_mlme_start_conf.o
 .debug_info    0x00000000      0x337 build/default/production/_ext/1655452824/usr_mlme_start_conf.o
 .debug_abbrev  0x00000000       0x5e build/default/production/_ext/1655452824/usr_mlme_start_conf.o
 .debug_loc     0x00000000       0x25 build/default/production/_ext/1655452824/usr_mlme_start_conf.o
 .debug_aranges
                0x00000000       0x20 build/default/production/_ext/1655452824/usr_mlme_start_conf.o
 .debug_ranges  0x00000000       0x10 build/default/production/_ext/1655452824/usr_mlme_start_conf.o
 .debug_line    0x00000000       0xd0 build/default/production/_ext/1655452824/usr_mlme_start_conf.o
 .debug_str     0x00000000        0x0 build/default/production/_ext/1655452824/usr_mlme_start_conf.o
 .comment       0x00000000       0x2c build/default/production/_ext/1655452824/usr_mlme_start_conf.o
 .debug_frame   0x00000000       0x20 build/default/production/_ext/1655452824/usr_mlme_start_conf.o
 .ARM.attributes
                0x00000000       0x2c build/default/production/_ext/1655452824/usr_mlme_start_conf.o
 .text          0x00000000        0x0 build/default/production/_ext/1655452824/usr_mlme_disassociate_ind.o
 .data          0x00000000        0x0 build/default/production/_ext/1655452824/usr_mlme_disassociate_ind.o
 .bss           0x00000000        0x0 build/default/production/_ext/1655452824/usr_mlme_disassociate_ind.o
 .text.USR_MLME_DisassociateInd
                0x00000000        0x2 build/default/production/_ext/1655452824/usr_mlme_disassociate_ind.o
 .debug_info    0x00000000      0x37e build/default/production/_ext/1655452824/usr_mlme_disassociate_ind.o
 .debug_abbrev  0x00000000       0x7e build/default/production/_ext/1655452824/usr_mlme_disassociate_ind.o
 .debug_loc     0x00000000       0x25 build/default/production/_ext/1655452824/usr_mlme_disassociate_ind.o
 .debug_aranges
                0x00000000       0x20 build/default/production/_ext/1655452824/usr_mlme_disassociate_ind.o
 .debug_ranges  0x00000000       0x10 build/default/production/_ext/1655452824/usr_mlme_disassociate_ind.o
 .debug_line    0x00000000       0xd7 build/default/production/_ext/1655452824/usr_mlme_disassociate_ind.o
 .debug_str     0x00000000        0x0 build/default/production/_ext/1655452824/usr_mlme_disassociate_ind.o
 .comment       0x00000000       0x2c build/default/production/_ext/1655452824/usr_mlme_disassociate_ind.o
 .debug_frame   0x00000000       0x20 build/default/production/_ext/1655452824/usr_mlme_disassociate_ind.o
 .ARM.attributes
                0x00000000       0x2c build/default/production/_ext/1655452824/usr_mlme_disassociate_ind.o
 .text          0x00000000        0x0 build/default/production/_ext/559172130/phy.o
 .data          0x00000000        0x0 build/default/production/_ext/559172130/phy.o
 .bss           0x00000000        0x0 build/default/production/_ext/559172130/phy.o
 .text.PHY_GetTrxStatus
                0x00000000       0x30 build/default/production/_ext/559172130/phy.o
 .rodata.PHY_GetTrxStatus
                0x00000000       0x68 build/default/production/_ext/559172130/phy.o
 .text.PHY_GetSWVersion
                0x00000000        0xc build/default/production/_ext/559172130/phy.o
 .text.tal_convert_symbols_to_us_def
                0x00000000        0x4 build/default/production/_ext/559172130/phy.o
 .text.tal_convert_us_to_symbols_def
                0x00000000        0x4 build/default/production/_ext/559172130/phy.o
 .text.trx_delay_millis
                0x00000000       0x1c build/default/production/_ext/559172130/phy.o
 .text          0x00000000        0x0 build/default/production/_ext/1655452824/mac_process_phy_tx_frame_status.o
 .data          0x00000000        0x0 build/default/production/_ext/1655452824/mac_process_phy_tx_frame_status.o
 .bss           0x00000000        0x0 build/default/production/_ext/1655452824/mac_process_phy_tx_frame_status.o
 .text          0x00000000        0x0 build/default/production/_ext/1171490990/initialization.o
 .data          0x00000000        0x0 build/default/production/_ext/1171490990/initialization.o
 .bss           0x00000000        0x0 build/default/production/_ext/1171490990/initialization.o
 .text          0x00000000        0x0 build/default/production/_ext/1171490990/tasks.o
 .data          0x00000000        0x0 build/default/production/_ext/1171490990/tasks.o
 .bss           0x00000000        0x0 build/default/production/_ext/1171490990/tasks.o
 .bss.xPHY_Tasks
                0x00000000        0x4 build/default/production/_ext/1171490990/tasks.o
 .text          0x00000000        0x0 build/default/production/_ext/1374435801/bmm.o
 .data          0x00000000        0x0 build/default/production/_ext/1374435801/bmm.o
 .bss           0x00000000        0x0 build/default/production/_ext/1374435801/bmm.o
 .text.bmm_PercentageOfFreeBuffers
                0x00000000        0xc build/default/production/_ext/1374435801/bmm.o
 .text          0x00000000        0x0 build/default/production/_ext/1986646378/plib_evsys.o
 .data          0x00000000        0x0 build/default/production/_ext/1986646378/plib_evsys.o
 .bss           0x00000000        0x0 build/default/production/_ext/1986646378/plib_evsys.o
 .text.EVSYS_Initialize
                0x00000000        0x2 build/default/production/_ext/1986646378/plib_evsys.o
 .debug_info    0x00000000      0x304 build/default/production/_ext/1986646378/plib_evsys.o
 .debug_abbrev  0x00000000       0x3b build/default/production/_ext/1986646378/plib_evsys.o
 .debug_aranges
                0x00000000       0x20 build/default/production/_ext/1986646378/plib_evsys.o
 .debug_ranges  0x00000000       0x10 build/default/production/_ext/1986646378/plib_evsys.o
 .debug_line    0x00000000       0x66 build/default/production/_ext/1986646378/plib_evsys.o
 .debug_str     0x00000000        0x0 build/default/production/_ext/1986646378/plib_evsys.o
 .comment       0x00000000       0x2c build/default/production/_ext/1986646378/plib_evsys.o
 .debug_frame   0x00000000       0x20 build/default/production/_ext/1986646378/plib_evsys.o
 .ARM.attributes
                0x00000000       0x2c build/default/production/_ext/1986646378/plib_evsys.o
 .text          0x00000000        0x0 build/default/production/_ext/1655452824/mac_callback_wrapper.o
 .data          0x00000000        0x0 build/default/production/_ext/1655452824/mac_callback_wrapper.o
 .bss           0x00000000        0x0 build/default/production/_ext/1655452824/mac_callback_wrapper.o
 .text          0x00000000        0x0 build/default/production/_ext/957911548/phy_rx_frame_cb.o
 .data          0x00000000        0x0 build/default/production/_ext/957911548/phy_rx_frame_cb.o
 .bss           0x00000000        0x0 build/default/production/_ext/957911548/phy_rx_frame_cb.o
 .text.PHY_RxFrameCallback
                0x00000000        0x2 build/default/production/_ext/957911548/phy_rx_frame_cb.o
 .debug_info    0x00000000      0x3eb build/default/production/_ext/957911548/phy_rx_frame_cb.o
 .debug_abbrev  0x00000000       0x88 build/default/production/_ext/957911548/phy_rx_frame_cb.o
 .debug_aranges
                0x00000000       0x20 build/default/production/_ext/957911548/phy_rx_frame_cb.o
 .debug_ranges  0x00000000       0x10 build/default/production/_ext/957911548/phy_rx_frame_cb.o
 .debug_line    0x00000000      0x17f build/default/production/_ext/957911548/phy_rx_frame_cb.o
 .debug_str     0x00000000        0x0 build/default/production/_ext/957911548/phy_rx_frame_cb.o
 .comment       0x00000000       0x2c build/default/production/_ext/957911548/phy_rx_frame_cb.o
 .debug_frame   0x00000000       0x20 build/default/production/_ext/957911548/phy_rx_frame_cb.o
 .ARM.attributes
                0x00000000       0x2c build/default/production/_ext/957911548/phy_rx_frame_cb.o
 .text          0x00000000        0x0 build/default/production/_ext/1655452824/mac_api.o
 .data          0x00000000        0x0 build/default/production/_ext/1655452824/mac_api.o
 .bss           0x00000000        0x0 build/default/production/_ext/1655452824/mac_api.o
 .text.WPAN_MCPS_PurgeReq
                0x00000000       0x3c build/default/production/_ext/1655452824/mac_api.o
 .text.WPAN_MLME_AssociateReq
                0x00000000       0x5c build/default/production/_ext/1655452824/mac_api.o
 .text.WPAN_MLME_DisassociateReq
                0x00000000       0x54 build/default/production/_ext/1655452824/mac_api.o
 .text.WPAN_MLME_OrphanResp
                0x00000000       0x50 build/default/production/_ext/1655452824/mac_api.o
 .text.WPAN_MLME_RxEnableReq
                0x00000000       0x44 build/default/production/_ext/1655452824/mac_api.o
 .text.WPAN_MLME_PollReq
                0x00000000       0x58 build/default/production/_ext/1655452824/mac_api.o
 .text          0x00000000        0x0 build/default/production/_ext/1655452824/mac_misc.o
 .data          0x00000000        0x0 build/default/production/_ext/1655452824/mac_misc.o
 .bss           0x00000000        0x0 build/default/production/_ext/1655452824/mac_misc.o
 .text          0x00000000        0x0 build/default/production/_ext/1655452824/usr_mlme_disassociate_conf.o
 .data          0x00000000        0x0 build/default/production/_ext/1655452824/usr_mlme_disassociate_conf.o
 .bss           0x00000000        0x0 build/default/production/_ext/1655452824/usr_mlme_disassociate_conf.o
 .text.USR_MLME_DisassociateConf
                0x00000000        0x2 build/default/production/_ext/1655452824/usr_mlme_disassociate_conf.o
 .debug_info    0x00000000      0x440 build/default/production/_ext/1655452824/usr_mlme_disassociate_conf.o
 .debug_abbrev  0x00000000       0xc9 build/default/production/_ext/1655452824/usr_mlme_disassociate_conf.o
 .debug_loc     0x00000000       0x25 build/default/production/_ext/1655452824/usr_mlme_disassociate_conf.o
 .debug_aranges
                0x00000000       0x20 build/default/production/_ext/1655452824/usr_mlme_disassociate_conf.o
 .debug_ranges  0x00000000       0x10 build/default/production/_ext/1655452824/usr_mlme_disassociate_conf.o
 .debug_line    0x00000000      0x11a build/default/production/_ext/1655452824/usr_mlme_disassociate_conf.o
 .debug_str     0x00000000        0x0 build/default/production/_ext/1655452824/usr_mlme_disassociate_conf.o
 .comment       0x00000000       0x2c build/default/production/_ext/1655452824/usr_mlme_disassociate_conf.o
 .debug_frame   0x00000000       0x20 build/default/production/_ext/1655452824/usr_mlme_disassociate_conf.o
 .ARM.attributes
                0x00000000       0x2c build/default/production/_ext/1655452824/usr_mlme_disassociate_conf.o
 .text          0x00000000        0x0 build/default/production/_ext/1655452824/usr_mcps_data_conf.o
 .data          0x00000000        0x0 build/default/production/_ext/1655452824/usr_mcps_data_conf.o
 .bss           0x00000000        0x0 build/default/production/_ext/1655452824/usr_mcps_data_conf.o
 .text.USR_MCPS_DataConf
                0x00000000        0x2 build/default/production/_ext/1655452824/usr_mcps_data_conf.o
 .debug_info    0x00000000      0x376 build/default/production/_ext/1655452824/usr_mcps_data_conf.o
 .debug_abbrev  0x00000000       0x7e build/default/production/_ext/1655452824/usr_mcps_data_conf.o
 .debug_loc     0x00000000       0x4a build/default/production/_ext/1655452824/usr_mcps_data_conf.o
 .debug_aranges
                0x00000000       0x20 build/default/production/_ext/1655452824/usr_mcps_data_conf.o
 .debug_ranges  0x00000000       0x10 build/default/production/_ext/1655452824/usr_mcps_data_conf.o
 .debug_line    0x00000000       0xd1 build/default/production/_ext/1655452824/usr_mcps_data_conf.o
 .debug_str     0x00000000        0x0 build/default/production/_ext/1655452824/usr_mcps_data_conf.o
 .comment       0x00000000       0x2c build/default/production/_ext/1655452824/usr_mcps_data_conf.o
 .debug_frame   0x00000000       0x20 build/default/production/_ext/1655452824/usr_mcps_data_conf.o
 .ARM.attributes
                0x00000000       0x2c build/default/production/_ext/1655452824/usr_mcps_data_conf.o
 .text          0x00000000        0x0 build/default/production/_ext/1655452824/usr_mlme_associate_ind.o
 .data          0x00000000        0x0 build/default/production/_ext/1655452824/usr_mlme_associate_ind.o
 .bss           0x00000000        0x0 build/default/production/_ext/1655452824/usr_mlme_associate_ind.o
 .text.USR_MLME_AssociateInd
                0x00000000        0x2 build/default/production/_ext/1655452824/usr_mlme_associate_ind.o
 .debug_info    0x00000000      0x37b build/default/production/_ext/1655452824/usr_mlme_associate_ind.o
 .debug_abbrev  0x00000000       0x7e build/default/production/_ext/1655452824/usr_mlme_associate_ind.o
 .debug_loc     0x00000000       0x25 build/default/production/_ext/1655452824/usr_mlme_associate_ind.o
 .debug_aranges
                0x00000000       0x20 build/default/production/_ext/1655452824/usr_mlme_associate_ind.o
 .debug_ranges  0x00000000       0x10 build/default/production/_ext/1655452824/usr_mlme_associate_ind.o
 .debug_line    0x00000000       0xd4 build/default/production/_ext/1655452824/usr_mlme_associate_ind.o
 .debug_str     0x00000000        0x0 build/default/production/_ext/1655452824/usr_mlme_associate_ind.o
 .comment       0x00000000       0x2c build/default/production/_ext/1655452824/usr_mlme_associate_ind.o
 .debug_frame   0x00000000       0x20 build/default/production/_ext/1655452824/usr_mlme_associate_ind.o
 .ARM.attributes
                0x00000000       0x2c build/default/production/_ext/1655452824/usr_mlme_associate_ind.o
 .text          0x00000000        0x0 build/default/production/_ext/559172130/phy_helper.o
 .data          0x00000000        0x0 build/default/production/_ext/559172130/phy_helper.o
 .bss           0x00000000        0x0 build/default/production/_ext/559172130/phy_helper.o
 .text.PHY_ConfigTxPwr
                0x00000000       0xc8 build/default/production/_ext/559172130/phy_helper.o
 .text.PHY_ConfigAntennaDiversity
                0x00000000      0x154 build/default/production/_ext/559172130/phy_helper.o
 .text.tal_set_frequency
                0x00000000       0xec build/default/production/_ext/559172130/phy_helper.o
 .text.tal_set_frequency_regs
                0x00000000       0x98 build/default/production/_ext/559172130/phy_helper.o
 .text.tal_calculate_frequency
                0x00000000       0x70 build/default/production/_ext/559172130/phy_helper.o
 .text.PHY_ConfigRxSensitivity
                0x00000000       0x38 build/default/production/_ext/559172130/phy_helper.o
 .text.PHY_ConfigRxPromiscuousMode
                0x00000000       0x34 build/default/production/_ext/559172130/phy_helper.o
 .text.PHY_GetTrxConfig
                0x00000000       0xd8 build/default/production/_ext/559172130/phy_helper.o
 .rodata.PHY_GetTrxConfig
                0x00000000       0x30 build/default/production/_ext/559172130/phy_helper.o
 .text.PHY_ConfigRxRPCMode
                0x00000000       0x34 build/default/production/_ext/559172130/phy_helper.o
 .text.PHY_ConvertTxPwrRegValToDbm
                0x00000000       0x18 build/default/production/_ext/559172130/phy_helper.o
 .text.PHY_GetRSSIBaseVal
                0x00000000        0x6 build/default/production/_ext/559172130/phy_helper.o
 .text.PHY_ConfigAutoAck
                0x00000000       0x30 build/default/production/_ext/559172130/phy_helper.o
 .text.PHY_ConfigReservedFrameFiltering
                0x00000000       0x50 build/default/production/_ext/559172130/phy_helper.o
 .text.tal_dump_registers
                0x00000000       0x42 build/default/production/_ext/559172130/phy_helper.o
 .text          0x00000000        0x0 build/default/production/_ext/504274921/plib_sercom0_usart.o
 .data          0x00000000        0x0 build/default/production/_ext/504274921/plib_sercom0_usart.o
 .bss           0x00000000        0x0 build/default/production/_ext/504274921/plib_sercom0_usart.o
 .text.SERCOM0_USART_FrequencyGet
                0x00000000        0x8 build/default/production/_ext/504274921/plib_sercom0_usart.o
 .text.SERCOM0_USART_SerialSetup
                0x00000000      0x140 build/default/production/_ext/504274921/plib_sercom0_usart.o
 .text.SERCOM0_USART_Enable
                0x00000000       0x20 build/default/production/_ext/504274921/plib_sercom0_usart.o
 .text.SERCOM0_USART_Disable
                0x00000000       0x20 build/default/production/_ext/504274921/plib_sercom0_usart.o
 .text.SERCOM0_USART_ErrorGet
                0x00000000       0x10 build/default/production/_ext/504274921/plib_sercom0_usart.o
 .text.SERCOM0_USART_ReadBufferSizeGet
                0x00000000        0xc build/default/production/_ext/504274921/plib_sercom0_usart.o
 .text.SERCOM0_USART_ReadNotificationEnable
                0x00000000       0x18 build/default/production/_ext/504274921/plib_sercom0_usart.o
 .text.SERCOM0_USART_ReadThresholdSet
                0x00000000       0x10 build/default/production/_ext/504274921/plib_sercom0_usart.o
 .text.SERCOM0_USART_ReadCallbackRegister
                0x00000000        0xc build/default/production/_ext/504274921/plib_sercom0_usart.o
 .text.SERCOM0_USART_TransmitComplete
                0x00000000       0x10 build/default/production/_ext/504274921/plib_sercom0_usart.o
 .text.SERCOM0_USART_WriteBufferSizeGet
                0x00000000        0xc build/default/production/_ext/504274921/plib_sercom0_usart.o
 .text.SERCOM0_USART_WriteNotificationEnable
                0x00000000       0x14 build/default/production/_ext/504274921/plib_sercom0_usart.o
 .text.SERCOM0_USART_WriteThresholdSet
                0x00000000       0x10 build/default/production/_ext/504274921/plib_sercom0_usart.o
 .text.SERCOM0_USART_WriteCallbackRegister
                0x00000000        0xc build/default/production/_ext/504274921/plib_sercom0_usart.o
 .text          0x00000000        0x0 build/default/production/_ext/559172130/phy_irq_handler.o
 .data          0x00000000        0x0 build/default/production/_ext/559172130/phy_irq_handler.o
 .bss           0x00000000        0x0 build/default/production/_ext/559172130/phy_irq_handler.o
 .text          0x00000000        0x0 build/default/production/_ext/1360937237/app_idle_task.o
 .data          0x00000000        0x0 build/default/production/_ext/1360937237/app_idle_task.o
 .bss           0x00000000        0x0 build/default/production/_ext/1360937237/app_idle_task.o
 .text.app_idle_task
                0x00000000        0x2 build/default/production/_ext/1360937237/app_idle_task.o
 .debug_info    0x00000000      0x2ed build/default/production/_ext/1360937237/app_idle_task.o
 .debug_abbrev  0x00000000       0x3b build/default/production/_ext/1360937237/app_idle_task.o
 .debug_aranges
                0x00000000       0x20 build/default/production/_ext/1360937237/app_idle_task.o
 .debug_ranges  0x00000000       0x10 build/default/production/_ext/1360937237/app_idle_task.o
 .debug_line    0x00000000       0x49 build/default/production/_ext/1360937237/app_idle_task.o
 .debug_str     0x00000000        0x0 build/default/production/_ext/1360937237/app_idle_task.o
 .comment       0x00000000       0x2c build/default/production/_ext/1360937237/app_idle_task.o
 .debug_frame   0x00000000       0x20 build/default/production/_ext/1360937237/app_idle_task.o
 .ARM.attributes
                0x00000000       0x2c build/default/production/_ext/1360937237/app_idle_task.o
 .text          0x00000000        0x0 build/default/production/_ext/1655452824/mac_mcps_data.o
 .data          0x00000000        0x0 build/default/production/_ext/1655452824/mac_mcps_data.o
 .bss           0x00000000        0x0 build/default/production/_ext/1655452824/mac_mcps_data.o
 .text          0x00000000        0x0 build/default/production/_ext/1655452824/usr_mlme_poll_conf.o
 .data          0x00000000        0x0 build/default/production/_ext/1655452824/usr_mlme_poll_conf.o
 .bss           0x00000000        0x0 build/default/production/_ext/1655452824/usr_mlme_poll_conf.o
 .text.USR_MLME_PollConf
                0x00000000        0x2 build/default/production/_ext/1655452824/usr_mlme_poll_conf.o
 .debug_info    0x00000000      0x335 build/default/production/_ext/1655452824/usr_mlme_poll_conf.o
 .debug_abbrev  0x00000000       0x5e build/default/production/_ext/1655452824/usr_mlme_poll_conf.o
 .debug_loc     0x00000000       0x25 build/default/production/_ext/1655452824/usr_mlme_poll_conf.o
 .debug_aranges
                0x00000000       0x20 build/default/production/_ext/1655452824/usr_mlme_poll_conf.o
 .debug_ranges  0x00000000       0x10 build/default/production/_ext/1655452824/usr_mlme_poll_conf.o
 .debug_line    0x00000000       0xcf build/default/production/_ext/1655452824/usr_mlme_poll_conf.o
 .debug_str     0x00000000        0x0 build/default/production/_ext/1655452824/usr_mlme_poll_conf.o
 .comment       0x00000000       0x2c build/default/production/_ext/1655452824/usr_mlme_poll_conf.o
 .debug_frame   0x00000000       0x20 build/default/production/_ext/1655452824/usr_mlme_poll_conf.o
 .ARM.attributes
                0x00000000       0x2c build/default/production/_ext/1655452824/usr_mlme_poll_conf.o
 .text          0x00000000        0x0 build/default/production/_ext/404212886/timers.o
 .data          0x00000000        0x0 build/default/production/_ext/404212886/timers.o
 .bss           0x00000000        0x0 build/default/production/_ext/404212886/timers.o
 .text.xTimerGetTimerDaemonTaskHandle
                0x00000000        0xc build/default/production/_ext/404212886/timers.o
 .text.xTimerGetPeriod
                0x00000000        0x4 build/default/production/_ext/404212886/timers.o
 .text.vTimerSetReloadMode
                0x00000000       0x2a build/default/production/_ext/404212886/timers.o
 .text.uxTimerGetReloadMode
                0x00000000       0x18 build/default/production/_ext/404212886/timers.o
 .text.xTimerGetExpiryTime
                0x00000000        0x4 build/default/production/_ext/404212886/timers.o
 .text.pcTimerGetName
                0x00000000        0x4 build/default/production/_ext/404212886/timers.o
 .text.pvTimerGetTimerID
                0x00000000       0x12 build/default/production/_ext/404212886/timers.o
 .text.vTimerSetTimerID
                0x00000000       0x12 build/default/production/_ext/404212886/timers.o
 .text          0x00000000        0x0 build/default/production/_ext/404212886/queue.o
 .data          0x00000000        0x0 build/default/production/_ext/404212886/queue.o
 .bss           0x00000000        0x0 build/default/production/_ext/404212886/queue.o
 .text.xQueuePeek
                0x00000000       0xea build/default/production/_ext/404212886/queue.o
 .text.xQueueReceiveFromISR
                0x00000000       0x6a build/default/production/_ext/404212886/queue.o
 .text.xQueuePeekFromISR
                0x00000000       0x2e build/default/production/_ext/404212886/queue.o
 .text.uxQueueSpacesAvailable
                0x00000000       0x16 build/default/production/_ext/404212886/queue.o
 .text.uxQueueMessagesWaitingFromISR
                0x00000000        0x4 build/default/production/_ext/404212886/queue.o
 .text.vQueueDelete
                0x00000000        0x8 build/default/production/_ext/404212886/queue.o
 .text.xQueueIsQueueEmptyFromISR
                0x00000000        0x8 build/default/production/_ext/404212886/queue.o
 .text.xQueueRemoveFromSet
                0x00000000       0x24 build/default/production/_ext/404212886/queue.o
 .text.xQueueSelectFromSetFromISR
                0x00000000       0x16 build/default/production/_ext/404212886/queue.o
 .text          0x00000000        0x0 build/default/production/_ext/1655452824/mac_data_ind.o
 .data          0x00000000        0x0 build/default/production/_ext/1655452824/mac_data_ind.o
 .bss           0x00000000        0x0 build/default/production/_ext/1655452824/mac_data_ind.o
 .text          0x00000000        0x0 build/default/production/_ext/404212886/event_groups.o
 .data          0x00000000        0x0 build/default/production/_ext/404212886/event_groups.o
 .bss           0x00000000        0x0 build/default/production/_ext/404212886/event_groups.o
 .text.xEventGroupCreate
                0x00000000       0x18 build/default/production/_ext/404212886/event_groups.o
 .text.xEventGroupWaitBits
                0x00000000       0xbc build/default/production/_ext/404212886/event_groups.o
 .text.xEventGroupClearBits
                0x00000000       0x1a build/default/production/_ext/404212886/event_groups.o
 .text.xEventGroupGetBitsFromISR
                0x00000000       0x12 build/default/production/_ext/404212886/event_groups.o
 .text.xEventGroupSetBits
                0x00000000       0x64 build/default/production/_ext/404212886/event_groups.o
 .text.xEventGroupSync
                0x00000000       0x86 build/default/production/_ext/404212886/event_groups.o
 .text.vEventGroupDelete
                0x00000000       0x2c build/default/production/_ext/404212886/event_groups.o
 .text.vEventGroupSetBitsCallback
                0x00000000        0x8 build/default/production/_ext/404212886/event_groups.o
 .text.vEventGroupClearBitsCallback
                0x00000000        0x8 build/default/production/_ext/404212886/event_groups.o
 .debug_info    0x00000000      0xec9 build/default/production/_ext/404212886/event_groups.o
 .debug_abbrev  0x00000000      0x24d build/default/production/_ext/404212886/event_groups.o
 .debug_loc     0x00000000      0xce1 build/default/production/_ext/404212886/event_groups.o
 .debug_aranges
                0x00000000       0x60 build/default/production/_ext/404212886/event_groups.o
 .debug_ranges  0x00000000       0x98 build/default/production/_ext/404212886/event_groups.o
 .debug_line    0x00000000      0x5d0 build/default/production/_ext/404212886/event_groups.o
 .debug_str     0x00000000      0x1ec build/default/production/_ext/404212886/event_groups.o
 .comment       0x00000000       0x2c build/default/production/_ext/404212886/event_groups.o
 .debug_frame   0x00000000      0x10c build/default/production/_ext/404212886/event_groups.o
 .ARM.attributes
                0x00000000       0x2c build/default/production/_ext/404212886/event_groups.o
 .text          0x00000000        0x0 build/default/production/_ext/1655452824/usr_mlme_reset_conf.o
 .data          0x00000000        0x0 build/default/production/_ext/1655452824/usr_mlme_reset_conf.o
 .bss           0x00000000        0x0 build/default/production/_ext/1655452824/usr_mlme_reset_conf.o
 .text.USR_MLME_ResetConf
                0x00000000        0x2 build/default/production/_ext/1655452824/usr_mlme_reset_conf.o
 .debug_info    0x00000000      0x337 build/default/production/_ext/1655452824/usr_mlme_reset_conf.o
 .debug_abbrev  0x00000000       0x5e build/default/production/_ext/1655452824/usr_mlme_reset_conf.o
 .debug_loc     0x00000000       0x25 build/default/production/_ext/1655452824/usr_mlme_reset_conf.o
 .debug_aranges
                0x00000000       0x20 build/default/production/_ext/1655452824/usr_mlme_reset_conf.o
 .debug_ranges  0x00000000       0x10 build/default/production/_ext/1655452824/usr_mlme_reset_conf.o
 .debug_line    0x00000000       0xd0 build/default/production/_ext/1655452824/usr_mlme_reset_conf.o
 .debug_str     0x00000000        0x0 build/default/production/_ext/1655452824/usr_mlme_reset_conf.o
 .comment       0x00000000       0x2c build/default/production/_ext/1655452824/usr_mlme_reset_conf.o
 .debug_frame   0x00000000       0x20 build/default/production/_ext/1655452824/usr_mlme_reset_conf.o
 .ARM.attributes
                0x00000000       0x2c build/default/production/_ext/1655452824/usr_mlme_reset_conf.o
 .text          0x00000000        0x0 build/default/production/_ext/1655452824/mac_scan.o
 .data          0x00000000        0x0 build/default/production/_ext/1655452824/mac_scan.o
 .bss           0x00000000        0x0 build/default/production/_ext/1655452824/mac_scan.o
 .text          0x00000000        0x0 build/default/production/_ext/559172130/phy_trx_reg_access.o
 .data          0x00000000        0x0 build/default/production/_ext/559172130/phy_trx_reg_access.o
 .bss           0x00000000        0x0 build/default/production/_ext/559172130/phy_trx_reg_access.o
 .text.trx_sram_write
                0x00000000       0x78 build/default/production/_ext/559172130/phy_trx_reg_access.o
 .text.trx_sram_read
                0x00000000       0x78 build/default/production/_ext/559172130/phy_trx_reg_access.o
 .text          0x00000000        0x0 build/default/production/_ext/1655452824/usr_mlme_associate_conf.o
 .data          0x00000000        0x0 build/default/production/_ext/1655452824/usr_mlme_associate_conf.o
 .bss           0x00000000        0x0 build/default/production/_ext/1655452824/usr_mlme_associate_conf.o
 .text.USR_MLME_AssociateConf
                0x00000000        0x2 build/default/production/_ext/1655452824/usr_mlme_associate_conf.o
 .debug_info    0x00000000      0x373 build/default/production/_ext/1655452824/usr_mlme_associate_conf.o
 .debug_abbrev  0x00000000       0x6d build/default/production/_ext/1655452824/usr_mlme_associate_conf.o
 .debug_loc     0x00000000       0x4a build/default/production/_ext/1655452824/usr_mlme_associate_conf.o
 .debug_aranges
                0x00000000       0x20 build/default/production/_ext/1655452824/usr_mlme_associate_conf.o
 .debug_ranges  0x00000000       0x10 build/default/production/_ext/1655452824/usr_mlme_associate_conf.o
 .debug_line    0x00000000       0xd5 build/default/production/_ext/1655452824/usr_mlme_associate_conf.o
 .debug_str     0x00000000        0x0 build/default/production/_ext/1655452824/usr_mlme_associate_conf.o
 .comment       0x00000000       0x2c build/default/production/_ext/1655452824/usr_mlme_associate_conf.o
 .debug_frame   0x00000000       0x20 build/default/production/_ext/1655452824/usr_mlme_associate_conf.o
 .ARM.attributes
                0x00000000       0x2c build/default/production/_ext/1655452824/usr_mlme_associate_conf.o
 .text          0x00000000        0x0 build/default/production/_ext/1624415188/port.o
 .data          0x00000000        0x0 build/default/production/_ext/1624415188/port.o
 .bss           0x00000000        0x0 build/default/production/_ext/1624415188/port.o
 .text.vPortEndScheduler
                0x00000000        0x2 build/default/production/_ext/1624415188/port.o
 .text          0x00000000        0x0 build/default/production/_ext/1655452824/mac_poll.o
 .data          0x00000000        0x0 build/default/production/_ext/1655452824/mac_poll.o
 .bss           0x00000000        0x0 build/default/production/_ext/1655452824/mac_poll.o
 .text          0x00000000        0x0 build/default/production/_ext/559172130/phy_ed.o
 .data          0x00000000        0x0 build/default/production/_ext/559172130/phy_ed.o
 .bss           0x00000000        0x0 build/default/production/_ext/559172130/phy_ed.o
 .text          0x00000000        0x0 build/default/production/_ext/404212886/croutine.o
 .data          0x00000000        0x0 build/default/production/_ext/404212886/croutine.o
 .bss           0x00000000        0x0 build/default/production/_ext/404212886/croutine.o
 .debug_info    0x00000000      0x2d4 build/default/production/_ext/404212886/croutine.o
 .debug_abbrev  0x00000000       0x1b build/default/production/_ext/404212886/croutine.o
 .debug_aranges
                0x00000000       0x18 build/default/production/_ext/404212886/croutine.o
 .debug_line    0x00000000       0x1d build/default/production/_ext/404212886/croutine.o
 .debug_str     0x00000000        0x0 build/default/production/_ext/404212886/croutine.o
 .comment       0x00000000       0x2c build/default/production/_ext/404212886/croutine.o
 .ARM.attributes
                0x00000000       0x32 build/default/production/_ext/404212886/croutine.o
 .text          0x00000000        0x0 build/default/production/_ext/1655452824/usr_mcps_data_ind.o
 .data          0x00000000        0x0 build/default/production/_ext/1655452824/usr_mcps_data_ind.o
 .bss           0x00000000        0x0 build/default/production/_ext/1655452824/usr_mcps_data_ind.o
 .text.USR_MCPS_DataInd
                0x00000000        0x2 build/default/production/_ext/1655452824/usr_mcps_data_ind.o
 .debug_info    0x00000000      0x4ab build/default/production/_ext/1655452824/usr_mcps_data_ind.o
 .debug_abbrev  0x00000000       0xc9 build/default/production/_ext/1655452824/usr_mcps_data_ind.o
 .debug_loc     0x00000000       0x25 build/default/production/_ext/1655452824/usr_mcps_data_ind.o
 .debug_aranges
                0x00000000       0x20 build/default/production/_ext/1655452824/usr_mcps_data_ind.o
 .debug_ranges  0x00000000       0x10 build/default/production/_ext/1655452824/usr_mcps_data_ind.o
 .debug_line    0x00000000      0x117 build/default/production/_ext/1655452824/usr_mcps_data_ind.o
 .debug_str     0x00000000        0x0 build/default/production/_ext/1655452824/usr_mcps_data_ind.o
 .comment       0x00000000       0x2c build/default/production/_ext/1655452824/usr_mcps_data_ind.o
 .debug_frame   0x00000000       0x20 build/default/production/_ext/1655452824/usr_mcps_data_ind.o
 .ARM.attributes
                0x00000000       0x2c build/default/production/_ext/1655452824/usr_mcps_data_ind.o
 .text          0x00000000        0x0 build/default/production/_ext/404212886/list.o
 .data          0x00000000        0x0 build/default/production/_ext/404212886/list.o
 .bss           0x00000000        0x0 build/default/production/_ext/404212886/list.o
 .text          0x00000000        0x0 build/default/production/_ext/745501718/pal.o
 .data          0x00000000        0x0 build/default/production/_ext/745501718/pal.o
 .bss           0x00000000        0x0 build/default/production/_ext/745501718/pal.o
 .text.delayms  0x00000000       0x2c build/default/production/_ext/745501718/pal.o
 .text.delayus  0x00000000       0x1e build/default/production/_ext/745501718/pal.o
 .text          0x00000000        0x0 build/default/production/_ext/404212886/stream_buffer.o
 .data          0x00000000        0x0 build/default/production/_ext/404212886/stream_buffer.o
 .bss           0x00000000        0x0 build/default/production/_ext/404212886/stream_buffer.o
 .text.prvBytesInBuffer
                0x00000000       0x12 build/default/production/_ext/404212886/stream_buffer.o
 .text.prvWriteBytesToBuffer
                0x00000000       0x46 build/default/production/_ext/404212886/stream_buffer.o
 .text.prvReadBytesFromBuffer
                0x00000000       0x52 build/default/production/_ext/404212886/stream_buffer.o
 .text.xStreamBufferGenericCreate
                0x00000000       0x3a build/default/production/_ext/404212886/stream_buffer.o
 .text.vStreamBufferDelete
                0x00000000       0x18 build/default/production/_ext/404212886/stream_buffer.o
 .text.xStreamBufferReset
                0x00000000       0x48 build/default/production/_ext/404212886/stream_buffer.o
 .text.xStreamBufferSetTriggerLevel
                0x00000000       0x16 build/default/production/_ext/404212886/stream_buffer.o
 .text.xStreamBufferSpacesAvailable
                0x00000000       0x14 build/default/production/_ext/404212886/stream_buffer.o
 .text.xStreamBufferBytesAvailable
                0x00000000        0x8 build/default/production/_ext/404212886/stream_buffer.o
 .text.xStreamBufferSend
                0x00000000       0xd6 build/default/production/_ext/404212886/stream_buffer.o
 .text.xStreamBufferSendFromISR
                0x00000000       0x88 build/default/production/_ext/404212886/stream_buffer.o
 .text.xStreamBufferReceive
                0x00000000       0xc0 build/default/production/_ext/404212886/stream_buffer.o
 .text.xStreamBufferNextMessageLengthBytes
                0x00000000       0x32 build/default/production/_ext/404212886/stream_buffer.o
 .text.xStreamBufferReceiveFromISR
                0x00000000       0x8e build/default/production/_ext/404212886/stream_buffer.o
 .text.xStreamBufferIsEmpty
                0x00000000        0xc build/default/production/_ext/404212886/stream_buffer.o
 .text.xStreamBufferIsFull
                0x00000000       0x18 build/default/production/_ext/404212886/stream_buffer.o
 .text.xStreamBufferSendCompletedFromISR
                0x00000000       0x36 build/default/production/_ext/404212886/stream_buffer.o
 .text.xStreamBufferReceiveCompletedFromISR
                0x00000000       0x36 build/default/production/_ext/404212886/stream_buffer.o
 .debug_info    0x00000000     0x1bf2 build/default/production/_ext/404212886/stream_buffer.o
 .debug_abbrev  0x00000000      0x349 build/default/production/_ext/404212886/stream_buffer.o
 .debug_loc     0x00000000     0x1c1f build/default/production/_ext/404212886/stream_buffer.o
 .debug_aranges
                0x00000000       0xa8 build/default/production/_ext/404212886/stream_buffer.o
 .debug_ranges  0x00000000      0x130 build/default/production/_ext/404212886/stream_buffer.o
 .debug_line    0x00000000      0xac2 build/default/production/_ext/404212886/stream_buffer.o
 .debug_str     0x00000000      0x269 build/default/production/_ext/404212886/stream_buffer.o
 .comment       0x00000000       0x2c build/default/production/_ext/404212886/stream_buffer.o
 .debug_frame   0x00000000      0x200 build/default/production/_ext/404212886/stream_buffer.o
 .ARM.attributes
                0x00000000       0x2c build/default/production/_ext/404212886/stream_buffer.o
 .text          0x00000000        0x0 build/default/production/_ext/1655452824/mac_start.o
 .data          0x00000000        0x0 build/default/production/_ext/1655452824/mac_start.o
 .bss           0x00000000        0x0 build/default/production/_ext/1655452824/mac_start.o
 .text          0x00000000        0x0 build/default/production/_ext/1655452824/usr_mlme_scan_conf.o
 .data          0x00000000        0x0 build/default/production/_ext/1655452824/usr_mlme_scan_conf.o
 .bss           0x00000000        0x0 build/default/production/_ext/1655452824/usr_mlme_scan_conf.o
 .text.USR_MLME_ScanConf
                0x00000000        0x2 build/default/production/_ext/1655452824/usr_mlme_scan_conf.o
 .debug_info    0x00000000      0x3ca build/default/production/_ext/1655452824/usr_mlme_scan_conf.o
 .debug_abbrev  0x00000000       0x85 build/default/production/_ext/1655452824/usr_mlme_scan_conf.o
 .debug_loc     0x00000000       0x6f build/default/production/_ext/1655452824/usr_mlme_scan_conf.o
 .debug_aranges
                0x00000000       0x20 build/default/production/_ext/1655452824/usr_mlme_scan_conf.o
 .debug_ranges  0x00000000       0x10 build/default/production/_ext/1655452824/usr_mlme_scan_conf.o
 .debug_line    0x00000000       0xd4 build/default/production/_ext/1655452824/usr_mlme_scan_conf.o
 .debug_str     0x00000000        0x0 build/default/production/_ext/1655452824/usr_mlme_scan_conf.o
 .comment       0x00000000       0x2c build/default/production/_ext/1655452824/usr_mlme_scan_conf.o
 .debug_frame   0x00000000       0x20 build/default/production/_ext/1655452824/usr_mlme_scan_conf.o
 .ARM.attributes
                0x00000000       0x2c build/default/production/_ext/1655452824/usr_mlme_scan_conf.o
 .text          0x00000000        0x0 build/default/production/_ext/1655452824/usr_mlme_orphan_ind.o
 .data          0x00000000        0x0 build/default/production/_ext/1655452824/usr_mlme_orphan_ind.o
 .bss           0x00000000        0x0 build/default/production/_ext/1655452824/usr_mlme_orphan_ind.o
 .text.USR_MLME_OrphanInd
                0x00000000        0x2 build/default/production/_ext/1655452824/usr_mlme_orphan_ind.o
 .debug_info    0x00000000      0x33f build/default/production/_ext/1655452824/usr_mlme_orphan_ind.o
 .debug_abbrev  0x00000000       0x5b build/default/production/_ext/1655452824/usr_mlme_orphan_ind.o
 .debug_aranges
                0x00000000       0x20 build/default/production/_ext/1655452824/usr_mlme_orphan_ind.o
 .debug_ranges  0x00000000       0x10 build/default/production/_ext/1655452824/usr_mlme_orphan_ind.o
 .debug_line    0x00000000       0xd0 build/default/production/_ext/1655452824/usr_mlme_orphan_ind.o
 .debug_str     0x00000000        0x0 build/default/production/_ext/1655452824/usr_mlme_orphan_ind.o
 .comment       0x00000000       0x2c build/default/production/_ext/1655452824/usr_mlme_orphan_ind.o
 .debug_frame   0x00000000       0x20 build/default/production/_ext/1655452824/usr_mlme_orphan_ind.o
 .ARM.attributes
                0x00000000       0x2c build/default/production/_ext/1655452824/usr_mlme_orphan_ind.o
 .text          0x00000000        0x0 build/default/production/_ext/874725666/qmm.o
 .data          0x00000000        0x0 build/default/production/_ext/874725666/qmm.o
 .bss           0x00000000        0x0 build/default/production/_ext/874725666/qmm.o
 .text          0x00000000        0x0 build/default/production/_ext/559172130/phy_rx.o
 .data          0x00000000        0x0 build/default/production/_ext/559172130/phy_rx.o
 .bss           0x00000000        0x0 build/default/production/_ext/559172130/phy_rx.o
 .text          0x00000000        0x0 build/default/production/_ext/957911548/phy_ed_end_cb.o
 .data          0x00000000        0x0 build/default/production/_ext/957911548/phy_ed_end_cb.o
 .bss           0x00000000        0x0 build/default/production/_ext/957911548/phy_ed_end_cb.o
 .text.PHY_EdEndCallback
                0x00000000        0x2 build/default/production/_ext/957911548/phy_ed_end_cb.o
 .debug_info    0x00000000      0x335 build/default/production/_ext/957911548/phy_ed_end_cb.o
 .debug_abbrev  0x00000000       0x5e build/default/production/_ext/957911548/phy_ed_end_cb.o
 .debug_loc     0x00000000       0x25 build/default/production/_ext/957911548/phy_ed_end_cb.o
 .debug_aranges
                0x00000000       0x20 build/default/production/_ext/957911548/phy_ed_end_cb.o
 .debug_ranges  0x00000000       0x10 build/default/production/_ext/957911548/phy_ed_end_cb.o
 .debug_line    0x00000000       0xca build/default/production/_ext/957911548/phy_ed_end_cb.o
 .debug_str     0x00000000        0x0 build/default/production/_ext/957911548/phy_ed_end_cb.o
 .comment       0x00000000       0x2c build/default/production/_ext/957911548/phy_ed_end_cb.o
 .debug_frame   0x00000000       0x20 build/default/production/_ext/957911548/phy_ed_end_cb.o
 .ARM.attributes
                0x00000000       0x2c build/default/production/_ext/957911548/phy_ed_end_cb.o
 .text          0x00000000        0x0 build/default/production/_ext/1665200909/heap_4.o
 .data          0x00000000        0x0 build/default/production/_ext/1665200909/heap_4.o
 .bss           0x00000000        0x0 build/default/production/_ext/1665200909/heap_4.o
 .text.xPortGetFreeHeapSize
                0x00000000        0xc build/default/production/_ext/1665200909/heap_4.o
 .text.xPortGetMinimumEverFreeHeapSize
                0x00000000        0xc build/default/production/_ext/1665200909/heap_4.o
 .text.vPortInitialiseBlocks
                0x00000000        0x2 build/default/production/_ext/1665200909/heap_4.o
 .text.vPortGetHeapStats
                0x00000000       0x84 build/default/production/_ext/1665200909/heap_4.o
 .text          0x00000000        0x0 build/default/production/_ext/85628700/demo_app_ffd.o
 .data          0x00000000        0x0 build/default/production/_ext/85628700/demo_app_ffd.o
 .bss           0x00000000        0x0 build/default/production/_ext/85628700/demo_app_ffd.o
 .text.Handle_CommStatusInd
                0x00000000        0x2 build/default/production/_ext/85628700/demo_app_ffd.o
 .text.Handle_BeaconNotifyInd
                0x00000000        0x2 build/default/production/_ext/85628700/demo_app_ffd.o
 .text          0x00000000        0x0 build/default/production/_ext/85628700/demo_app_security.o
 .data          0x00000000        0x0 build/default/production/_ext/85628700/demo_app_security.o
 .bss           0x00000000        0x0 build/default/production/_ext/85628700/demo_app_security.o
 .debug_line    0x00000000        0x0 build/default/production/_ext/85628700/demo_app_security.o
 .debug_str     0x00000000        0x0 build/default/production/_ext/85628700/demo_app_security.o
 .comment       0x00000000       0x2c build/default/production/_ext/85628700/demo_app_security.o
 .ARM.attributes
                0x00000000       0x32 build/default/production/_ext/85628700/demo_app_security.o
 .text          0x00000000        0x0 build/default/production/_ext/85628700/usr_mac_callbacks.o
 .data          0x00000000        0x0 build/default/production/_ext/85628700/usr_mac_callbacks.o
 .bss           0x00000000        0x0 build/default/production/_ext/85628700/usr_mac_callbacks.o
 .text          0x00000000        0x0 c:/program files/microchip/xc32/v4.35/bin/bin/../../lib/gcc/pic32c/8.3.1/../../../../pic32c/lib/thumb/v6-m/nofp\libpic32c.a(data_init.o)
 .data          0x00000000        0x0 c:/program files/microchip/xc32/v4.35/bin/bin/../../lib/gcc/pic32c/8.3.1/../../../../pic32c/lib/thumb/v6-m/nofp\libpic32c.a(data_init.o)
 .xc_stack_usage
                0x00000000       0x4a c:/program files/microchip/xc32/v4.35/bin/bin/../../lib/gcc/pic32c/8.3.1/../../../../pic32c/lib/thumb/v6-m/nofp\libpic32c.a(data_init.o)
 .xc_stack_usage.hdr
                0x00000000        0xe c:/program files/microchip/xc32/v4.35/bin/bin/../../lib/gcc/pic32c/8.3.1/../../../../pic32c/lib/thumb/v6-m/nofp\libpic32c.a(data_init.o)
 .ARM.attributes
                0x00000000       0x1c c:/program files/microchip/xc32/v4.35/bin/bin/../../lib/gcc/pic32c/8.3.1/../../../../pic32c/lib/thumb/v6-m/nofp\libm-fast-emfloat.a(__aeabi_fadd.o)
 .text.__aeabi_fadd
                0x00000000      0x13a c:/program files/microchip/xc32/v4.35/bin/bin/../../lib/gcc/pic32c/8.3.1/../../../../pic32c/lib/thumb/v6-m/nofp\libm-fast-emfloat.a(__aeabi_fadd.o)
 .xc_stack_usage.hdr
                0x00000000        0xe c:/program files/microchip/xc32/v4.35/bin/bin/../../lib/gcc/pic32c/8.3.1/../../../../pic32c/lib/thumb/v6-m/nofp\libm-fast-emfloat.a(__aeabi_fadd.o)
 .xc_stack_usage
                0x00000000       0x41 c:/program files/microchip/xc32/v4.35/bin/bin/../../lib/gcc/pic32c/8.3.1/../../../../pic32c/lib/thumb/v6-m/nofp\libm-fast-emfloat.a(__aeabi_fadd.o)
 .xc_stack_usage.hdr
                0x00000000        0xe c:/program files/microchip/xc32/v4.35/bin/bin/../../lib/gcc/pic32c/8.3.1/../../../../pic32c/lib/thumb/v6-m/nofp\libm-fast-emfloat.a(__aeabi_dadd.o)
 .xc_stack_usage
                0x00000000       0x41 c:/program files/microchip/xc32/v4.35/bin/bin/../../lib/gcc/pic32c/8.3.1/../../../../pic32c/lib/thumb/v6-m/nofp\libm-fast-emfloat.a(__aeabi_dadd.o)
 .ARM.attributes
                0x00000000       0x1c c:/program files/microchip/xc32/v4.35/bin/bin/../../lib/gcc/pic32c/8.3.1/../../../../pic32c/lib/thumb/v6-m/nofp\libm-fast-emfloat.a(__aeabi_fsub.o)
 .text.__aeabi_fsub
                0x00000000       0x10 c:/program files/microchip/xc32/v4.35/bin/bin/../../lib/gcc/pic32c/8.3.1/../../../../pic32c/lib/thumb/v6-m/nofp\libm-fast-emfloat.a(__aeabi_fsub.o)
 .xc_stack_usage.hdr
                0x00000000        0xe c:/program files/microchip/xc32/v4.35/bin/bin/../../lib/gcc/pic32c/8.3.1/../../../../pic32c/lib/thumb/v6-m/nofp\libm-fast-emfloat.a(__aeabi_fsub.o)
 .xc_stack_usage
                0x00000000       0x1a c:/program files/microchip/xc32/v4.35/bin/bin/../../lib/gcc/pic32c/8.3.1/../../../../pic32c/lib/thumb/v6-m/nofp\libm-fast-emfloat.a(__aeabi_fsub.o)
 .xc_stack_usage.hdr
                0x00000000        0xe c:/program files/microchip/xc32/v4.35/bin/bin/../../lib/gcc/pic32c/8.3.1/../../../../pic32c/lib/thumb/v6-m/nofp\libm-fast-emfloat.a(__aeabi_dmul_aux.o)
 .xc_stack_usage
                0x00000000       0x38 c:/program files/microchip/xc32/v4.35/bin/bin/../../lib/gcc/pic32c/8.3.1/../../../../pic32c/lib/thumb/v6-m/nofp\libm-fast-emfloat.a(__aeabi_dmul_aux.o)
 .ARM.attributes
                0x00000000       0x1c c:/program files/microchip/xc32/v4.35/bin/bin/../../lib/gcc/pic32c/8.3.1/../../../../pic32c/lib/thumb/v6-m/nofp\libm-fast-emfloat.a(__aeabi_fcmpgt.o)
 .text.__aeabi_fcmpgt
                0x00000000       0x2e c:/program files/microchip/xc32/v4.35/bin/bin/../../lib/gcc/pic32c/8.3.1/../../../../pic32c/lib/thumb/v6-m/nofp\libm-fast-emfloat.a(__aeabi_fcmpgt.o)
 .xc_stack_usage.hdr
                0x00000000        0xe c:/program files/microchip/xc32/v4.35/bin/bin/../../lib/gcc/pic32c/8.3.1/../../../../pic32c/lib/thumb/v6-m/nofp\libm-fast-emfloat.a(__aeabi_fcmpgt.o)
 .xc_stack_usage
                0x00000000       0x1c c:/program files/microchip/xc32/v4.35/bin/bin/../../lib/gcc/pic32c/8.3.1/../../../../pic32c/lib/thumb/v6-m/nofp\libm-fast-emfloat.a(__aeabi_fcmpgt.o)
 .ARM.attributes
                0x00000000       0x1c c:/program files/microchip/xc32/v4.35/bin/bin/../../lib/gcc/pic32c/8.3.1/../../../../pic32c/lib/thumb/v6-m/nofp\libm-fast-emfloat.a(__aeabi_fcmplt.o)
 .text.__aeabi_fcmplt
                0x00000000       0x2e c:/program files/microchip/xc32/v4.35/bin/bin/../../lib/gcc/pic32c/8.3.1/../../../../pic32c/lib/thumb/v6-m/nofp\libm-fast-emfloat.a(__aeabi_fcmplt.o)
 .xc_stack_usage.hdr
                0x00000000        0xe c:/program files/microchip/xc32/v4.35/bin/bin/../../lib/gcc/pic32c/8.3.1/../../../../pic32c/lib/thumb/v6-m/nofp\libm-fast-emfloat.a(__aeabi_fcmplt.o)
 .xc_stack_usage
                0x00000000       0x1c c:/program files/microchip/xc32/v4.35/bin/bin/../../lib/gcc/pic32c/8.3.1/../../../../pic32c/lib/thumb/v6-m/nofp\libm-fast-emfloat.a(__aeabi_fcmplt.o)
 .ARM.attributes
                0x00000000       0x1c c:/program files/microchip/xc32/v4.35/bin/bin/../../lib/gcc/pic32c/8.3.1/../../../../pic32c/lib/thumb/v6-m/nofp\libm-fast-emfloat.a(__aeabi_f2iz.o)
 .text.__aeabi_f2iz
                0x00000000       0x3e c:/program files/microchip/xc32/v4.35/bin/bin/../../lib/gcc/pic32c/8.3.1/../../../../pic32c/lib/thumb/v6-m/nofp\libm-fast-emfloat.a(__aeabi_f2iz.o)
 .xc_stack_usage.hdr
                0x00000000        0xe c:/program files/microchip/xc32/v4.35/bin/bin/../../lib/gcc/pic32c/8.3.1/../../../../pic32c/lib/thumb/v6-m/nofp\libm-fast-emfloat.a(__aeabi_f2iz.o)
 .xc_stack_usage
                0x00000000       0x1a c:/program files/microchip/xc32/v4.35/bin/bin/../../lib/gcc/pic32c/8.3.1/../../../../pic32c/lib/thumb/v6-m/nofp\libm-fast-emfloat.a(__aeabi_f2iz.o)
 .ARM.attributes
                0x00000000       0x1c c:/program files/microchip/xc32/v4.35/bin/bin/../../lib/gcc/pic32c/8.3.1/../../../../pic32c/lib/thumb/v6-m/nofp\libm-fast-emfloat.a(__aeabi_f2uiz.o)
 .text.__aeabi_f2uiz
                0x00000000       0x24 c:/program files/microchip/xc32/v4.35/bin/bin/../../lib/gcc/pic32c/8.3.1/../../../../pic32c/lib/thumb/v6-m/nofp\libm-fast-emfloat.a(__aeabi_f2uiz.o)
 .xc_stack_usage.hdr
                0x00000000        0xe c:/program files/microchip/xc32/v4.35/bin/bin/../../lib/gcc/pic32c/8.3.1/../../../../pic32c/lib/thumb/v6-m/nofp\libm-fast-emfloat.a(__aeabi_f2uiz.o)
 .xc_stack_usage
                0x00000000       0x1b c:/program files/microchip/xc32/v4.35/bin/bin/../../lib/gcc/pic32c/8.3.1/../../../../pic32c/lib/thumb/v6-m/nofp\libm-fast-emfloat.a(__aeabi_f2uiz.o)
 .ARM.attributes
                0x00000000       0x1c c:/program files/microchip/xc32/v4.35/bin/bin/../../lib/gcc/pic32c/8.3.1/../../../../pic32c/lib/thumb/v6-m/nofp\libm-fast-emfloat.a(__aeabi_ui2f.o)
 .text.__aeabi_ui2f
                0x00000000       0x1e c:/program files/microchip/xc32/v4.35/bin/bin/../../lib/gcc/pic32c/8.3.1/../../../../pic32c/lib/thumb/v6-m/nofp\libm-fast-emfloat.a(__aeabi_ui2f.o)
 .xc_stack_usage.hdr
                0x00000000        0xe c:/program files/microchip/xc32/v4.35/bin/bin/../../lib/gcc/pic32c/8.3.1/../../../../pic32c/lib/thumb/v6-m/nofp\libm-fast-emfloat.a(__aeabi_ui2f.o)
 .xc_stack_usage
                0x00000000       0x1a c:/program files/microchip/xc32/v4.35/bin/bin/../../lib/gcc/pic32c/8.3.1/../../../../pic32c/lib/thumb/v6-m/nofp\libm-fast-emfloat.a(__aeabi_ui2f.o)
 .ARM.attributes
                0x00000000       0x1c c:/program files/microchip/xc32/v4.35/bin/bin/../../lib/gcc/pic32c/8.3.1/../../../../pic32c/lib/thumb/v6-m/nofp\libm-fast-emfloat.a(__aeabi_f2d.o)
 .text.__aeabi_f2d
                0x00000000       0x44 c:/program files/microchip/xc32/v4.35/bin/bin/../../lib/gcc/pic32c/8.3.1/../../../../pic32c/lib/thumb/v6-m/nofp\libm-fast-emfloat.a(__aeabi_f2d.o)
 .xc_stack_usage.hdr
                0x00000000        0xe c:/program files/microchip/xc32/v4.35/bin/bin/../../lib/gcc/pic32c/8.3.1/../../../../pic32c/lib/thumb/v6-m/nofp\libm-fast-emfloat.a(__aeabi_f2d.o)
 .xc_stack_usage
                0x00000000       0x19 c:/program files/microchip/xc32/v4.35/bin/bin/../../lib/gcc/pic32c/8.3.1/../../../../pic32c/lib/thumb/v6-m/nofp\libm-fast-emfloat.a(__aeabi_f2d.o)
 .ARM.attributes
                0x00000000       0x1c c:/program files/microchip/xc32/v4.35/bin/bin/../../lib/gcc/pic32c/8.3.1/../../../../pic32c/lib/thumb/v6-m/nofp\libm-fast-emfloat.a(__aeabi_d2f.o)
 .text.__aeabi_d2f
                0x00000000       0x62 c:/program files/microchip/xc32/v4.35/bin/bin/../../lib/gcc/pic32c/8.3.1/../../../../pic32c/lib/thumb/v6-m/nofp\libm-fast-emfloat.a(__aeabi_d2f.o)
 .xc_stack_usage.hdr
                0x00000000        0xe c:/program files/microchip/xc32/v4.35/bin/bin/../../lib/gcc/pic32c/8.3.1/../../../../pic32c/lib/thumb/v6-m/nofp\libm-fast-emfloat.a(__aeabi_d2f.o)
 .xc_stack_usage
                0x00000000       0x19 c:/program files/microchip/xc32/v4.35/bin/bin/../../lib/gcc/pic32c/8.3.1/../../../../pic32c/lib/thumb/v6-m/nofp\libm-fast-emfloat.a(__aeabi_d2f.o)
 .text          0x00000000        0x0 c:/program files/microchip/xc32/v4.35/bin/bin/../../lib/gcc/pic32c/8.3.1/../../../../pic32c/lib/thumb/v6-m/nofp\libc-musl.a(__libc_start_main.o)
 .data          0x00000000        0x0 c:/program files/microchip/xc32/v4.35/bin/bin/../../lib/gcc/pic32c/8.3.1/../../../../pic32c/lib/thumb/v6-m/nofp\libc-musl.a(__libc_start_main.o)
 .bss           0x00000000        0x0 c:/program files/microchip/xc32/v4.35/bin/bin/../../lib/gcc/pic32c/8.3.1/../../../../pic32c/lib/thumb/v6-m/nofp\libc-musl.a(__libc_start_main.o)
 .xc_stack_usage
                0x00000000       0x34 c:/program files/microchip/xc32/v4.35/bin/bin/../../lib/gcc/pic32c/8.3.1/../../../../pic32c/lib/thumb/v6-m/nofp\libc-musl.a(__libc_start_main.o)
 .xc_stack_usage.hdr
                0x00000000        0xe c:/program files/microchip/xc32/v4.35/bin/bin/../../lib/gcc/pic32c/8.3.1/../../../../pic32c/lib/thumb/v6-m/nofp\libc-musl.a(__libc_start_main.o)
 .text          0x00000000        0x0 c:/program files/microchip/xc32/v4.35/bin/bin/../../lib/gcc/pic32c/8.3.1/../../../../pic32c/lib/thumb/v6-m/nofp\libc-musl.a(libc.o)
 .data          0x00000000        0x0 c:/program files/microchip/xc32/v4.35/bin/bin/../../lib/gcc/pic32c/8.3.1/../../../../pic32c/lib/thumb/v6-m/nofp\libc-musl.a(libc.o)
 .xc_stack_usage.hdr
                0x00000000        0xe c:/program files/microchip/xc32/v4.35/bin/bin/../../lib/gcc/pic32c/8.3.1/../../../../pic32c/lib/thumb/v6-m/nofp\libc-musl.a(libc.o)
 .text          0x00000000        0x0 c:/program files/microchip/xc32/v4.35/bin/bin/../../lib/gcc/pic32c/8.3.1/../../../../pic32c/lib/thumb/v6-m/nofp\libc-musl.a(rand.o)
 .data          0x00000000        0x0 c:/program files/microchip/xc32/v4.35/bin/bin/../../lib/gcc/pic32c/8.3.1/../../../../pic32c/lib/thumb/v6-m/nofp\libc-musl.a(rand.o)
 .xc_stack_usage
                0x00000000       0x25 c:/program files/microchip/xc32/v4.35/bin/bin/../../lib/gcc/pic32c/8.3.1/../../../../pic32c/lib/thumb/v6-m/nofp\libc-musl.a(rand.o)
 .xc_stack_usage.hdr
                0x00000000        0xe c:/program files/microchip/xc32/v4.35/bin/bin/../../lib/gcc/pic32c/8.3.1/../../../../pic32c/lib/thumb/v6-m/nofp\libc-musl.a(rand.o)
 .text          0x00000000        0x0 c:/program files/microchip/xc32/v4.35/bin/bin/../../lib/gcc/pic32c/8.3.1/../../../../pic32c/lib/thumb/v6-m/nofp\libc-musl.a(vsnprintf.o)
 .data          0x00000000        0x0 c:/program files/microchip/xc32/v4.35/bin/bin/../../lib/gcc/pic32c/8.3.1/../../../../pic32c/lib/thumb/v6-m/nofp\libc-musl.a(vsnprintf.o)
 .bss           0x00000000        0x0 c:/program files/microchip/xc32/v4.35/bin/bin/../../lib/gcc/pic32c/8.3.1/../../../../pic32c/lib/thumb/v6-m/nofp\libc-musl.a(vsnprintf.o)
 .xc_stack_usage
                0x00000000       0x17 c:/program files/microchip/xc32/v4.35/bin/bin/../../lib/gcc/pic32c/8.3.1/../../../../pic32c/lib/thumb/v6-m/nofp\libc-musl.a(vsnprintf.o)
 .xc_stack_usage.hdr
                0x00000000        0xe c:/program files/microchip/xc32/v4.35/bin/bin/../../lib/gcc/pic32c/8.3.1/../../../../pic32c/lib/thumb/v6-m/nofp\libc-musl.a(vsnprintf.o)
 .text          0x00000000        0x0 c:/program files/microchip/xc32/v4.35/bin/bin/../../lib/gcc/pic32c/8.3.1/../../../../pic32c/lib/thumb/v6-m/nofp\libc-musl.a(memcpy.o)
 .data          0x00000000        0x0 c:/program files/microchip/xc32/v4.35/bin/bin/../../lib/gcc/pic32c/8.3.1/../../../../pic32c/lib/thumb/v6-m/nofp\libc-musl.a(memcpy.o)
 .bss           0x00000000        0x0 c:/program files/microchip/xc32/v4.35/bin/bin/../../lib/gcc/pic32c/8.3.1/../../../../pic32c/lib/thumb/v6-m/nofp\libc-musl.a(memcpy.o)
 .xc_stack_usage
                0x00000000       0x14 c:/program files/microchip/xc32/v4.35/bin/bin/../../lib/gcc/pic32c/8.3.1/../../../../pic32c/lib/thumb/v6-m/nofp\libc-musl.a(memcpy.o)
 .xc_stack_usage.hdr
                0x00000000        0xe c:/program files/microchip/xc32/v4.35/bin/bin/../../lib/gcc/pic32c/8.3.1/../../../../pic32c/lib/thumb/v6-m/nofp\libc-musl.a(memcpy.o)
 .text          0x00000000        0x0 c:/program files/microchip/xc32/v4.35/bin/bin/../../lib/gcc/pic32c/8.3.1/../../../../pic32c/lib/thumb/v6-m/nofp\libc-musl.a(memset.o)
 .data          0x00000000        0x0 c:/program files/microchip/xc32/v4.35/bin/bin/../../lib/gcc/pic32c/8.3.1/../../../../pic32c/lib/thumb/v6-m/nofp\libc-musl.a(memset.o)
 .bss           0x00000000        0x0 c:/program files/microchip/xc32/v4.35/bin/bin/../../lib/gcc/pic32c/8.3.1/../../../../pic32c/lib/thumb/v6-m/nofp\libc-musl.a(memset.o)
 .xc_stack_usage
                0x00000000       0x14 c:/program files/microchip/xc32/v4.35/bin/bin/../../lib/gcc/pic32c/8.3.1/../../../../pic32c/lib/thumb/v6-m/nofp\libc-musl.a(memset.o)
 .xc_stack_usage.hdr
                0x00000000        0xe c:/program files/microchip/xc32/v4.35/bin/bin/../../lib/gcc/pic32c/8.3.1/../../../../pic32c/lib/thumb/v6-m/nofp\libc-musl.a(memset.o)
 .text          0x00000000        0x0 c:/program files/microchip/xc32/v4.35/bin/bin/../../lib/gcc/pic32c/8.3.1/../../../../pic32c/lib/thumb/v6-m/nofp\libc-musl.a(strlen.o)
 .data          0x00000000        0x0 c:/program files/microchip/xc32/v4.35/bin/bin/../../lib/gcc/pic32c/8.3.1/../../../../pic32c/lib/thumb/v6-m/nofp\libc-musl.a(strlen.o)
 .bss           0x00000000        0x0 c:/program files/microchip/xc32/v4.35/bin/bin/../../lib/gcc/pic32c/8.3.1/../../../../pic32c/lib/thumb/v6-m/nofp\libc-musl.a(strlen.o)
 .xc_stack_usage
                0x00000000       0x14 c:/program files/microchip/xc32/v4.35/bin/bin/../../lib/gcc/pic32c/8.3.1/../../../../pic32c/lib/thumb/v6-m/nofp\libc-musl.a(strlen.o)
 .xc_stack_usage.hdr
                0x00000000        0xe c:/program files/microchip/xc32/v4.35/bin/bin/../../lib/gcc/pic32c/8.3.1/../../../../pic32c/lib/thumb/v6-m/nofp\libc-musl.a(strlen.o)
 .text          0x00000000        0x0 c:/program files/microchip/xc32/v4.35/bin/bin/../../lib/gcc/pic32c/8.3.1/../../../../pic32c/lib/thumb/v6-m/nofp\libc-musl.a(__environ.o)
 .data          0x00000000        0x0 c:/program files/microchip/xc32/v4.35/bin/bin/../../lib/gcc/pic32c/8.3.1/../../../../pic32c/lib/thumb/v6-m/nofp\libc-musl.a(__environ.o)
 .xc_stack_usage.hdr
                0x00000000        0xe c:/program files/microchip/xc32/v4.35/bin/bin/../../lib/gcc/pic32c/8.3.1/../../../../pic32c/lib/thumb/v6-m/nofp\libc-musl.a(__environ.o)
 .text          0x00000000        0x0 c:/program files/microchip/xc32/v4.35/bin/bin/../../lib/gcc/pic32c/8.3.1/../../../../pic32c/lib/thumb/v6-m/nofp\libc-musl.a(__errno_location.o)
 .data          0x00000000        0x0 c:/program files/microchip/xc32/v4.35/bin/bin/../../lib/gcc/pic32c/8.3.1/../../../../pic32c/lib/thumb/v6-m/nofp\libc-musl.a(__errno_location.o)
 .xc_stack_usage.hdr
                0x00000000        0xe c:/program files/microchip/xc32/v4.35/bin/bin/../../lib/gcc/pic32c/8.3.1/../../../../pic32c/lib/thumb/v6-m/nofp\libc-musl.a(__errno_location.o)
 .text          0x00000000        0x0 c:/program files/microchip/xc32/v4.35/bin/bin/../../lib/gcc/pic32c/8.3.1/../../../../pic32c/lib/thumb/v6-m/nofp\libc-musl.a(vfprintf.o)
 .data          0x00000000        0x0 c:/program files/microchip/xc32/v4.35/bin/bin/../../lib/gcc/pic32c/8.3.1/../../../../pic32c/lib/thumb/v6-m/nofp\libc-musl.a(vfprintf.o)
 .bss           0x00000000        0x0 c:/program files/microchip/xc32/v4.35/bin/bin/../../lib/gcc/pic32c/8.3.1/../../../../pic32c/lib/thumb/v6-m/nofp\libc-musl.a(vfprintf.o)
 .xc_stack_usage
                0x00000000       0x38 c:/program files/microchip/xc32/v4.35/bin/bin/../../lib/gcc/pic32c/8.3.1/../../../../pic32c/lib/thumb/v6-m/nofp\libc-musl.a(vfprintf.o)
 .xc_stack_usage.hdr
                0x00000000        0xe c:/program files/microchip/xc32/v4.35/bin/bin/../../lib/gcc/pic32c/8.3.1/../../../../pic32c/lib/thumb/v6-m/nofp\libc-musl.a(vfprintf.o)
 .text          0x00000000        0x0 c:/program files/microchip/xc32/v4.35/bin/bin/../../lib/gcc/pic32c/8.3.1/../../../../pic32c/lib/thumb/v6-m/nofp\libc-musl.a(__io_fmt_needed.o)
 .data          0x00000000        0x0 c:/program files/microchip/xc32/v4.35/bin/bin/../../lib/gcc/pic32c/8.3.1/../../../../pic32c/lib/thumb/v6-m/nofp\libc-musl.a(__io_fmt_needed.o)
 .bss           0x00000000        0x0 c:/program files/microchip/xc32/v4.35/bin/bin/../../lib/gcc/pic32c/8.3.1/../../../../pic32c/lib/thumb/v6-m/nofp\libc-musl.a(__io_fmt_needed.o)
 .xc_stack_usage
                0x00000000       0x1d c:/program files/microchip/xc32/v4.35/bin/bin/../../lib/gcc/pic32c/8.3.1/../../../../pic32c/lib/thumb/v6-m/nofp\libc-musl.a(__io_fmt_needed.o)
 .xc_stack_usage.hdr
                0x00000000        0xe c:/program files/microchip/xc32/v4.35/bin/bin/../../lib/gcc/pic32c/8.3.1/../../../../pic32c/lib/thumb/v6-m/nofp\libc-musl.a(__io_fmt_needed.o)
 .debug_info    0x00000000      0x3e5 c:/program files/microchip/xc32/v4.35/bin/bin/../../lib/gcc/pic32c/8.3.1/../../../../pic32c/lib/thumb/v6-m/nofp\libc-musl.a(__io_fmt_needed.o)
 .debug_abbrev  0x00000000       0x5c c:/program files/microchip/xc32/v4.35/bin/bin/../../lib/gcc/pic32c/8.3.1/../../../../pic32c/lib/thumb/v6-m/nofp\libc-musl.a(__io_fmt_needed.o)
 .debug_loc     0x00000000       0x20 c:/program files/microchip/xc32/v4.35/bin/bin/../../lib/gcc/pic32c/8.3.1/../../../../pic32c/lib/thumb/v6-m/nofp\libc-musl.a(__io_fmt_needed.o)
 .debug_aranges
                0x00000000       0x20 c:/program files/microchip/xc32/v4.35/bin/bin/../../lib/gcc/pic32c/8.3.1/../../../../pic32c/lib/thumb/v6-m/nofp\libc-musl.a(__io_fmt_needed.o)
 .debug_ranges  0x00000000       0x10 c:/program files/microchip/xc32/v4.35/bin/bin/../../lib/gcc/pic32c/8.3.1/../../../../pic32c/lib/thumb/v6-m/nofp\libc-musl.a(__io_fmt_needed.o)
 .debug_line    0x00000000       0xc5 c:/program files/microchip/xc32/v4.35/bin/bin/../../lib/gcc/pic32c/8.3.1/../../../../pic32c/lib/thumb/v6-m/nofp\libc-musl.a(__io_fmt_needed.o)
 .debug_str     0x00000000       0x9e c:/program files/microchip/xc32/v4.35/bin/bin/../../lib/gcc/pic32c/8.3.1/../../../../pic32c/lib/thumb/v6-m/nofp\libc-musl.a(__io_fmt_needed.o)
 .comment       0x00000000       0x2c c:/program files/microchip/xc32/v4.35/bin/bin/../../lib/gcc/pic32c/8.3.1/../../../../pic32c/lib/thumb/v6-m/nofp\libc-musl.a(__io_fmt_needed.o)
 .note.GNU-stack
                0x00000000        0x0 c:/program files/microchip/xc32/v4.35/bin/bin/../../lib/gcc/pic32c/8.3.1/../../../../pic32c/lib/thumb/v6-m/nofp\libc-musl.a(__io_fmt_needed.o)
 .debug_frame   0x00000000       0x28 c:/program files/microchip/xc32/v4.35/bin/bin/../../lib/gcc/pic32c/8.3.1/../../../../pic32c/lib/thumb/v6-m/nofp\libc-musl.a(__io_fmt_needed.o)
 .ARM.attributes
                0x00000000       0x2e c:/program files/microchip/xc32/v4.35/bin/bin/../../lib/gcc/pic32c/8.3.1/../../../../pic32c/lib/thumb/v6-m/nofp\libc-musl.a(__io_fmt_needed.o)
 .text          0x00000000        0x0 c:/program files/microchip/xc32/v4.35/bin/bin/../../lib/gcc/pic32c/8.3.1/../../../../pic32c/lib/thumb/v6-m/nofp\libc-musl.a(__pop_float.o)
 .data          0x00000000        0x0 c:/program files/microchip/xc32/v4.35/bin/bin/../../lib/gcc/pic32c/8.3.1/../../../../pic32c/lib/thumb/v6-m/nofp\libc-musl.a(__pop_float.o)
 .bss           0x00000000        0x0 c:/program files/microchip/xc32/v4.35/bin/bin/../../lib/gcc/pic32c/8.3.1/../../../../pic32c/lib/thumb/v6-m/nofp\libc-musl.a(__pop_float.o)
 .xc_stack_usage
                0x00000000       0x19 c:/program files/microchip/xc32/v4.35/bin/bin/../../lib/gcc/pic32c/8.3.1/../../../../pic32c/lib/thumb/v6-m/nofp\libc-musl.a(__pop_float.o)
 .xc_stack_usage.hdr
                0x00000000        0xe c:/program files/microchip/xc32/v4.35/bin/bin/../../lib/gcc/pic32c/8.3.1/../../../../pic32c/lib/thumb/v6-m/nofp\libc-musl.a(__pop_float.o)
 .text          0x00000000        0x0 c:/program files/microchip/xc32/v4.35/bin/bin/../../lib/gcc/pic32c/8.3.1/../../../../pic32c/lib/thumb/v6-m/nofp\libc-musl.a(__pop_int.o)
 .data          0x00000000        0x0 c:/program files/microchip/xc32/v4.35/bin/bin/../../lib/gcc/pic32c/8.3.1/../../../../pic32c/lib/thumb/v6-m/nofp\libc-musl.a(__pop_int.o)
 .bss           0x00000000        0x0 c:/program files/microchip/xc32/v4.35/bin/bin/../../lib/gcc/pic32c/8.3.1/../../../../pic32c/lib/thumb/v6-m/nofp\libc-musl.a(__pop_int.o)
 .xc_stack_usage
                0x00000000       0x17 c:/program files/microchip/xc32/v4.35/bin/bin/../../lib/gcc/pic32c/8.3.1/../../../../pic32c/lib/thumb/v6-m/nofp\libc-musl.a(__pop_int.o)
 .xc_stack_usage.hdr
                0x00000000        0xe c:/program files/microchip/xc32/v4.35/bin/bin/../../lib/gcc/pic32c/8.3.1/../../../../pic32c/lib/thumb/v6-m/nofp\libc-musl.a(__pop_int.o)
 .text          0x00000000        0x0 c:/program files/microchip/xc32/v4.35/bin/bin/../../lib/gcc/pic32c/8.3.1/../../../../pic32c/lib/thumb/v6-m/nofp\libc-musl.a(__pop_ptr.o)
 .data          0x00000000        0x0 c:/program files/microchip/xc32/v4.35/bin/bin/../../lib/gcc/pic32c/8.3.1/../../../../pic32c/lib/thumb/v6-m/nofp\libc-musl.a(__pop_ptr.o)
 .bss           0x00000000        0x0 c:/program files/microchip/xc32/v4.35/bin/bin/../../lib/gcc/pic32c/8.3.1/../../../../pic32c/lib/thumb/v6-m/nofp\libc-musl.a(__pop_ptr.o)
 .xc_stack_usage
                0x00000000       0x17 c:/program files/microchip/xc32/v4.35/bin/bin/../../lib/gcc/pic32c/8.3.1/../../../../pic32c/lib/thumb/v6-m/nofp\libc-musl.a(__pop_ptr.o)
 .xc_stack_usage.hdr
                0x00000000        0xe c:/program files/microchip/xc32/v4.35/bin/bin/../../lib/gcc/pic32c/8.3.1/../../../../pic32c/lib/thumb/v6-m/nofp\libc-musl.a(__pop_ptr.o)
 .text          0x00000000        0x0 c:/program files/microchip/xc32/v4.35/bin/bin/../../lib/gcc/pic32c/8.3.1/../../../../pic32c/lib/thumb/v6-m/nofp\libc-musl.a(__printf_core.o)
 .data          0x00000000        0x0 c:/program files/microchip/xc32/v4.35/bin/bin/../../lib/gcc/pic32c/8.3.1/../../../../pic32c/lib/thumb/v6-m/nofp\libc-musl.a(__printf_core.o)
 .bss           0x00000000        0x0 c:/program files/microchip/xc32/v4.35/bin/bin/../../lib/gcc/pic32c/8.3.1/../../../../pic32c/lib/thumb/v6-m/nofp\libc-musl.a(__printf_core.o)
 .xc_stack_usage
                0x00000000       0xaf c:/program files/microchip/xc32/v4.35/bin/bin/../../lib/gcc/pic32c/8.3.1/../../../../pic32c/lib/thumb/v6-m/nofp\libc-musl.a(__printf_core.o)
 .text.__dummy_fmt3
                0x00000000        0x4 c:/program files/microchip/xc32/v4.35/bin/bin/../../lib/gcc/pic32c/8.3.1/../../../../pic32c/lib/thumb/v6-m/nofp\libc-musl.a(__printf_core.o)
 .text.__dummy_fmt4
                0x00000000        0x4 c:/program files/microchip/xc32/v4.35/bin/bin/../../lib/gcc/pic32c/8.3.1/../../../../pic32c/lib/thumb/v6-m/nofp\libc-musl.a(__printf_core.o)
 .text.__dummy_fmts
                0x00000000        0x4 c:/program files/microchip/xc32/v4.35/bin/bin/../../lib/gcc/pic32c/8.3.1/../../../../pic32c/lib/thumb/v6-m/nofp\libc-musl.a(__printf_core.o)
 .xc_stack_usage.hdr
                0x00000000        0xe c:/program files/microchip/xc32/v4.35/bin/bin/../../lib/gcc/pic32c/8.3.1/../../../../pic32c/lib/thumb/v6-m/nofp\libc-musl.a(__printf_core.o)
 .text          0x00000000        0x0 c:/program files/microchip/xc32/v4.35/bin/bin/../../lib/gcc/pic32c/8.3.1/../../../../pic32c/lib/thumb/v6-m/nofp\libc-musl.a(atoi.o)
 .data          0x00000000        0x0 c:/program files/microchip/xc32/v4.35/bin/bin/../../lib/gcc/pic32c/8.3.1/../../../../pic32c/lib/thumb/v6-m/nofp\libc-musl.a(atoi.o)
 .bss           0x00000000        0x0 c:/program files/microchip/xc32/v4.35/bin/bin/../../lib/gcc/pic32c/8.3.1/../../../../pic32c/lib/thumb/v6-m/nofp\libc-musl.a(atoi.o)
 .xc_stack_usage
                0x00000000       0x12 c:/program files/microchip/xc32/v4.35/bin/bin/../../lib/gcc/pic32c/8.3.1/../../../../pic32c/lib/thumb/v6-m/nofp\libc-musl.a(atoi.o)
 .xc_stack_usage.hdr
                0x00000000        0xe c:/program files/microchip/xc32/v4.35/bin/bin/../../lib/gcc/pic32c/8.3.1/../../../../pic32c/lib/thumb/v6-m/nofp\libc-musl.a(atoi.o)
 .text          0x00000000        0x0 c:/program files/microchip/xc32/v4.35/bin/bin/../../lib/gcc/pic32c/8.3.1/../../../../pic32c/lib/thumb/v6-m/nofp\libc-musl.a(tolower.o)
 .data          0x00000000        0x0 c:/program files/microchip/xc32/v4.35/bin/bin/../../lib/gcc/pic32c/8.3.1/../../../../pic32c/lib/thumb/v6-m/nofp\libc-musl.a(tolower.o)
 .bss           0x00000000        0x0 c:/program files/microchip/xc32/v4.35/bin/bin/../../lib/gcc/pic32c/8.3.1/../../../../pic32c/lib/thumb/v6-m/nofp\libc-musl.a(tolower.o)
 .xc_stack_usage
                0x00000000       0x2e c:/program files/microchip/xc32/v4.35/bin/bin/../../lib/gcc/pic32c/8.3.1/../../../../pic32c/lib/thumb/v6-m/nofp\libc-musl.a(tolower.o)
 .text.__tolower_l
                0x00000000        0x8 c:/program files/microchip/xc32/v4.35/bin/bin/../../lib/gcc/pic32c/8.3.1/../../../../pic32c/lib/thumb/v6-m/nofp\libc-musl.a(tolower.o)
 .xc_stack_usage.hdr
                0x00000000        0xe c:/program files/microchip/xc32/v4.35/bin/bin/../../lib/gcc/pic32c/8.3.1/../../../../pic32c/lib/thumb/v6-m/nofp\libc-musl.a(tolower.o)
 .text          0x00000000        0x0 c:/program files/microchip/xc32/v4.35/bin/bin/../../lib/gcc/pic32c/8.3.1/../../../../pic32c/lib/thumb/v6-m/nofp\libc-musl.a(__fmt_a.o)
 .data          0x00000000        0x0 c:/program files/microchip/xc32/v4.35/bin/bin/../../lib/gcc/pic32c/8.3.1/../../../../pic32c/lib/thumb/v6-m/nofp\libc-musl.a(__fmt_a.o)
 .bss           0x00000000        0x0 c:/program files/microchip/xc32/v4.35/bin/bin/../../lib/gcc/pic32c/8.3.1/../../../../pic32c/lib/thumb/v6-m/nofp\libc-musl.a(__fmt_a.o)
 .xc_stack_usage
                0x00000000       0x15 c:/program files/microchip/xc32/v4.35/bin/bin/../../lib/gcc/pic32c/8.3.1/../../../../pic32c/lib/thumb/v6-m/nofp\libc-musl.a(__fmt_a.o)
 .xc_stack_usage.hdr
                0x00000000        0xe c:/program files/microchip/xc32/v4.35/bin/bin/../../lib/gcc/pic32c/8.3.1/../../../../pic32c/lib/thumb/v6-m/nofp\libc-musl.a(__fmt_a.o)
 .text          0x00000000        0x0 c:/program files/microchip/xc32/v4.35/bin/bin/../../lib/gcc/pic32c/8.3.1/../../../../pic32c/lib/thumb/v6-m/nofp\libc-musl.a(__fmt_d.o)
 .data          0x00000000        0x0 c:/program files/microchip/xc32/v4.35/bin/bin/../../lib/gcc/pic32c/8.3.1/../../../../pic32c/lib/thumb/v6-m/nofp\libc-musl.a(__fmt_d.o)
 .bss           0x00000000        0x0 c:/program files/microchip/xc32/v4.35/bin/bin/../../lib/gcc/pic32c/8.3.1/../../../../pic32c/lib/thumb/v6-m/nofp\libc-musl.a(__fmt_d.o)
 .xc_stack_usage
                0x00000000       0x15 c:/program files/microchip/xc32/v4.35/bin/bin/../../lib/gcc/pic32c/8.3.1/../../../../pic32c/lib/thumb/v6-m/nofp\libc-musl.a(__fmt_d.o)
 .xc_stack_usage.hdr
                0x00000000        0xe c:/program files/microchip/xc32/v4.35/bin/bin/../../lib/gcc/pic32c/8.3.1/../../../../pic32c/lib/thumb/v6-m/nofp\libc-musl.a(__fmt_d.o)
 .text          0x00000000        0x0 c:/program files/microchip/xc32/v4.35/bin/bin/../../lib/gcc/pic32c/8.3.1/../../../../pic32c/lib/thumb/v6-m/nofp\libc-musl.a(__fmt_fp.o)
 .data          0x00000000        0x0 c:/program files/microchip/xc32/v4.35/bin/bin/../../lib/gcc/pic32c/8.3.1/../../../../pic32c/lib/thumb/v6-m/nofp\libc-musl.a(__fmt_fp.o)
 .bss           0x00000000        0x0 c:/program files/microchip/xc32/v4.35/bin/bin/../../lib/gcc/pic32c/8.3.1/../../../../pic32c/lib/thumb/v6-m/nofp\libc-musl.a(__fmt_fp.o)
 .xc_stack_usage
                0x00000000       0x16 c:/program files/microchip/xc32/v4.35/bin/bin/../../lib/gcc/pic32c/8.3.1/../../../../pic32c/lib/thumb/v6-m/nofp\libc-musl.a(__fmt_fp.o)
 .xc_stack_usage.hdr
                0x00000000        0xe c:/program files/microchip/xc32/v4.35/bin/bin/../../lib/gcc/pic32c/8.3.1/../../../../pic32c/lib/thumb/v6-m/nofp\libc-musl.a(__fmt_fp.o)
 .text          0x00000000        0x0 c:/program files/microchip/xc32/v4.35/bin/bin/../../lib/gcc/pic32c/8.3.1/../../../../pic32c/lib/thumb/v6-m/nofp\libc-musl.a(__fmt_o.o)
 .data          0x00000000        0x0 c:/program files/microchip/xc32/v4.35/bin/bin/../../lib/gcc/pic32c/8.3.1/../../../../pic32c/lib/thumb/v6-m/nofp\libc-musl.a(__fmt_o.o)
 .bss           0x00000000        0x0 c:/program files/microchip/xc32/v4.35/bin/bin/../../lib/gcc/pic32c/8.3.1/../../../../pic32c/lib/thumb/v6-m/nofp\libc-musl.a(__fmt_o.o)
 .xc_stack_usage
                0x00000000       0x15 c:/program files/microchip/xc32/v4.35/bin/bin/../../lib/gcc/pic32c/8.3.1/../../../../pic32c/lib/thumb/v6-m/nofp\libc-musl.a(__fmt_o.o)
 .xc_stack_usage.hdr
                0x00000000        0xe c:/program files/microchip/xc32/v4.35/bin/bin/../../lib/gcc/pic32c/8.3.1/../../../../pic32c/lib/thumb/v6-m/nofp\libc-musl.a(__fmt_o.o)
 .text          0x00000000        0x0 c:/program files/microchip/xc32/v4.35/bin/bin/../../lib/gcc/pic32c/8.3.1/../../../../pic32c/lib/thumb/v6-m/nofp\libc-musl.a(__fmt_s.o)
 .data          0x00000000        0x0 c:/program files/microchip/xc32/v4.35/bin/bin/../../lib/gcc/pic32c/8.3.1/../../../../pic32c/lib/thumb/v6-m/nofp\libc-musl.a(__fmt_s.o)
 .bss           0x00000000        0x0 c:/program files/microchip/xc32/v4.35/bin/bin/../../lib/gcc/pic32c/8.3.1/../../../../pic32c/lib/thumb/v6-m/nofp\libc-musl.a(__fmt_s.o)
 .xc_stack_usage
                0x00000000       0x15 c:/program files/microchip/xc32/v4.35/bin/bin/../../lib/gcc/pic32c/8.3.1/../../../../pic32c/lib/thumb/v6-m/nofp\libc-musl.a(__fmt_s.o)
 .xc_stack_usage.hdr
                0x00000000        0xe c:/program files/microchip/xc32/v4.35/bin/bin/../../lib/gcc/pic32c/8.3.1/../../../../pic32c/lib/thumb/v6-m/nofp\libc-musl.a(__fmt_s.o)
 .text          0x00000000        0x0 c:/program files/microchip/xc32/v4.35/bin/bin/../../lib/gcc/pic32c/8.3.1/../../../../pic32c/lib/thumb/v6-m/nofp\libc-musl.a(__fmt_u.o)
 .data          0x00000000        0x0 c:/program files/microchip/xc32/v4.35/bin/bin/../../lib/gcc/pic32c/8.3.1/../../../../pic32c/lib/thumb/v6-m/nofp\libc-musl.a(__fmt_u.o)
 .bss           0x00000000        0x0 c:/program files/microchip/xc32/v4.35/bin/bin/../../lib/gcc/pic32c/8.3.1/../../../../pic32c/lib/thumb/v6-m/nofp\libc-musl.a(__fmt_u.o)
 .xc_stack_usage
                0x00000000       0x15 c:/program files/microchip/xc32/v4.35/bin/bin/../../lib/gcc/pic32c/8.3.1/../../../../pic32c/lib/thumb/v6-m/nofp\libc-musl.a(__fmt_u.o)
 .xc_stack_usage.hdr
                0x00000000        0xe c:/program files/microchip/xc32/v4.35/bin/bin/../../lib/gcc/pic32c/8.3.1/../../../../pic32c/lib/thumb/v6-m/nofp\libc-musl.a(__fmt_u.o)
 .text          0x00000000        0x0 c:/program files/microchip/xc32/v4.35/bin/bin/../../lib/gcc/pic32c/8.3.1/../../../../pic32c/lib/thumb/v6-m/nofp\libc-musl.a(__fmt_x.o)
 .data          0x00000000        0x0 c:/program files/microchip/xc32/v4.35/bin/bin/../../lib/gcc/pic32c/8.3.1/../../../../pic32c/lib/thumb/v6-m/nofp\libc-musl.a(__fmt_x.o)
 .bss           0x00000000        0x0 c:/program files/microchip/xc32/v4.35/bin/bin/../../lib/gcc/pic32c/8.3.1/../../../../pic32c/lib/thumb/v6-m/nofp\libc-musl.a(__fmt_x.o)
 .xc_stack_usage
                0x00000000       0x15 c:/program files/microchip/xc32/v4.35/bin/bin/../../lib/gcc/pic32c/8.3.1/../../../../pic32c/lib/thumb/v6-m/nofp\libc-musl.a(__fmt_x.o)
 .xc_stack_usage.hdr
                0x00000000        0xe c:/program files/microchip/xc32/v4.35/bin/bin/../../lib/gcc/pic32c/8.3.1/../../../../pic32c/lib/thumb/v6-m/nofp\libc-musl.a(__fmt_x.o)
 .text          0x00000000        0x0 c:/program files/microchip/xc32/v4.35/bin/bin/../../lib/gcc/pic32c/8.3.1/../../../../pic32c/lib/thumb/v6-m/nofp\libc-musl.a(strcpy.o)
 .data          0x00000000        0x0 c:/program files/microchip/xc32/v4.35/bin/bin/../../lib/gcc/pic32c/8.3.1/../../../../pic32c/lib/thumb/v6-m/nofp\libc-musl.a(strcpy.o)
 .bss           0x00000000        0x0 c:/program files/microchip/xc32/v4.35/bin/bin/../../lib/gcc/pic32c/8.3.1/../../../../pic32c/lib/thumb/v6-m/nofp\libc-musl.a(strcpy.o)
 .xc_stack_usage
                0x00000000       0x14 c:/program files/microchip/xc32/v4.35/bin/bin/../../lib/gcc/pic32c/8.3.1/../../../../pic32c/lib/thumb/v6-m/nofp\libc-musl.a(strcpy.o)
 .xc_stack_usage.hdr
                0x00000000        0xe c:/program files/microchip/xc32/v4.35/bin/bin/../../lib/gcc/pic32c/8.3.1/../../../../pic32c/lib/thumb/v6-m/nofp\libc-musl.a(strcpy.o)
 .text          0x00000000        0x0 c:/program files/microchip/xc32/v4.35/bin/bin/../../lib/gcc/pic32c/8.3.1/../../../../pic32c/lib/thumb/v6-m/nofp\libc-musl.a(toupper.o)
 .data          0x00000000        0x0 c:/program files/microchip/xc32/v4.35/bin/bin/../../lib/gcc/pic32c/8.3.1/../../../../pic32c/lib/thumb/v6-m/nofp\libc-musl.a(toupper.o)
 .bss           0x00000000        0x0 c:/program files/microchip/xc32/v4.35/bin/bin/../../lib/gcc/pic32c/8.3.1/../../../../pic32c/lib/thumb/v6-m/nofp\libc-musl.a(toupper.o)
 .xc_stack_usage
                0x00000000       0x2e c:/program files/microchip/xc32/v4.35/bin/bin/../../lib/gcc/pic32c/8.3.1/../../../../pic32c/lib/thumb/v6-m/nofp\libc-musl.a(toupper.o)
 .text.__toupper_l
                0x00000000        0x8 c:/program files/microchip/xc32/v4.35/bin/bin/../../lib/gcc/pic32c/8.3.1/../../../../pic32c/lib/thumb/v6-m/nofp\libc-musl.a(toupper.o)
 .xc_stack_usage.hdr
                0x00000000        0xe c:/program files/microchip/xc32/v4.35/bin/bin/../../lib/gcc/pic32c/8.3.1/../../../../pic32c/lib/thumb/v6-m/nofp\libc-musl.a(toupper.o)
 .text          0x00000000        0x0 c:/program files/microchip/xc32/v4.35/bin/bin/../../lib/gcc/pic32c/8.3.1/../../../../pic32c/lib/thumb/v6-m/nofp\libc-musl.a(__cvt_u.o)
 .data          0x00000000        0x0 c:/program files/microchip/xc32/v4.35/bin/bin/../../lib/gcc/pic32c/8.3.1/../../../../pic32c/lib/thumb/v6-m/nofp\libc-musl.a(__cvt_u.o)
 .bss           0x00000000        0x0 c:/program files/microchip/xc32/v4.35/bin/bin/../../lib/gcc/pic32c/8.3.1/../../../../pic32c/lib/thumb/v6-m/nofp\libc-musl.a(__cvt_u.o)
 .xc_stack_usage
                0x00000000       0x15 c:/program files/microchip/xc32/v4.35/bin/bin/../../lib/gcc/pic32c/8.3.1/../../../../pic32c/lib/thumb/v6-m/nofp\libc-musl.a(__cvt_u.o)
 .xc_stack_usage.hdr
                0x00000000        0xe c:/program files/microchip/xc32/v4.35/bin/bin/../../lib/gcc/pic32c/8.3.1/../../../../pic32c/lib/thumb/v6-m/nofp\libc-musl.a(__cvt_u.o)
 .text          0x00000000        0x0 c:/program files/microchip/xc32/v4.35/bin/bin/../../lib/gcc/pic32c/8.3.1/../../../../pic32c/lib/thumb/v6-m/nofp\libc-musl.a(stpcpy.o)
 .data          0x00000000        0x0 c:/program files/microchip/xc32/v4.35/bin/bin/../../lib/gcc/pic32c/8.3.1/../../../../pic32c/lib/thumb/v6-m/nofp\libc-musl.a(stpcpy.o)
 .bss           0x00000000        0x0 c:/program files/microchip/xc32/v4.35/bin/bin/../../lib/gcc/pic32c/8.3.1/../../../../pic32c/lib/thumb/v6-m/nofp\libc-musl.a(stpcpy.o)
 .xc_stack_usage
                0x00000000       0x14 c:/program files/microchip/xc32/v4.35/bin/bin/../../lib/gcc/pic32c/8.3.1/../../../../pic32c/lib/thumb/v6-m/nofp\libc-musl.a(stpcpy.o)
 .xc_stack_usage.hdr
                0x00000000        0xe c:/program files/microchip/xc32/v4.35/bin/bin/../../lib/gcc/pic32c/8.3.1/../../../../pic32c/lib/thumb/v6-m/nofp\libc-musl.a(stpcpy.o)
 .xc_stack_usage.hdr
                0x00000000        0xe c:/program files/microchip/xc32/v4.35/bin/bin/../../lib/gcc/pic32c/8.3.1/../../../../pic32c/lib/thumb/v6-m/nofp\libm-fast-emfloat.a(fma.o)
 .xc_stack_usage
                0x00000000       0x11 c:/program files/microchip/xc32/v4.35/bin/bin/../../lib/gcc/pic32c/8.3.1/../../../../pic32c/lib/thumb/v6-m/nofp\libm-fast-emfloat.a(fma.o)
 .xc_stack_usage.hdr
                0x00000000        0xe c:/program files/microchip/xc32/v4.35/bin/bin/../../lib/gcc/pic32c/8.3.1/../../../../pic32c/lib/thumb/v6-m/nofp\libm-fast-emfloat.a(floor.o)
 .xc_stack_usage
                0x00000000       0x13 c:/program files/microchip/xc32/v4.35/bin/bin/../../lib/gcc/pic32c/8.3.1/../../../../pic32c/lib/thumb/v6-m/nofp\libm-fast-emfloat.a(floor.o)
 .xc_stack_usage.hdr
                0x00000000        0xe c:/program files/microchip/xc32/v4.35/bin/bin/../../lib/gcc/pic32c/8.3.1/../../../../pic32c/lib/thumb/v6-m/nofp\libm-fast-emfloat.a(__aeabi_dsub.o)
 .xc_stack_usage
                0x00000000       0x1a c:/program files/microchip/xc32/v4.35/bin/bin/../../lib/gcc/pic32c/8.3.1/../../../../pic32c/lib/thumb/v6-m/nofp\libm-fast-emfloat.a(__aeabi_dsub.o)
 .xc_stack_usage.hdr
                0x00000000        0xe c:/program files/microchip/xc32/v4.35/bin/bin/../../lib/gcc/pic32c/8.3.1/../../../../pic32c/lib/thumb/v6-m/nofp\libm-fast-emfloat.a(__aeabi_ddiv.o)
 .xc_stack_usage
                0x00000000       0x1a c:/program files/microchip/xc32/v4.35/bin/bin/../../lib/gcc/pic32c/8.3.1/../../../../pic32c/lib/thumb/v6-m/nofp\libm-fast-emfloat.a(__aeabi_ddiv.o)
 .xc_stack_usage.hdr
                0x00000000        0xe c:/program files/microchip/xc32/v4.35/bin/bin/../../lib/gcc/pic32c/8.3.1/../../../../pic32c/lib/thumb/v6-m/nofp\libm-fast-emfloat.a(__aeabi_dcmple.o)
 .xc_stack_usage
                0x00000000       0x1c c:/program files/microchip/xc32/v4.35/bin/bin/../../lib/gcc/pic32c/8.3.1/../../../../pic32c/lib/thumb/v6-m/nofp\libm-fast-emfloat.a(__aeabi_dcmple.o)
 .xc_stack_usage.hdr
                0x00000000        0xe c:/program files/microchip/xc32/v4.35/bin/bin/../../lib/gcc/pic32c/8.3.1/../../../../pic32c/lib/thumb/v6-m/nofp\libm-fast-emfloat.a(__aeabi_dcmpeq.o)
 .xc_stack_usage
                0x00000000       0x1c c:/program files/microchip/xc32/v4.35/bin/bin/../../lib/gcc/pic32c/8.3.1/../../../../pic32c/lib/thumb/v6-m/nofp\libm-fast-emfloat.a(__aeabi_dcmpeq.o)
 .xc_stack_usage.hdr
                0x00000000        0xe c:/program files/microchip/xc32/v4.35/bin/bin/../../lib/gcc/pic32c/8.3.1/../../../../pic32c/lib/thumb/v6-m/nofp\libm-fast-emfloat.a(__aeabi_dcmpgt.o)
 .xc_stack_usage
                0x00000000       0x1c c:/program files/microchip/xc32/v4.35/bin/bin/../../lib/gcc/pic32c/8.3.1/../../../../pic32c/lib/thumb/v6-m/nofp\libm-fast-emfloat.a(__aeabi_dcmpgt.o)
 .xc_stack_usage.hdr
                0x00000000        0xe c:/program files/microchip/xc32/v4.35/bin/bin/../../lib/gcc/pic32c/8.3.1/../../../../pic32c/lib/thumb/v6-m/nofp\libm-fast-emfloat.a(__aeabi_dcmplt.o)
 .xc_stack_usage
                0x00000000       0x1c c:/program files/microchip/xc32/v4.35/bin/bin/../../lib/gcc/pic32c/8.3.1/../../../../pic32c/lib/thumb/v6-m/nofp\libm-fast-emfloat.a(__aeabi_dcmplt.o)
 .xc_stack_usage.hdr
                0x00000000        0xe c:/program files/microchip/xc32/v4.35/bin/bin/../../lib/gcc/pic32c/8.3.1/../../../../pic32c/lib/thumb/v6-m/nofp\libm-fast-emfloat.a(__aeabi_d2iz.o)
 .xc_stack_usage
                0x00000000       0x1a c:/program files/microchip/xc32/v4.35/bin/bin/../../lib/gcc/pic32c/8.3.1/../../../../pic32c/lib/thumb/v6-m/nofp\libm-fast-emfloat.a(__aeabi_d2iz.o)
 .xc_stack_usage.hdr
                0x00000000        0xe c:/program files/microchip/xc32/v4.35/bin/bin/../../lib/gcc/pic32c/8.3.1/../../../../pic32c/lib/thumb/v6-m/nofp\libm-fast-emfloat.a(__aeabi_d2uiz.o)
 .xc_stack_usage
                0x00000000       0x43 c:/program files/microchip/xc32/v4.35/bin/bin/../../lib/gcc/pic32c/8.3.1/../../../../pic32c/lib/thumb/v6-m/nofp\libm-fast-emfloat.a(__aeabi_d2uiz.o)
 .data          0x00000000        0x0 c:/program files/microchip/xc32/v4.35/bin/bin/../../lib/gcc/pic32c/8.3.1/thumb/v6-m/nofp\libgcc.a(_udivsi3.o)
 .bss           0x00000000        0x0 c:/program files/microchip/xc32/v4.35/bin/bin/../../lib/gcc/pic32c/8.3.1/thumb/v6-m/nofp\libgcc.a(_udivsi3.o)
 .xc_stack_usage.hdr
                0x00000000        0xe c:/program files/microchip/xc32/v4.35/bin/bin/../../lib/gcc/pic32c/8.3.1/thumb/v6-m/nofp\libgcc.a(_udivsi3.o)
 .xc_stack_usage
                0x00000000       0x35 c:/program files/microchip/xc32/v4.35/bin/bin/../../lib/gcc/pic32c/8.3.1/thumb/v6-m/nofp\libgcc.a(_udivsi3.o)
 .data          0x00000000        0x0 c:/program files/microchip/xc32/v4.35/bin/bin/../../lib/gcc/pic32c/8.3.1/thumb/v6-m/nofp\libgcc.a(_divsi3.o)
 .bss           0x00000000        0x0 c:/program files/microchip/xc32/v4.35/bin/bin/../../lib/gcc/pic32c/8.3.1/thumb/v6-m/nofp\libgcc.a(_divsi3.o)
 .xc_stack_usage.hdr
                0x00000000        0xe c:/program files/microchip/xc32/v4.35/bin/bin/../../lib/gcc/pic32c/8.3.1/thumb/v6-m/nofp\libgcc.a(_divsi3.o)
 .xc_stack_usage
                0x00000000       0x33 c:/program files/microchip/xc32/v4.35/bin/bin/../../lib/gcc/pic32c/8.3.1/thumb/v6-m/nofp\libgcc.a(_divsi3.o)
 .data          0x00000000        0x0 c:/program files/microchip/xc32/v4.35/bin/bin/../../lib/gcc/pic32c/8.3.1/thumb/v6-m/nofp\libgcc.a(_dvmd_tls.o)
 .bss           0x00000000        0x0 c:/program files/microchip/xc32/v4.35/bin/bin/../../lib/gcc/pic32c/8.3.1/thumb/v6-m/nofp\libgcc.a(_dvmd_tls.o)
 .xc_stack_usage.hdr
                0x00000000        0xe c:/program files/microchip/xc32/v4.35/bin/bin/../../lib/gcc/pic32c/8.3.1/thumb/v6-m/nofp\libgcc.a(_dvmd_tls.o)
 .xc_stack_usage
                0x00000000       0x36 c:/program files/microchip/xc32/v4.35/bin/bin/../../lib/gcc/pic32c/8.3.1/thumb/v6-m/nofp\libgcc.a(_dvmd_tls.o)
 .data          0x00000000        0x0 c:/program files/microchip/xc32/v4.35/bin/bin/../../lib/gcc/pic32c/8.3.1/thumb/v6-m/nofp\libgcc.a(_aeabi_uldivmod.o)
 .bss           0x00000000        0x0 c:/program files/microchip/xc32/v4.35/bin/bin/../../lib/gcc/pic32c/8.3.1/thumb/v6-m/nofp\libgcc.a(_aeabi_uldivmod.o)
 .xc_stack_usage.hdr
                0x00000000        0xe c:/program files/microchip/xc32/v4.35/bin/bin/../../lib/gcc/pic32c/8.3.1/thumb/v6-m/nofp\libgcc.a(_aeabi_uldivmod.o)
 .xc_stack_usage
                0x00000000       0x1e c:/program files/microchip/xc32/v4.35/bin/bin/../../lib/gcc/pic32c/8.3.1/thumb/v6-m/nofp\libgcc.a(_aeabi_uldivmod.o)
 .data          0x00000000        0x0 c:/program files/microchip/xc32/v4.35/bin/bin/../../lib/gcc/pic32c/8.3.1/thumb/v6-m/nofp\libgcc.a(_muldi3.o)
 .bss           0x00000000        0x0 c:/program files/microchip/xc32/v4.35/bin/bin/../../lib/gcc/pic32c/8.3.1/thumb/v6-m/nofp\libgcc.a(_muldi3.o)
 .xc_stack_usage
                0x00000000       0x16 c:/program files/microchip/xc32/v4.35/bin/bin/../../lib/gcc/pic32c/8.3.1/thumb/v6-m/nofp\libgcc.a(_muldi3.o)
 .xc_stack_usage.hdr
                0x00000000        0xe c:/program files/microchip/xc32/v4.35/bin/bin/../../lib/gcc/pic32c/8.3.1/thumb/v6-m/nofp\libgcc.a(_muldi3.o)
 .data          0x00000000        0x0 c:/program files/microchip/xc32/v4.35/bin/bin/../../lib/gcc/pic32c/8.3.1/thumb/v6-m/nofp\libgcc.a(_udivmoddi4.o)
 .bss           0x00000000        0x0 c:/program files/microchip/xc32/v4.35/bin/bin/../../lib/gcc/pic32c/8.3.1/thumb/v6-m/nofp\libgcc.a(_udivmoddi4.o)
 .xc_stack_usage
                0x00000000       0x1a c:/program files/microchip/xc32/v4.35/bin/bin/../../lib/gcc/pic32c/8.3.1/thumb/v6-m/nofp\libgcc.a(_udivmoddi4.o)
 .ARM.extab     0x00000000        0x0 c:/program files/microchip/xc32/v4.35/bin/bin/../../lib/gcc/pic32c/8.3.1/thumb/v6-m/nofp\libgcc.a(_udivmoddi4.o)
 .xc_stack_usage.hdr
                0x00000000        0xe c:/program files/microchip/xc32/v4.35/bin/bin/../../lib/gcc/pic32c/8.3.1/thumb/v6-m/nofp\libgcc.a(_udivmoddi4.o)
 .data          0x00000000        0x0 c:/program files/microchip/xc32/v4.35/bin/bin/../../lib/gcc/pic32c/8.3.1/thumb/v6-m/nofp\libgcc.a(_lshrdi3.o)
 .bss           0x00000000        0x0 c:/program files/microchip/xc32/v4.35/bin/bin/../../lib/gcc/pic32c/8.3.1/thumb/v6-m/nofp\libgcc.a(_lshrdi3.o)
 .xc_stack_usage.hdr
                0x00000000        0xe c:/program files/microchip/xc32/v4.35/bin/bin/../../lib/gcc/pic32c/8.3.1/thumb/v6-m/nofp\libgcc.a(_lshrdi3.o)
 .xc_stack_usage
                0x00000000       0x17 c:/program files/microchip/xc32/v4.35/bin/bin/../../lib/gcc/pic32c/8.3.1/thumb/v6-m/nofp\libgcc.a(_lshrdi3.o)
 .data          0x00000000        0x0 c:/program files/microchip/xc32/v4.35/bin/bin/../../lib/gcc/pic32c/8.3.1/thumb/v6-m/nofp\libgcc.a(_ashldi3.o)
 .bss           0x00000000        0x0 c:/program files/microchip/xc32/v4.35/bin/bin/../../lib/gcc/pic32c/8.3.1/thumb/v6-m/nofp\libgcc.a(_ashldi3.o)
 .xc_stack_usage.hdr
                0x00000000        0xe c:/program files/microchip/xc32/v4.35/bin/bin/../../lib/gcc/pic32c/8.3.1/thumb/v6-m/nofp\libgcc.a(_ashldi3.o)
 .xc_stack_usage
                0x00000000       0x17 c:/program files/microchip/xc32/v4.35/bin/bin/../../lib/gcc/pic32c/8.3.1/thumb/v6-m/nofp\libgcc.a(_ashldi3.o)
 .data          0x00000000        0x0 c:/program files/microchip/xc32/v4.35/bin/bin/../../lib/gcc/pic32c/8.3.1/thumb/v6-m/nofp\libgcc.a(_clzdi2.o)
 .bss           0x00000000        0x0 c:/program files/microchip/xc32/v4.35/bin/bin/../../lib/gcc/pic32c/8.3.1/thumb/v6-m/nofp\libgcc.a(_clzdi2.o)
 .xc_stack_usage.hdr
                0x00000000        0xe c:/program files/microchip/xc32/v4.35/bin/bin/../../lib/gcc/pic32c/8.3.1/thumb/v6-m/nofp\libgcc.a(_clzdi2.o)
 .xc_stack_usage
                0x00000000       0x16 c:/program files/microchip/xc32/v4.35/bin/bin/../../lib/gcc/pic32c/8.3.1/thumb/v6-m/nofp\libgcc.a(_clzdi2.o)
 .data          0x00000000        0x0 c:/program files/microchip/xc32/v4.35/bin/bin/../../lib/gcc/pic32c/8.3.1/thumb/v6-m/nofp\libgcc.a(_clzsi2.o)
 .bss           0x00000000        0x0 c:/program files/microchip/xc32/v4.35/bin/bin/../../lib/gcc/pic32c/8.3.1/thumb/v6-m/nofp\libgcc.a(_clzsi2.o)
 .xc_stack_usage.hdr
                0x00000000        0xe c:/program files/microchip/xc32/v4.35/bin/bin/../../lib/gcc/pic32c/8.3.1/thumb/v6-m/nofp\libgcc.a(_clzsi2.o)
 .xc_stack_usage
                0x00000000       0x16 c:/program files/microchip/xc32/v4.35/bin/bin/../../lib/gcc/pic32c/8.3.1/thumb/v6-m/nofp\libgcc.a(_clzsi2.o)
 .text          0x00000000        0x0 c:/program files/microchip/xc32/v4.35/bin/bin/../../lib/gcc/pic32c/8.3.1/thumb/v6-m/nofp/crtend.o
 .data          0x00000000        0x0 c:/program files/microchip/xc32/v4.35/bin/bin/../../lib/gcc/pic32c/8.3.1/thumb/v6-m/nofp/crtend.o
 .bss           0x00000000        0x0 c:/program files/microchip/xc32/v4.35/bin/bin/../../lib/gcc/pic32c/8.3.1/thumb/v6-m/nofp/crtend.o
 .eh_frame      0x00000000        0x4 c:/program files/microchip/xc32/v4.35/bin/bin/../../lib/gcc/pic32c/8.3.1/thumb/v6-m/nofp/crtend.o
 .xc_stack_usage.hdr
                0x00000000        0xe c:/program files/microchip/xc32/v4.35/bin/bin/../../lib/gcc/pic32c/8.3.1/thumb/v6-m/nofp/crtend.o
 .comment       0x00000000       0x2c c:/program files/microchip/xc32/v4.35/bin/bin/../../lib/gcc/pic32c/8.3.1/thumb/v6-m/nofp/crtend.o
 .ARM.attributes
                0x00000000       0x2c c:/program files/microchip/xc32/v4.35/bin/bin/../../lib/gcc/pic32c/8.3.1/thumb/v6-m/nofp/crtend.o
 .text          0x00000000        0x0 c:/program files/microchip/xc32/v4.35/bin/bin/../../lib/gcc/pic32c/8.3.1/thumb/v6-m/nofp/crtn.o
 .data          0x00000000        0x0 c:/program files/microchip/xc32/v4.35/bin/bin/../../lib/gcc/pic32c/8.3.1/thumb/v6-m/nofp/crtn.o
 .bss           0x00000000        0x0 c:/program files/microchip/xc32/v4.35/bin/bin/../../lib/gcc/pic32c/8.3.1/thumb/v6-m/nofp/crtn.o
 .xc_stack_usage.hdr
                0x00000000        0xe c:/program files/microchip/xc32/v4.35/bin/bin/../../lib/gcc/pic32c/8.3.1/thumb/v6-m/nofp/crtn.o
 .text          0x00000000        0x0 c:/program files/microchip/xc32/v4.35/bin/bin/../../lib/gcc/pic32c/8.3.1/../../../../pic32c/lib/thumb/v6-m/nofp\libpic32c.a(pic32_data_init_clear.o)
 .data          0x00000000        0x0 c:/program files/microchip/xc32/v4.35/bin/bin/../../lib/gcc/pic32c/8.3.1/../../../../pic32c/lib/thumb/v6-m/nofp\libpic32c.a(pic32_data_init_clear.o)
 .bss           0x00000000        0x0 c:/program files/microchip/xc32/v4.35/bin/bin/../../lib/gcc/pic32c/8.3.1/../../../../pic32c/lib/thumb/v6-m/nofp\libpic32c.a(pic32_data_init_clear.o)
 .xc_stack_usage
                0x00000000       0x1b c:/program files/microchip/xc32/v4.35/bin/bin/../../lib/gcc/pic32c/8.3.1/../../../../pic32c/lib/thumb/v6-m/nofp\libpic32c.a(pic32_data_init_clear.o)
 .xc_stack_usage.hdr
                0x00000000        0xe c:/program files/microchip/xc32/v4.35/bin/bin/../../lib/gcc/pic32c/8.3.1/../../../../pic32c/lib/thumb/v6-m/nofp\libpic32c.a(pic32_data_init_clear.o)
 .text          0x00000000        0x0 c:/program files/microchip/xc32/v4.35/bin/bin/../../lib/gcc/pic32c/8.3.1/../../../../pic32c/lib/thumb/v6-m/nofp\libpic32c.a(pic32_data_init_copy.o)
 .data          0x00000000        0x0 c:/program files/microchip/xc32/v4.35/bin/bin/../../lib/gcc/pic32c/8.3.1/../../../../pic32c/lib/thumb/v6-m/nofp\libpic32c.a(pic32_data_init_copy.o)
 .bss           0x00000000        0x0 c:/program files/microchip/xc32/v4.35/bin/bin/../../lib/gcc/pic32c/8.3.1/../../../../pic32c/lib/thumb/v6-m/nofp\libpic32c.a(pic32_data_init_copy.o)
 .xc_stack_usage
                0x00000000       0x1a c:/program files/microchip/xc32/v4.35/bin/bin/../../lib/gcc/pic32c/8.3.1/../../../../pic32c/lib/thumb/v6-m/nofp\libpic32c.a(pic32_data_init_copy.o)
 .xc_stack_usage.hdr
                0x00000000        0xe c:/program files/microchip/xc32/v4.35/bin/bin/../../lib/gcc/pic32c/8.3.1/../../../../pic32c/lib/thumb/v6-m/nofp\libpic32c.a(pic32_data_init_copy.o)

Memory Configuration

Name             Origin             Length             Attributes
rom              0x00000000         0x00040000         xrl
ram              0x20000000         0x00008000         xw !r
config_01004000  0x01004000         0x00000004
config_01004004  0x01004004         0x00000004
*default*        0x00000000         0xffffffff

Linker script and memory map

LOAD c:/program files/microchip/xc32/v4.35/bin/bin/../../lib/gcc/pic32c/8.3.1/thumb/v6-m/nofp/crti.o
LOAD c:/program files/microchip/xc32/v4.35/bin/bin/../../lib/gcc/pic32c/8.3.1/thumb/v6-m/nofp/crtbegin.o
LOAD build/default/production/_ext/1171490990/exceptions.o
LOAD build/default/production/_ext/1655452824/mac_task.o
LOAD build/default/production/_ext/1655452824/mac_process_beacon_frame.o
LOAD build/default/production/_ext/1171490990/freertos_hooks.o
LOAD build/default/production/_ext/1655452824/usr_mcps_purge_conf.o
LOAD build/default/production/_ext/1865468468/plib_nvic.o
LOAD build/default/production/_ext/1655452824/mac_sync.o
LOAD build/default/production/_ext/559172130/phy_init.o
LOAD build/default/production/_ext/60167341/plib_eic.o
LOAD build/default/production/_ext/1655452824/mac_data_req.o
LOAD build/default/production/_ext/404212886/FreeRTOS_tasks.o
LOAD build/default/production/_ext/1171490990/interrupts.o
LOAD build/default/production/_ext/1655452824/usr_mlme_get_conf.o
LOAD build/default/production/_ext/1655452824/usr_mlme_set_conf.o
LOAD build/default/production/_ext/1655452824/mac_dispatcher.o
LOAD build/default/production/_ext/829342655/plib_tc3.o
LOAD build/default/production/_ext/1655452824/mac_security.o
LOAD build/default/production/_ext/1655452824/mac_data_extract_mhr.o
LOAD build/default/production/_ext/1881668453/sys_int.o
LOAD build/default/production/_ext/559172130/phy_rx_enable.o
LOAD build/default/production/_ext/1655452824/usr_mlme_beacon_notify_ind.o
LOAD build/default/production/_ext/1655452824/usr_mlme_sync_loss_ind.o
LOAD build/default/production/_ext/163028504/xc32_monitor.o
LOAD build/default/production/_ext/1529399856/osal_freertos_extend.o
LOAD build/default/production/_ext/101884895/sys_time.o
LOAD build/default/production/_ext/1655452824/usr_mlme_comm_status_ind.o
LOAD build/default/production/_ext/1171490990/libc_syscalls.o
LOAD build/default/production/_ext/957911548/phy_tx_frame_done_cb.o
LOAD build/default/production/_ext/1865521619/plib_port.o
LOAD build/default/production/_ext/559172130/phy_pwr_mgmt.o
LOAD build/default/production/_ext/1655452824/mac_tx_coord_realignment_command.o
LOAD build/default/production/_ext/559172130/phy_tx.o
LOAD build/default/production/_ext/17022449/plib_sercom4_spi_master.o
LOAD build/default/production/_ext/1655452824/mac_associate.o
LOAD build/default/production/_ext/1655452824/mac_pib.o
LOAD build/default/production/_ext/1171490990/startup_xc32.o
LOAD build/default/production/_ext/1655452824/usr_mlme_rx_enable_conf.o
LOAD build/default/production/_ext/1655452824/mac_beacon.o
LOAD build/default/production/_ext/1832805299/sys_console.o
LOAD build/default/production/_ext/1360937237/app.o
LOAD build/default/production/_ext/559172130/tfa.o
LOAD build/default/production/_ext/1655452824/mac_rx_enable.o
LOAD build/default/production/_ext/1655452824/mac.o
LOAD build/default/production/_ext/1360937237/main.o
LOAD build/default/production/_ext/1984496892/plib_clock.o
LOAD build/default/production/_ext/957911548/phy_task.o
LOAD build/default/production/_ext/1529399856/osal_freertos.o
LOAD build/default/production/_ext/559172130/phy_pib.o
LOAD build/default/production/_ext/1655452824/mac_disassociate.o
LOAD build/default/production/_ext/1655452824/mac_orphan.o
LOAD build/default/production/_ext/1832805299/sys_console_uart.o
LOAD build/default/production/_ext/1593096446/plib_nvmctrl.o
LOAD build/default/production/_ext/1655452824/usr_mlme_start_conf.o
LOAD build/default/production/_ext/1655452824/usr_mlme_disassociate_ind.o
LOAD build/default/production/_ext/559172130/phy.o
LOAD build/default/production/_ext/1655452824/mac_process_phy_tx_frame_status.o
LOAD build/default/production/_ext/1171490990/initialization.o
LOAD build/default/production/_ext/1171490990/tasks.o
LOAD build/default/production/_ext/1374435801/bmm.o
LOAD build/default/production/_ext/1986646378/plib_evsys.o
LOAD build/default/production/_ext/1655452824/mac_callback_wrapper.o
LOAD build/default/production/_ext/957911548/phy_rx_frame_cb.o
LOAD build/default/production/_ext/1655452824/mac_api.o
LOAD build/default/production/_ext/1655452824/mac_misc.o
LOAD build/default/production/_ext/1655452824/usr_mlme_disassociate_conf.o
LOAD build/default/production/_ext/1655452824/usr_mcps_data_conf.o
LOAD build/default/production/_ext/1655452824/usr_mlme_associate_ind.o
LOAD build/default/production/_ext/559172130/phy_helper.o
LOAD build/default/production/_ext/504274921/plib_sercom0_usart.o
LOAD build/default/production/_ext/559172130/phy_irq_handler.o
LOAD build/default/production/_ext/1360937237/app_idle_task.o
LOAD build/default/production/_ext/1655452824/mac_mcps_data.o
LOAD build/default/production/_ext/1655452824/usr_mlme_poll_conf.o
LOAD build/default/production/_ext/404212886/timers.o
LOAD build/default/production/_ext/404212886/queue.o
LOAD build/default/production/_ext/1655452824/mac_data_ind.o
LOAD build/default/production/_ext/404212886/event_groups.o
LOAD build/default/production/_ext/1655452824/usr_mlme_reset_conf.o
LOAD build/default/production/_ext/1655452824/mac_scan.o
LOAD build/default/production/_ext/559172130/phy_trx_reg_access.o
LOAD build/default/production/_ext/1655452824/usr_mlme_associate_conf.o
LOAD build/default/production/_ext/1624415188/port.o
LOAD build/default/production/_ext/1655452824/mac_poll.o
LOAD build/default/production/_ext/559172130/phy_ed.o
LOAD build/default/production/_ext/404212886/croutine.o
LOAD build/default/production/_ext/1655452824/usr_mcps_data_ind.o
LOAD build/default/production/_ext/404212886/list.o
LOAD build/default/production/_ext/745501718/pal.o
LOAD build/default/production/_ext/404212886/stream_buffer.o
LOAD build/default/production/_ext/1655452824/mac_start.o
LOAD build/default/production/_ext/1655452824/usr_mlme_scan_conf.o
LOAD build/default/production/_ext/1655452824/usr_mlme_orphan_ind.o
LOAD build/default/production/_ext/874725666/qmm.o
LOAD build/default/production/_ext/559172130/phy_rx.o
LOAD build/default/production/_ext/957911548/phy_ed_end_cb.o
LOAD build/default/production/_ext/1665200909/heap_4.o
LOAD build/default/production/_ext/85628700/demo_app_ffd.o
LOAD build/default/production/_ext/85628700/demo_app_security.o
LOAD build/default/production/_ext/85628700/usr_mac_callbacks.o
                0x00000001                __MPLAB_BUILD = 0x1
                0x00040000                __rom_end = (ORIGIN (rom) + LENGTH (rom))
                0x20008000                __ram_end = (ORIGIN (ram) + LENGTH (ram))

.config_01004000
 *(.config_01004000)

.config_01004004
 *(.config_01004004)

.vectors        0x00000000       0xac
                0x00000000                . = ALIGN (0x4)
                0x00000000                _sfixed = .
 *(.vectors .vectors.* .vectors_default .vectors_default.*)
 .vectors.exception_table
                0x00000000       0xac build/default/production/_ext/1171490990/interrupts.o
                0x00000000                exception_table
 *(.isr_vector)
 *(.reset*)
 *(.after_vectors)

.text           0x000000ac       0x20
                0x000000ac                . = ALIGN (0x4)
 *(.glue_7t)
 .glue_7t       0x000000ac        0x0 linker stubs
 *(.glue_7)
 .glue_7        0x000000ac        0x0 linker stubs
 *(.gnu.linkonce.r.*)
 *(.ARM.extab* .gnu.linkonce.armextab.*)
                0x000000ac                . = ALIGN (0x4)
 *(.init)
 .init          0x000000ac        0x4 c:/program files/microchip/xc32/v4.35/bin/bin/../../lib/gcc/pic32c/8.3.1/thumb/v6-m/nofp/crti.o
                0x000000ac                _init
 .init          0x000000b0        0x8 c:/program files/microchip/xc32/v4.35/bin/bin/../../lib/gcc/pic32c/8.3.1/thumb/v6-m/nofp/crtn.o
                0x000000b8                . = ALIGN (0x4)
                0x000000b8                __preinit_array_start = .
 *(.preinit_array)
                0x000000b8                __preinit_array_end = .
                0x000000b8                . = ALIGN (0x4)
                0x000000b8                __init_array_start = .
 *(SORT_BY_NAME(.init_array.*))
 *(.init_array)
 .init_array    0x000000b8        0x4 c:/program files/microchip/xc32/v4.35/bin/bin/../../lib/gcc/pic32c/8.3.1/thumb/v6-m/nofp/crtbegin.o
                0x000000bc                __init_array_end = .
                0x000000bc                . = ALIGN (0x4)
 *crtbegin.o(.ctors)
 *(EXCLUDE_FILE(*crtend.o) .ctors)
 *(SORT_BY_NAME(.ctors.*))
 *crtend.o(.ctors)
                0x000000bc                . = ALIGN (0x4)
 *(.fini)
 .fini          0x000000bc        0x4 c:/program files/microchip/xc32/v4.35/bin/bin/../../lib/gcc/pic32c/8.3.1/thumb/v6-m/nofp/crti.o
                0x000000bc                _fini
 .fini          0x000000c0        0x8 c:/program files/microchip/xc32/v4.35/bin/bin/../../lib/gcc/pic32c/8.3.1/thumb/v6-m/nofp/crtn.o
                0x000000c8                . = ALIGN (0x4)
                0x000000c8                __fini_array_start = .
 *(.fini_array)
 .fini_array    0x000000c8        0x4 c:/program files/microchip/xc32/v4.35/bin/bin/../../lib/gcc/pic32c/8.3.1/thumb/v6-m/nofp/crtbegin.o
 *(SORT_BY_NAME(.fini_array.*))
                0x000000cc                __fini_array_end = .
 *crtbegin.o(.dtors)
 *(EXCLUDE_FILE(*crtend.o) .dtors)
 *(SORT_BY_NAME(.dtors.*))
 *crtend.o(.dtors)
                0x000000cc                . = ALIGN (0x4)
                0x000000cc                _efixed = .
                [!provide]                PROVIDE (__exidx_start = .)

.ARM.exidx      0x000000cc        0x8
 *(.ARM.exidx* .gnu.linkonce.armexidx.*)
 .ARM.exidx     0x000000cc        0x8 c:/program files/microchip/xc32/v4.35/bin/bin/../../lib/gcc/pic32c/8.3.1/thumb/v6-m/nofp\libgcc.a(_udivmoddi4.o)
                [!provide]                PROVIDE (__exidx_end = .)
                0x000000d4                . = ALIGN (0x4)
                0x000000d4                _etext = .

.bss            0x20000000        0x0
                0x20000000                . = ALIGN (0x4)
                0x20000000                __bss_start__ = .
                0x20000000                _sbss = .
                0x20000000                _szero = .
 *(COMMON)
                0x20000000                . = ALIGN (0x4)
                0x20000000                __bss_end__ = .
                0x20000000                _ebss = .
                0x20000000                _ezero = .
                0x20000000                . = ALIGN (0x4)
                0x20000000                _end = .
                0x20007fff                _ram_end_ = ((ORIGIN (ram) + LENGTH (ram)) - 0x1)
                0x00000200                _min_heap_size = 0x200
START GROUP
LOAD c:/program files/microchip/xc32/v4.35/bin/bin/../../lib/gcc/pic32c/8.3.1/../../../../pic32c/lib/thumb/v6-m/nofp\libpic32c.a
LOAD c:/program files/microchip/xc32/v4.35/bin/bin/../../lib/gcc/pic32c/8.3.1/../../../../pic32c/lib/thumb/v6-m/nofp\libm-fast-emfloat.a
LOAD c:/program files/microchip/xc32/v4.35/bin/bin/../../lib/gcc/pic32c/8.3.1/../../../../pic32c/lib/thumb/v6-m/nofp\libc-musl.a
LOAD c:/program files/microchip/xc32/v4.35/bin/bin/../../lib/gcc/pic32c/8.3.1/../../../../pic32c/lib/thumb/v6-m/nofp\libm-fast-emfloat.a
LOAD c:/program files/microchip/xc32/v4.35/bin/bin/../../lib/gcc/pic32c/8.3.1/thumb/v6-m/nofp\libgcc.a
END GROUP
LOAD c:/program files/microchip/xc32/v4.35/bin/bin/../../lib/gcc/pic32c/8.3.1/thumb/v6-m/nofp/crtend.o
LOAD c:/program files/microchip/xc32/v4.35/bin/bin/../../lib/gcc/pic32c/8.3.1/thumb/v6-m/nofp/crtn.o
OUTPUT(dist/default/production/Project.X.production.elf elf32-littlearm)
LOAD data_init
LOAD stack

.ARM.attributes
                0x00000000       0x2a
 .ARM.attributes
                0x00000000       0x1e c:/program files/microchip/xc32/v4.35/bin/bin/../../lib/gcc/pic32c/8.3.1/thumb/v6-m/nofp/crti.o
 .ARM.attributes
                0x0000001e       0x2c c:/program files/microchip/xc32/v4.35/bin/bin/../../lib/gcc/pic32c/8.3.1/thumb/v6-m/nofp/crtbegin.o
 .ARM.attributes
                0x0000004a       0x2c build/default/production/_ext/1171490990/exceptions.o
 .ARM.attributes
                0x00000076       0x2c build/default/production/_ext/1655452824/mac_task.o
 .ARM.attributes
                0x000000a2       0x2c build/default/production/_ext/1655452824/mac_process_beacon_frame.o
 .ARM.attributes
                0x000000ce       0x2c build/default/production/_ext/1171490990/freertos_hooks.o
 .ARM.attributes
                0x000000fa       0x2c build/default/production/_ext/1865468468/plib_nvic.o
 .ARM.attributes
                0x00000126       0x2c build/default/production/_ext/1655452824/mac_sync.o
 .ARM.attributes
                0x00000152       0x2c build/default/production/_ext/559172130/phy_init.o
 .ARM.attributes
                0x0000017e       0x2c build/default/production/_ext/60167341/plib_eic.o
 .ARM.attributes
                0x000001aa       0x2c build/default/production/_ext/1655452824/mac_data_req.o
 .ARM.attributes
                0x000001d6       0x2c build/default/production/_ext/404212886/FreeRTOS_tasks.o
 .ARM.attributes
                0x00000202       0x2c build/default/production/_ext/1171490990/interrupts.o
 .ARM.attributes
                0x0000022e       0x2c build/default/production/_ext/1655452824/mac_dispatcher.o
 .ARM.attributes
                0x0000025a       0x2c build/default/production/_ext/829342655/plib_tc3.o
 .ARM.attributes
                0x00000286       0x2c build/default/production/_ext/1655452824/mac_data_extract_mhr.o
 .ARM.attributes
                0x000002b2       0x2c build/default/production/_ext/1881668453/sys_int.o
 .ARM.attributes
                0x000002de       0x2c build/default/production/_ext/559172130/phy_rx_enable.o
 .ARM.attributes
                0x0000030a       0x2c build/default/production/_ext/1655452824/usr_mlme_sync_loss_ind.o
 .ARM.attributes
                0x00000336       0x2c build/default/production/_ext/1529399856/osal_freertos_extend.o
 .ARM.attributes
                0x00000362       0x2c build/default/production/_ext/101884895/sys_time.o
 .ARM.attributes
                0x0000038e       0x2c build/default/production/_ext/1865521619/plib_port.o
 .ARM.attributes
                0x000003ba       0x2c build/default/production/_ext/559172130/phy_pwr_mgmt.o
 .ARM.attributes
                0x000003e6       0x2c build/default/production/_ext/1655452824/mac_tx_coord_realignment_command.o
 .ARM.attributes
                0x00000412       0x2c build/default/production/_ext/559172130/phy_tx.o
 .ARM.attributes
                0x0000043e       0x2c build/default/production/_ext/17022449/plib_sercom4_spi_master.o
 .ARM.attributes
                0x0000046a       0x2c build/default/production/_ext/1655452824/mac_associate.o
 .ARM.attributes
                0x00000496       0x2c build/default/production/_ext/1655452824/mac_pib.o
 .ARM.attributes
                0x000004c2       0x2c build/default/production/_ext/1171490990/startup_xc32.o
 .ARM.attributes
                0x000004ee       0x2c build/default/production/_ext/1655452824/mac_beacon.o
 .ARM.attributes
                0x0000051a       0x2c build/default/production/_ext/1832805299/sys_console.o
 .ARM.attributes
                0x00000546       0x2c build/default/production/_ext/1360937237/app.o
 .ARM.attributes
                0x00000572       0x2c build/default/production/_ext/1655452824/mac_rx_enable.o
 .ARM.attributes
                0x0000059e       0x2c build/default/production/_ext/1655452824/mac.o
 .ARM.attributes
                0x000005ca       0x2c build/default/production/_ext/1360937237/main.o
 .ARM.attributes
                0x000005f6       0x2c build/default/production/_ext/1984496892/plib_clock.o
 .ARM.attributes
                0x00000622       0x2c build/default/production/_ext/957911548/phy_task.o
 .ARM.attributes
                0x0000064e       0x2c build/default/production/_ext/1529399856/osal_freertos.o
 .ARM.attributes
                0x0000067a       0x2c build/default/production/_ext/559172130/phy_pib.o
 .ARM.attributes
                0x000006a6       0x2c build/default/production/_ext/1655452824/mac_disassociate.o
 .ARM.attributes
                0x000006d2       0x2c build/default/production/_ext/1655452824/mac_orphan.o
 .ARM.attributes
                0x000006fe       0x2c build/default/production/_ext/1832805299/sys_console_uart.o
 .ARM.attributes
                0x0000072a       0x2c build/default/production/_ext/1593096446/plib_nvmctrl.o
 .ARM.attributes
                0x00000756       0x2c build/default/production/_ext/559172130/phy.o
 .ARM.attributes
                0x00000782       0x2c build/default/production/_ext/1655452824/mac_process_phy_tx_frame_status.o
 .ARM.attributes
                0x000007ae       0x2c build/default/production/_ext/1171490990/initialization.o
 .ARM.attributes
                0x000007da       0x2c build/default/production/_ext/1171490990/tasks.o
 .ARM.attributes
                0x00000806       0x2c build/default/production/_ext/1374435801/bmm.o
 .ARM.attributes
                0x00000832       0x2c build/default/production/_ext/1655452824/mac_callback_wrapper.o
 .ARM.attributes
                0x0000085e       0x2c build/default/production/_ext/1655452824/mac_api.o
 .ARM.attributes
                0x0000088a       0x2c build/default/production/_ext/1655452824/mac_misc.o
 .ARM.attributes
                0x000008b6       0x2c build/default/production/_ext/559172130/phy_helper.o
 .ARM.attributes
                0x000008e2       0x2c build/default/production/_ext/504274921/plib_sercom0_usart.o
 .ARM.attributes
                0x0000090e       0x2c build/default/production/_ext/559172130/phy_irq_handler.o
 .ARM.attributes
                0x0000093a       0x2c build/default/production/_ext/1655452824/mac_mcps_data.o
 .ARM.attributes
                0x00000966       0x2c build/default/production/_ext/404212886/timers.o
 .ARM.attributes
                0x00000992       0x2c build/default/production/_ext/404212886/queue.o
 .ARM.attributes
                0x000009be       0x2c build/default/production/_ext/1655452824/mac_data_ind.o
 .ARM.attributes
                0x000009ea       0x2c build/default/production/_ext/1655452824/mac_scan.o
 .ARM.attributes
                0x00000a16       0x2c build/default/production/_ext/559172130/phy_trx_reg_access.o
 .ARM.attributes
                0x00000a42       0x2c build/default/production/_ext/1624415188/port.o
 .ARM.attributes
                0x00000a6e       0x2c build/default/production/_ext/1655452824/mac_poll.o
 .ARM.attributes
                0x00000a9a       0x2c build/default/production/_ext/559172130/phy_ed.o
 .ARM.attributes
                0x00000ac6       0x2c build/default/production/_ext/404212886/list.o
 .ARM.attributes
                0x00000af2       0x2c build/default/production/_ext/745501718/pal.o
 .ARM.attributes
                0x00000b1e       0x2c build/default/production/_ext/1655452824/mac_start.o
 .ARM.attributes
                0x00000b4a       0x2c build/default/production/_ext/874725666/qmm.o
 .ARM.attributes
                0x00000b76       0x2c build/default/production/_ext/559172130/phy_rx.o
 .ARM.attributes
                0x00000ba2       0x2c build/default/production/_ext/1665200909/heap_4.o
 .ARM.attributes
                0x00000bce       0x2c build/default/production/_ext/85628700/demo_app_ffd.o
 .ARM.attributes
                0x00000bfa       0x2c build/default/production/_ext/85628700/usr_mac_callbacks.o
 .ARM.attributes
                0x00000c26       0x2c c:/program files/microchip/xc32/v4.35/bin/bin/../../lib/gcc/pic32c/8.3.1/../../../../pic32c/lib/thumb/v6-m/nofp\libpic32c.a(data_init.o)
 .ARM.attributes
                0x00000c52       0x1c c:/program files/microchip/xc32/v4.35/bin/bin/../../lib/gcc/pic32c/8.3.1/../../../../pic32c/lib/thumb/v6-m/nofp\libm-fast-emfloat.a(__aeabi_dadd.o)
 .ARM.attributes
                0x00000c6e       0x1c c:/program files/microchip/xc32/v4.35/bin/bin/../../lib/gcc/pic32c/8.3.1/../../../../pic32c/lib/thumb/v6-m/nofp\libm-fast-emfloat.a(__aeabi_dmul_aux.o)
 .ARM.attributes
                0x00000c8a       0x2e c:/program files/microchip/xc32/v4.35/bin/bin/../../lib/gcc/pic32c/8.3.1/../../../../pic32c/lib/thumb/v6-m/nofp\libc-musl.a(__libc_start_main.o)
 .ARM.attributes
                0x00000cb8       0x2e c:/program files/microchip/xc32/v4.35/bin/bin/../../lib/gcc/pic32c/8.3.1/../../../../pic32c/lib/thumb/v6-m/nofp\libc-musl.a(libc.o)
 .ARM.attributes
                0x00000ce6       0x2e c:/program files/microchip/xc32/v4.35/bin/bin/../../lib/gcc/pic32c/8.3.1/../../../../pic32c/lib/thumb/v6-m/nofp\libc-musl.a(rand.o)
 .ARM.attributes
                0x00000d14       0x2e c:/program files/microchip/xc32/v4.35/bin/bin/../../lib/gcc/pic32c/8.3.1/../../../../pic32c/lib/thumb/v6-m/nofp\libc-musl.a(vsnprintf.o)
 .ARM.attributes
                0x00000d42       0x2e c:/program files/microchip/xc32/v4.35/bin/bin/../../lib/gcc/pic32c/8.3.1/../../../../pic32c/lib/thumb/v6-m/nofp\libc-musl.a(memcpy.o)
 .ARM.attributes
                0x00000d70       0x2e c:/program files/microchip/xc32/v4.35/bin/bin/../../lib/gcc/pic32c/8.3.1/../../../../pic32c/lib/thumb/v6-m/nofp\libc-musl.a(memset.o)
 .ARM.attributes
                0x00000d9e       0x2e c:/program files/microchip/xc32/v4.35/bin/bin/../../lib/gcc/pic32c/8.3.1/../../../../pic32c/lib/thumb/v6-m/nofp\libc-musl.a(strlen.o)
 .ARM.attributes
                0x00000dcc       0x2e c:/program files/microchip/xc32/v4.35/bin/bin/../../lib/gcc/pic32c/8.3.1/../../../../pic32c/lib/thumb/v6-m/nofp\libc-musl.a(__environ.o)
 .ARM.attributes
                0x00000dfa       0x2e c:/program files/microchip/xc32/v4.35/bin/bin/../../lib/gcc/pic32c/8.3.1/../../../../pic32c/lib/thumb/v6-m/nofp\libc-musl.a(__errno_location.o)
 .ARM.attributes
                0x00000e28       0x2e c:/program files/microchip/xc32/v4.35/bin/bin/../../lib/gcc/pic32c/8.3.1/../../../../pic32c/lib/thumb/v6-m/nofp\libc-musl.a(vfprintf.o)
 .ARM.attributes
                0x00000e56       0x2e c:/program files/microchip/xc32/v4.35/bin/bin/../../lib/gcc/pic32c/8.3.1/../../../../pic32c/lib/thumb/v6-m/nofp\libc-musl.a(__pop_float.o)
 .ARM.attributes
                0x00000e84       0x2e c:/program files/microchip/xc32/v4.35/bin/bin/../../lib/gcc/pic32c/8.3.1/../../../../pic32c/lib/thumb/v6-m/nofp\libc-musl.a(__pop_int.o)
 .ARM.attributes
                0x00000eb2       0x2e c:/program files/microchip/xc32/v4.35/bin/bin/../../lib/gcc/pic32c/8.3.1/../../../../pic32c/lib/thumb/v6-m/nofp\libc-musl.a(__pop_ptr.o)
 .ARM.attributes
                0x00000ee0       0x2e c:/program files/microchip/xc32/v4.35/bin/bin/../../lib/gcc/pic32c/8.3.1/../../../../pic32c/lib/thumb/v6-m/nofp\libc-musl.a(__printf_core.o)
 .ARM.attributes
                0x00000f0e       0x2e c:/program files/microchip/xc32/v4.35/bin/bin/../../lib/gcc/pic32c/8.3.1/../../../../pic32c/lib/thumb/v6-m/nofp\libc-musl.a(atoi.o)
 .ARM.attributes
                0x00000f3c       0x2e c:/program files/microchip/xc32/v4.35/bin/bin/../../lib/gcc/pic32c/8.3.1/../../../../pic32c/lib/thumb/v6-m/nofp\libc-musl.a(tolower.o)
 .ARM.attributes
                0x00000f6a       0x2e c:/program files/microchip/xc32/v4.35/bin/bin/../../lib/gcc/pic32c/8.3.1/../../../../pic32c/lib/thumb/v6-m/nofp\libc-musl.a(__fmt_a.o)
 .ARM.attributes
                0x00000f98       0x2e c:/program files/microchip/xc32/v4.35/bin/bin/../../lib/gcc/pic32c/8.3.1/../../../../pic32c/lib/thumb/v6-m/nofp\libc-musl.a(__fmt_d.o)
 .ARM.attributes
                0x00000fc6       0x2e c:/program files/microchip/xc32/v4.35/bin/bin/../../lib/gcc/pic32c/8.3.1/../../../../pic32c/lib/thumb/v6-m/nofp\libc-musl.a(__fmt_fp.o)
 .ARM.attributes
                0x00000ff4       0x2e c:/program files/microchip/xc32/v4.35/bin/bin/../../lib/gcc/pic32c/8.3.1/../../../../pic32c/lib/thumb/v6-m/nofp\libc-musl.a(__fmt_o.o)
 .ARM.attributes
                0x00001022       0x2e c:/program files/microchip/xc32/v4.35/bin/bin/../../lib/gcc/pic32c/8.3.1/../../../../pic32c/lib/thumb/v6-m/nofp\libc-musl.a(__fmt_s.o)
 .ARM.attributes
                0x00001050       0x2e c:/program files/microchip/xc32/v4.35/bin/bin/../../lib/gcc/pic32c/8.3.1/../../../../pic32c/lib/thumb/v6-m/nofp\libc-musl.a(__fmt_u.o)
 .ARM.attributes
                0x0000107e       0x2e c:/program files/microchip/xc32/v4.35/bin/bin/../../lib/gcc/pic32c/8.3.1/../../../../pic32c/lib/thumb/v6-m/nofp\libc-musl.a(__fmt_x.o)
 .ARM.attributes
                0x000010ac       0x2e c:/program files/microchip/xc32/v4.35/bin/bin/../../lib/gcc/pic32c/8.3.1/../../../../pic32c/lib/thumb/v6-m/nofp\libc-musl.a(strcpy.o)
 .ARM.attributes
                0x000010da       0x2e c:/program files/microchip/xc32/v4.35/bin/bin/../../lib/gcc/pic32c/8.3.1/../../../../pic32c/lib/thumb/v6-m/nofp\libc-musl.a(toupper.o)
 .ARM.attributes
                0x00001108       0x2e c:/program files/microchip/xc32/v4.35/bin/bin/../../lib/gcc/pic32c/8.3.1/../../../../pic32c/lib/thumb/v6-m/nofp\libc-musl.a(__cvt_u.o)
 .ARM.attributes
                0x00001136       0x2e c:/program files/microchip/xc32/v4.35/bin/bin/../../lib/gcc/pic32c/8.3.1/../../../../pic32c/lib/thumb/v6-m/nofp\libc-musl.a(stpcpy.o)
 .ARM.attributes
                0x00001164       0x2c c:/program files/microchip/xc32/v4.35/bin/bin/../../lib/gcc/pic32c/8.3.1/../../../../pic32c/lib/thumb/v6-m/nofp\libm-fast-emfloat.a(fma.o)
 .ARM.attributes
                0x00001190       0x2c c:/program files/microchip/xc32/v4.35/bin/bin/../../lib/gcc/pic32c/8.3.1/../../../../pic32c/lib/thumb/v6-m/nofp\libm-fast-emfloat.a(floor.o)
 .ARM.attributes
                0x000011bc       0x1c c:/program files/microchip/xc32/v4.35/bin/bin/../../lib/gcc/pic32c/8.3.1/../../../../pic32c/lib/thumb/v6-m/nofp\libm-fast-emfloat.a(__aeabi_dsub.o)
 .ARM.attributes
                0x000011d8       0x1c c:/program files/microchip/xc32/v4.35/bin/bin/../../lib/gcc/pic32c/8.3.1/../../../../pic32c/lib/thumb/v6-m/nofp\libm-fast-emfloat.a(__aeabi_ddiv.o)
 .ARM.attributes
                0x000011f4       0x1c c:/program files/microchip/xc32/v4.35/bin/bin/../../lib/gcc/pic32c/8.3.1/../../../../pic32c/lib/thumb/v6-m/nofp\libm-fast-emfloat.a(__aeabi_dcmple.o)
 .ARM.attributes
                0x00001210       0x1c c:/program files/microchip/xc32/v4.35/bin/bin/../../lib/gcc/pic32c/8.3.1/../../../../pic32c/lib/thumb/v6-m/nofp\libm-fast-emfloat.a(__aeabi_dcmpeq.o)
 .ARM.attributes
                0x0000122c       0x1c c:/program files/microchip/xc32/v4.35/bin/bin/../../lib/gcc/pic32c/8.3.1/../../../../pic32c/lib/thumb/v6-m/nofp\libm-fast-emfloat.a(__aeabi_dcmpgt.o)
 .ARM.attributes
                0x00001248       0x1c c:/program files/microchip/xc32/v4.35/bin/bin/../../lib/gcc/pic32c/8.3.1/../../../../pic32c/lib/thumb/v6-m/nofp\libm-fast-emfloat.a(__aeabi_dcmplt.o)
 .ARM.attributes
                0x00001264       0x1c c:/program files/microchip/xc32/v4.35/bin/bin/../../lib/gcc/pic32c/8.3.1/../../../../pic32c/lib/thumb/v6-m/nofp\libm-fast-emfloat.a(__aeabi_d2iz.o)
 .ARM.attributes
                0x00001280       0x1c c:/program files/microchip/xc32/v4.35/bin/bin/../../lib/gcc/pic32c/8.3.1/../../../../pic32c/lib/thumb/v6-m/nofp\libm-fast-emfloat.a(__aeabi_d2uiz.o)
 .ARM.attributes
                0x0000129c       0x1e c:/program files/microchip/xc32/v4.35/bin/bin/../../lib/gcc/pic32c/8.3.1/thumb/v6-m/nofp\libgcc.a(_udivsi3.o)
 .ARM.attributes
                0x000012ba       0x1e c:/program files/microchip/xc32/v4.35/bin/bin/../../lib/gcc/pic32c/8.3.1/thumb/v6-m/nofp\libgcc.a(_divsi3.o)
 .ARM.attributes
                0x000012d8       0x1e c:/program files/microchip/xc32/v4.35/bin/bin/../../lib/gcc/pic32c/8.3.1/thumb/v6-m/nofp\libgcc.a(_dvmd_tls.o)
 .ARM.attributes
                0x000012f6       0x1e c:/program files/microchip/xc32/v4.35/bin/bin/../../lib/gcc/pic32c/8.3.1/thumb/v6-m/nofp\libgcc.a(_aeabi_uldivmod.o)
 .ARM.attributes
                0x00001314       0x2c c:/program files/microchip/xc32/v4.35/bin/bin/../../lib/gcc/pic32c/8.3.1/thumb/v6-m/nofp\libgcc.a(_muldi3.o)
 .ARM.attributes
                0x00001340       0x2c c:/program files/microchip/xc32/v4.35/bin/bin/../../lib/gcc/pic32c/8.3.1/thumb/v6-m/nofp\libgcc.a(_udivmoddi4.o)
 .ARM.attributes
                0x0000136c       0x1e c:/program files/microchip/xc32/v4.35/bin/bin/../../lib/gcc/pic32c/8.3.1/thumb/v6-m/nofp\libgcc.a(_lshrdi3.o)
 .ARM.attributes
                0x0000138a       0x1e c:/program files/microchip/xc32/v4.35/bin/bin/../../lib/gcc/pic32c/8.3.1/thumb/v6-m/nofp\libgcc.a(_ashldi3.o)
 .ARM.attributes
                0x000013a8       0x1e c:/program files/microchip/xc32/v4.35/bin/bin/../../lib/gcc/pic32c/8.3.1/thumb/v6-m/nofp\libgcc.a(_clzdi2.o)
 .ARM.attributes
                0x000013c6       0x1e c:/program files/microchip/xc32/v4.35/bin/bin/../../lib/gcc/pic32c/8.3.1/thumb/v6-m/nofp\libgcc.a(_clzsi2.o)
 .ARM.attributes
                0x000013e4       0x1e c:/program files/microchip/xc32/v4.35/bin/bin/../../lib/gcc/pic32c/8.3.1/thumb/v6-m/nofp/crtn.o
 .ARM.attributes
                0x00001402       0x2c c:/program files/microchip/xc32/v4.35/bin/bin/../../lib/gcc/pic32c/8.3.1/../../../../pic32c/lib/thumb/v6-m/nofp\libpic32c.a(pic32_data_init_clear.o)
 .ARM.attributes
                0x0000142e       0x2c c:/program files/microchip/xc32/v4.35/bin/bin/../../lib/gcc/pic32c/8.3.1/../../../../pic32c/lib/thumb/v6-m/nofp\libpic32c.a(pic32_data_init_copy.o)

.comment        0x00000000       0x2b
 .comment       0x00000000       0x2b c:/program files/microchip/xc32/v4.35/bin/bin/../../lib/gcc/pic32c/8.3.1/thumb/v6-m/nofp/crtbegin.o
                                 0x2c (size before relaxing)
 .comment       0x0000002b       0x2c build/default/production/_ext/1171490990/exceptions.o
 .comment       0x0000002b       0x2c build/default/production/_ext/1655452824/mac_task.o
 .comment       0x0000002b       0x2c build/default/production/_ext/1655452824/mac_process_beacon_frame.o
 .comment       0x0000002b       0x2c build/default/production/_ext/1171490990/freertos_hooks.o
 .comment       0x0000002b       0x2c build/default/production/_ext/1865468468/plib_nvic.o
 .comment       0x0000002b       0x2c build/default/production/_ext/1655452824/mac_sync.o
 .comment       0x0000002b       0x2c build/default/production/_ext/559172130/phy_init.o
 .comment       0x0000002b       0x2c build/default/production/_ext/60167341/plib_eic.o
 .comment       0x0000002b       0x2c build/default/production/_ext/1655452824/mac_data_req.o
 .comment       0x0000002b       0x2c build/default/production/_ext/404212886/FreeRTOS_tasks.o
 .comment       0x0000002b       0x2c build/default/production/_ext/1171490990/interrupts.o
 .comment       0x0000002b       0x2c build/default/production/_ext/1655452824/mac_dispatcher.o
 .comment       0x0000002b       0x2c build/default/production/_ext/829342655/plib_tc3.o
 .comment       0x0000002b       0x2c build/default/production/_ext/1655452824/mac_data_extract_mhr.o
 .comment       0x0000002b       0x2c build/default/production/_ext/1881668453/sys_int.o
 .comment       0x0000002b       0x2c build/default/production/_ext/559172130/phy_rx_enable.o
 .comment       0x0000002b       0x2c build/default/production/_ext/1655452824/usr_mlme_sync_loss_ind.o
 .comment       0x0000002b       0x2c build/default/production/_ext/1529399856/osal_freertos_extend.o
 .comment       0x0000002b       0x2c build/default/production/_ext/101884895/sys_time.o
 .comment       0x0000002b       0x2c build/default/production/_ext/1865521619/plib_port.o
 .comment       0x0000002b       0x2c build/default/production/_ext/559172130/phy_pwr_mgmt.o
 .comment       0x0000002b       0x2c build/default/production/_ext/1655452824/mac_tx_coord_realignment_command.o
 .comment       0x0000002b       0x2c build/default/production/_ext/559172130/phy_tx.o
 .comment       0x0000002b       0x2c build/default/production/_ext/17022449/plib_sercom4_spi_master.o
 .comment       0x0000002b       0x2c build/default/production/_ext/1655452824/mac_associate.o
 .comment       0x0000002b       0x2c build/default/production/_ext/1655452824/mac_pib.o
 .comment       0x0000002b       0x2c build/default/production/_ext/1171490990/startup_xc32.o
 .comment       0x0000002b       0x2c build/default/production/_ext/1655452824/mac_beacon.o
 .comment       0x0000002b       0x2c build/default/production/_ext/1832805299/sys_console.o
 .comment       0x0000002b       0x2c build/default/production/_ext/1360937237/app.o
 .comment       0x0000002b       0x2c build/default/production/_ext/1655452824/mac_rx_enable.o
 .comment       0x0000002b       0x2c build/default/production/_ext/1655452824/mac.o
 .comment       0x0000002b       0x2c build/default/production/_ext/1360937237/main.o
 .comment       0x0000002b       0x2c build/default/production/_ext/1984496892/plib_clock.o
 .comment       0x0000002b       0x2c build/default/production/_ext/957911548/phy_task.o
 .comment       0x0000002b       0x2c build/default/production/_ext/1529399856/osal_freertos.o
 .comment       0x0000002b       0x2c build/default/production/_ext/559172130/phy_pib.o
 .comment       0x0000002b       0x2c build/default/production/_ext/1655452824/mac_disassociate.o
 .comment       0x0000002b       0x2c build/default/production/_ext/1655452824/mac_orphan.o
 .comment       0x0000002b       0x2c build/default/production/_ext/1832805299/sys_console_uart.o
 .comment       0x0000002b       0x2c build/default/production/_ext/1593096446/plib_nvmctrl.o
 .comment       0x0000002b       0x2c build/default/production/_ext/559172130/phy.o
 .comment       0x0000002b       0x2c build/default/production/_ext/1655452824/mac_process_phy_tx_frame_status.o
 .comment       0x0000002b       0x2c build/default/production/_ext/1171490990/initialization.o
 .comment       0x0000002b       0x2c build/default/production/_ext/1171490990/tasks.o
 .comment       0x0000002b       0x2c build/default/production/_ext/1374435801/bmm.o
 .comment       0x0000002b       0x2c build/default/production/_ext/1655452824/mac_callback_wrapper.o
 .comment       0x0000002b       0x2c build/default/production/_ext/1655452824/mac_api.o
 .comment       0x0000002b       0x2c build/default/production/_ext/1655452824/mac_misc.o
 .comment       0x0000002b       0x2c build/default/production/_ext/559172130/phy_helper.o
 .comment       0x0000002b       0x2c build/default/production/_ext/504274921/plib_sercom0_usart.o
 .comment       0x0000002b       0x2c build/default/production/_ext/559172130/phy_irq_handler.o
 .comment       0x0000002b       0x2c build/default/production/_ext/1655452824/mac_mcps_data.o
 .comment       0x0000002b       0x2c build/default/production/_ext/404212886/timers.o
 .comment       0x0000002b       0x2c build/default/production/_ext/404212886/queue.o
 .comment       0x0000002b       0x2c build/default/production/_ext/1655452824/mac_data_ind.o
 .comment       0x0000002b       0x2c build/default/production/_ext/1655452824/mac_scan.o
 .comment       0x0000002b       0x2c build/default/production/_ext/559172130/phy_trx_reg_access.o
 .comment       0x0000002b       0x2c build/default/production/_ext/1624415188/port.o
 .comment       0x0000002b       0x2c build/default/production/_ext/1655452824/mac_poll.o
 .comment       0x0000002b       0x2c build/default/production/_ext/559172130/phy_ed.o
 .comment       0x0000002b       0x2c build/default/production/_ext/404212886/list.o
 .comment       0x0000002b       0x2c build/default/production/_ext/745501718/pal.o
 .comment       0x0000002b       0x2c build/default/production/_ext/1655452824/mac_start.o
 .comment       0x0000002b       0x2c build/default/production/_ext/874725666/qmm.o
 .comment       0x0000002b       0x2c build/default/production/_ext/559172130/phy_rx.o
 .comment       0x0000002b       0x2c build/default/production/_ext/1665200909/heap_4.o
 .comment       0x0000002b       0x2c build/default/production/_ext/85628700/demo_app_ffd.o
 .comment       0x0000002b       0x2c build/default/production/_ext/85628700/usr_mac_callbacks.o
 .comment       0x0000002b       0x2c c:/program files/microchip/xc32/v4.35/bin/bin/../../lib/gcc/pic32c/8.3.1/../../../../pic32c/lib/thumb/v6-m/nofp\libpic32c.a(data_init.o)
 .comment       0x0000002b       0x2c c:/program files/microchip/xc32/v4.35/bin/bin/../../lib/gcc/pic32c/8.3.1/../../../../pic32c/lib/thumb/v6-m/nofp\libc-musl.a(__libc_start_main.o)
 .comment       0x0000002b       0x2c c:/program files/microchip/xc32/v4.35/bin/bin/../../lib/gcc/pic32c/8.3.1/../../../../pic32c/lib/thumb/v6-m/nofp\libc-musl.a(libc.o)
 .comment       0x0000002b       0x2c c:/program files/microchip/xc32/v4.35/bin/bin/../../lib/gcc/pic32c/8.3.1/../../../../pic32c/lib/thumb/v6-m/nofp\libc-musl.a(rand.o)
 .comment       0x0000002b       0x2c c:/program files/microchip/xc32/v4.35/bin/bin/../../lib/gcc/pic32c/8.3.1/../../../../pic32c/lib/thumb/v6-m/nofp\libc-musl.a(vsnprintf.o)
 .comment       0x0000002b       0x2c c:/program files/microchip/xc32/v4.35/bin/bin/../../lib/gcc/pic32c/8.3.1/../../../../pic32c/lib/thumb/v6-m/nofp\libc-musl.a(memcpy.o)
 .comment       0x0000002b       0x2c c:/program files/microchip/xc32/v4.35/bin/bin/../../lib/gcc/pic32c/8.3.1/../../../../pic32c/lib/thumb/v6-m/nofp\libc-musl.a(memset.o)
 .comment       0x0000002b       0x2c c:/program files/microchip/xc32/v4.35/bin/bin/../../lib/gcc/pic32c/8.3.1/../../../../pic32c/lib/thumb/v6-m/nofp\libc-musl.a(strlen.o)
 .comment       0x0000002b       0x2c c:/program files/microchip/xc32/v4.35/bin/bin/../../lib/gcc/pic32c/8.3.1/../../../../pic32c/lib/thumb/v6-m/nofp\libc-musl.a(__environ.o)
 .comment       0x0000002b       0x2c c:/program files/microchip/xc32/v4.35/bin/bin/../../lib/gcc/pic32c/8.3.1/../../../../pic32c/lib/thumb/v6-m/nofp\libc-musl.a(__errno_location.o)
 .comment       0x0000002b       0x2c c:/program files/microchip/xc32/v4.35/bin/bin/../../lib/gcc/pic32c/8.3.1/../../../../pic32c/lib/thumb/v6-m/nofp\libc-musl.a(vfprintf.o)
 .comment       0x0000002b       0x2c c:/program files/microchip/xc32/v4.35/bin/bin/../../lib/gcc/pic32c/8.3.1/../../../../pic32c/lib/thumb/v6-m/nofp\libc-musl.a(__pop_float.o)
 .comment       0x0000002b       0x2c c:/program files/microchip/xc32/v4.35/bin/bin/../../lib/gcc/pic32c/8.3.1/../../../../pic32c/lib/thumb/v6-m/nofp\libc-musl.a(__pop_int.o)
 .comment       0x0000002b       0x2c c:/program files/microchip/xc32/v4.35/bin/bin/../../lib/gcc/pic32c/8.3.1/../../../../pic32c/lib/thumb/v6-m/nofp\libc-musl.a(__pop_ptr.o)
 .comment       0x0000002b       0x2c c:/program files/microchip/xc32/v4.35/bin/bin/../../lib/gcc/pic32c/8.3.1/../../../../pic32c/lib/thumb/v6-m/nofp\libc-musl.a(__printf_core.o)
 .comment       0x0000002b       0x2c c:/program files/microchip/xc32/v4.35/bin/bin/../../lib/gcc/pic32c/8.3.1/../../../../pic32c/lib/thumb/v6-m/nofp\libc-musl.a(atoi.o)
 .comment       0x0000002b       0x2c c:/program files/microchip/xc32/v4.35/bin/bin/../../lib/gcc/pic32c/8.3.1/../../../../pic32c/lib/thumb/v6-m/nofp\libc-musl.a(tolower.o)
 .comment       0x0000002b       0x2c c:/program files/microchip/xc32/v4.35/bin/bin/../../lib/gcc/pic32c/8.3.1/../../../../pic32c/lib/thumb/v6-m/nofp\libc-musl.a(__fmt_a.o)
 .comment       0x0000002b       0x2c c:/program files/microchip/xc32/v4.35/bin/bin/../../lib/gcc/pic32c/8.3.1/../../../../pic32c/lib/thumb/v6-m/nofp\libc-musl.a(__fmt_d.o)
 .comment       0x0000002b       0x2c c:/program files/microchip/xc32/v4.35/bin/bin/../../lib/gcc/pic32c/8.3.1/../../../../pic32c/lib/thumb/v6-m/nofp\libc-musl.a(__fmt_fp.o)
 .comment       0x0000002b       0x2c c:/program files/microchip/xc32/v4.35/bin/bin/../../lib/gcc/pic32c/8.3.1/../../../../pic32c/lib/thumb/v6-m/nofp\libc-musl.a(__fmt_o.o)
 .comment       0x0000002b       0x2c c:/program files/microchip/xc32/v4.35/bin/bin/../../lib/gcc/pic32c/8.3.1/../../../../pic32c/lib/thumb/v6-m/nofp\libc-musl.a(__fmt_s.o)
 .comment       0x0000002b       0x2c c:/program files/microchip/xc32/v4.35/bin/bin/../../lib/gcc/pic32c/8.3.1/../../../../pic32c/lib/thumb/v6-m/nofp\libc-musl.a(__fmt_u.o)
 .comment       0x0000002b       0x2c c:/program files/microchip/xc32/v4.35/bin/bin/../../lib/gcc/pic32c/8.3.1/../../../../pic32c/lib/thumb/v6-m/nofp\libc-musl.a(__fmt_x.o)
 .comment       0x0000002b       0x2c c:/program files/microchip/xc32/v4.35/bin/bin/../../lib/gcc/pic32c/8.3.1/../../../../pic32c/lib/thumb/v6-m/nofp\libc-musl.a(strcpy.o)
 .comment       0x0000002b       0x2c c:/program files/microchip/xc32/v4.35/bin/bin/../../lib/gcc/pic32c/8.3.1/../../../../pic32c/lib/thumb/v6-m/nofp\libc-musl.a(toupper.o)
 .comment       0x0000002b       0x2c c:/program files/microchip/xc32/v4.35/bin/bin/../../lib/gcc/pic32c/8.3.1/../../../../pic32c/lib/thumb/v6-m/nofp\libc-musl.a(__cvt_u.o)
 .comment       0x0000002b       0x2c c:/program files/microchip/xc32/v4.35/bin/bin/../../lib/gcc/pic32c/8.3.1/../../../../pic32c/lib/thumb/v6-m/nofp\libc-musl.a(stpcpy.o)
 .comment       0x0000002b       0x2c c:/program files/microchip/xc32/v4.35/bin/bin/../../lib/gcc/pic32c/8.3.1/../../../../pic32c/lib/thumb/v6-m/nofp\libm-fast-emfloat.a(fma.o)
 .comment       0x0000002b       0x2c c:/program files/microchip/xc32/v4.35/bin/bin/../../lib/gcc/pic32c/8.3.1/../../../../pic32c/lib/thumb/v6-m/nofp\libm-fast-emfloat.a(floor.o)
 .comment       0x0000002b       0x2c c:/program files/microchip/xc32/v4.35/bin/bin/../../lib/gcc/pic32c/8.3.1/thumb/v6-m/nofp\libgcc.a(_muldi3.o)
 .comment       0x0000002b       0x2c c:/program files/microchip/xc32/v4.35/bin/bin/../../lib/gcc/pic32c/8.3.1/thumb/v6-m/nofp\libgcc.a(_udivmoddi4.o)
 .comment       0x0000002b       0x2c c:/program files/microchip/xc32/v4.35/bin/bin/../../lib/gcc/pic32c/8.3.1/../../../../pic32c/lib/thumb/v6-m/nofp\libpic32c.a(pic32_data_init_clear.o)
 .comment       0x0000002b       0x2c c:/program files/microchip/xc32/v4.35/bin/bin/../../lib/gcc/pic32c/8.3.1/../../../../pic32c/lib/thumb/v6-m/nofp\libpic32c.a(pic32_data_init_copy.o)

.debug_info     0x00000000    0x5bbce
 .debug_info    0x00000000      0x328 build/default/production/_ext/1171490990/exceptions.o
 .debug_info    0x00000328      0x6e4 build/default/production/_ext/1655452824/mac_task.o
 .debug_info    0x00000a0c     0x177c build/default/production/_ext/1655452824/mac_process_beacon_frame.o
 .debug_info    0x00002188      0x482 build/default/production/_ext/1171490990/freertos_hooks.o
 .debug_info    0x0000260a      0xad9 build/default/production/_ext/1865468468/plib_nvic.o
 .debug_info    0x000030e3     0x19f4 build/default/production/_ext/1655452824/mac_sync.o
 .debug_info    0x00004ad7     0x1af4 build/default/production/_ext/559172130/phy_init.o
 .debug_info    0x000065cb      0x6af build/default/production/_ext/60167341/plib_eic.o
 .debug_info    0x00006c7a     0x1e28 build/default/production/_ext/1655452824/mac_data_req.o
 .debug_info    0x00008aa2     0x3068 build/default/production/_ext/404212886/FreeRTOS_tasks.o
 .debug_info    0x0000bb0a      0x83c build/default/production/_ext/1171490990/interrupts.o
 .debug_info    0x0000c346      0x7cd build/default/production/_ext/1655452824/mac_dispatcher.o
 .debug_info    0x0000cb13      0xbc0 build/default/production/_ext/829342655/plib_tc3.o
 .debug_info    0x0000d6d3      0xb2e build/default/production/_ext/1655452824/mac_data_extract_mhr.o
 .debug_info    0x0000e201      0x966 build/default/production/_ext/1881668453/sys_int.o
 .debug_info    0x0000eb67      0xa21 build/default/production/_ext/559172130/phy_rx_enable.o
 .debug_info    0x0000f588      0x3a3 build/default/production/_ext/1655452824/usr_mlme_sync_loss_ind.o
 .debug_info    0x0000f92b      0x8f1 build/default/production/_ext/1529399856/osal_freertos_extend.o
 .debug_info    0x0001021c     0x26fc build/default/production/_ext/101884895/sys_time.o
 .debug_info    0x00012918      0xcba build/default/production/_ext/1865521619/plib_port.o
 .debug_info    0x000135d2      0xce1 build/default/production/_ext/559172130/phy_pwr_mgmt.o
 .debug_info    0x000142b3     0x12d1 build/default/production/_ext/1655452824/mac_tx_coord_realignment_command.o
 .debug_info    0x00015584     0x159e build/default/production/_ext/559172130/phy_tx.o
 .debug_info    0x00016b22     0x14a6 build/default/production/_ext/17022449/plib_sercom4_spi_master.o
 .debug_info    0x00017fc8     0x2925 build/default/production/_ext/1655452824/mac_associate.o
 .debug_info    0x0001a8ed     0x1bdc build/default/production/_ext/1655452824/mac_pib.o
 .debug_info    0x0001c4c9      0x489 build/default/production/_ext/1171490990/startup_xc32.o
 .debug_info    0x0001c952     0x12a0 build/default/production/_ext/1655452824/mac_beacon.o
 .debug_info    0x0001dbf2     0x1428 build/default/production/_ext/1832805299/sys_console.o
 .debug_info    0x0001f01a      0x55d build/default/production/_ext/1360937237/app.o
 .debug_info    0x0001f577     0x1606 build/default/production/_ext/1655452824/mac_rx_enable.o
 .debug_info    0x00020b7d     0x17d9 build/default/production/_ext/1655452824/mac.o
 .debug_info    0x00022356      0x31d build/default/production/_ext/1360937237/main.o
 .debug_info    0x00022673      0xa00 build/default/production/_ext/1984496892/plib_clock.o
 .debug_info    0x00023073      0x5f8 build/default/production/_ext/957911548/phy_task.o
 .debug_info    0x0002366b      0xbb8 build/default/production/_ext/1529399856/osal_freertos.o
 .debug_info    0x00024223     0x1318 build/default/production/_ext/559172130/phy_pib.o
 .debug_info    0x0002553b     0x2514 build/default/production/_ext/1655452824/mac_disassociate.o
 .debug_info    0x00027a4f     0x1587 build/default/production/_ext/1655452824/mac_orphan.o
 .debug_info    0x00028fd6     0x13ec build/default/production/_ext/1832805299/sys_console_uart.o
 .debug_info    0x0002a3c2      0x9c1 build/default/production/_ext/1593096446/plib_nvmctrl.o
 .debug_info    0x0002ad83     0x19ac build/default/production/_ext/559172130/phy.o
 .debug_info    0x0002c72f     0x1b15 build/default/production/_ext/1655452824/mac_process_phy_tx_frame_status.o
 .debug_info    0x0002e244     0x1b62 build/default/production/_ext/1171490990/initialization.o
 .debug_info    0x0002fda6      0x590 build/default/production/_ext/1171490990/tasks.o
 .debug_info    0x00030336      0x71b build/default/production/_ext/1374435801/bmm.o
 .debug_info    0x00030a51     0x1d1a build/default/production/_ext/1655452824/mac_callback_wrapper.o
 .debug_info    0x0003276b     0x2139 build/default/production/_ext/1655452824/mac_api.o
 .debug_info    0x000348a4     0x219a build/default/production/_ext/1655452824/mac_misc.o
 .debug_info    0x00036a3e     0x1bab build/default/production/_ext/559172130/phy_helper.o
 .debug_info    0x000385e9     0x214d build/default/production/_ext/504274921/plib_sercom0_usart.o
 .debug_info    0x0003a736      0x9bf build/default/production/_ext/559172130/phy_irq_handler.o
 .debug_info    0x0003b0f5     0x2c68 build/default/production/_ext/1655452824/mac_mcps_data.o
 .debug_info    0x0003dd5d     0x17c5 build/default/production/_ext/404212886/timers.o
 .debug_info    0x0003f522     0x2565 build/default/production/_ext/404212886/queue.o
 .debug_info    0x00041a87     0x27f8 build/default/production/_ext/1655452824/mac_data_ind.o
 .debug_info    0x0004427f     0x2a17 build/default/production/_ext/1655452824/mac_scan.o
 .debug_info    0x00046c96      0xc25 build/default/production/_ext/559172130/phy_trx_reg_access.o
 .debug_info    0x000478bb      0x6db build/default/production/_ext/1624415188/port.o
 .debug_info    0x00047f96     0x1693 build/default/production/_ext/1655452824/mac_poll.o
 .debug_info    0x00049629      0xd51 build/default/production/_ext/559172130/phy_ed.o
 .debug_info    0x0004a37a      0x61e build/default/production/_ext/404212886/list.o
 .debug_info    0x0004a998      0xed9 build/default/production/_ext/745501718/pal.o
 .debug_info    0x0004b871     0x1619 build/default/production/_ext/1655452824/mac_start.o
 .debug_info    0x0004ce8a      0x82a build/default/production/_ext/874725666/qmm.o
 .debug_info    0x0004d6b4      0xc90 build/default/production/_ext/559172130/phy_rx.o
 .debug_info    0x0004e344      0xa30 build/default/production/_ext/1665200909/heap_4.o
 .debug_info    0x0004ed74     0x2237 build/default/production/_ext/85628700/demo_app_ffd.o
 .debug_info    0x00050fab     0x1737 build/default/production/_ext/85628700/usr_mac_callbacks.o
 .debug_info    0x000526e2      0x2b9 c:/program files/microchip/xc32/v4.35/bin/bin/../../lib/gcc/pic32c/8.3.1/../../../../pic32c/lib/thumb/v6-m/nofp\libpic32c.a(data_init.o)
 .debug_info    0x0005299b      0x616 c:/program files/microchip/xc32/v4.35/bin/bin/../../lib/gcc/pic32c/8.3.1/../../../../pic32c/lib/thumb/v6-m/nofp\libc-musl.a(__libc_start_main.o)
 .debug_info    0x00052fb1      0x528 c:/program files/microchip/xc32/v4.35/bin/bin/../../lib/gcc/pic32c/8.3.1/../../../../pic32c/lib/thumb/v6-m/nofp\libc-musl.a(libc.o)
 .debug_info    0x000534d9      0x31f c:/program files/microchip/xc32/v4.35/bin/bin/../../lib/gcc/pic32c/8.3.1/../../../../pic32c/lib/thumb/v6-m/nofp\libc-musl.a(rand.o)
 .debug_info    0x000537f8      0x6f4 c:/program files/microchip/xc32/v4.35/bin/bin/../../lib/gcc/pic32c/8.3.1/../../../../pic32c/lib/thumb/v6-m/nofp\libc-musl.a(vsnprintf.o)
 .debug_info    0x00053eec      0x2e8 c:/program files/microchip/xc32/v4.35/bin/bin/../../lib/gcc/pic32c/8.3.1/../../../../pic32c/lib/thumb/v6-m/nofp\libc-musl.a(memcpy.o)
 .debug_info    0x000541d4      0x2b2 c:/program files/microchip/xc32/v4.35/bin/bin/../../lib/gcc/pic32c/8.3.1/../../../../pic32c/lib/thumb/v6-m/nofp\libc-musl.a(memset.o)
 .debug_info    0x00054486      0x29d c:/program files/microchip/xc32/v4.35/bin/bin/../../lib/gcc/pic32c/8.3.1/../../../../pic32c/lib/thumb/v6-m/nofp\libc-musl.a(strlen.o)
 .debug_info    0x00054723      0x2a2 c:/program files/microchip/xc32/v4.35/bin/bin/../../lib/gcc/pic32c/8.3.1/../../../../pic32c/lib/thumb/v6-m/nofp\libc-musl.a(__environ.o)
 .debug_info    0x000549c5      0x266 c:/program files/microchip/xc32/v4.35/bin/bin/../../lib/gcc/pic32c/8.3.1/../../../../pic32c/lib/thumb/v6-m/nofp\libc-musl.a(__errno_location.o)
 .debug_info    0x00054c2b      0x6bd c:/program files/microchip/xc32/v4.35/bin/bin/../../lib/gcc/pic32c/8.3.1/../../../../pic32c/lib/thumb/v6-m/nofp\libc-musl.a(vfprintf.o)
 .debug_info    0x000552e8      0x3d0 c:/program files/microchip/xc32/v4.35/bin/bin/../../lib/gcc/pic32c/8.3.1/../../../../pic32c/lib/thumb/v6-m/nofp\libc-musl.a(__pop_float.o)
 .debug_info    0x000556b8      0x3f4 c:/program files/microchip/xc32/v4.35/bin/bin/../../lib/gcc/pic32c/8.3.1/../../../../pic32c/lib/thumb/v6-m/nofp\libc-musl.a(__pop_int.o)
 .debug_info    0x00055aac      0x400 c:/program files/microchip/xc32/v4.35/bin/bin/../../lib/gcc/pic32c/8.3.1/../../../../pic32c/lib/thumb/v6-m/nofp\libc-musl.a(__pop_ptr.o)
 .debug_info    0x00055eac      0xd73 c:/program files/microchip/xc32/v4.35/bin/bin/../../lib/gcc/pic32c/8.3.1/../../../../pic32c/lib/thumb/v6-m/nofp\libc-musl.a(__printf_core.o)
 .debug_info    0x00056c1f      0x2ee c:/program files/microchip/xc32/v4.35/bin/bin/../../lib/gcc/pic32c/8.3.1/../../../../pic32c/lib/thumb/v6-m/nofp\libc-musl.a(atoi.o)
 .debug_info    0x00056f0d      0x34c c:/program files/microchip/xc32/v4.35/bin/bin/../../lib/gcc/pic32c/8.3.1/../../../../pic32c/lib/thumb/v6-m/nofp\libc-musl.a(tolower.o)
 .debug_info    0x00057259      0x8b8 c:/program files/microchip/xc32/v4.35/bin/bin/../../lib/gcc/pic32c/8.3.1/../../../../pic32c/lib/thumb/v6-m/nofp\libc-musl.a(__fmt_a.o)
 .debug_info    0x00057b11      0x5b5 c:/program files/microchip/xc32/v4.35/bin/bin/../../lib/gcc/pic32c/8.3.1/../../../../pic32c/lib/thumb/v6-m/nofp\libc-musl.a(__fmt_d.o)
 .debug_info    0x000580c6      0x93f c:/program files/microchip/xc32/v4.35/bin/bin/../../lib/gcc/pic32c/8.3.1/../../../../pic32c/lib/thumb/v6-m/nofp\libc-musl.a(__fmt_fp.o)
 .debug_info    0x00058a05      0x586 c:/program files/microchip/xc32/v4.35/bin/bin/../../lib/gcc/pic32c/8.3.1/../../../../pic32c/lib/thumb/v6-m/nofp\libc-musl.a(__fmt_o.o)
 .debug_info    0x00058f8b      0x571 c:/program files/microchip/xc32/v4.35/bin/bin/../../lib/gcc/pic32c/8.3.1/../../../../pic32c/lib/thumb/v6-m/nofp\libc-musl.a(__fmt_s.o)
 .debug_info    0x000594fc      0x586 c:/program files/microchip/xc32/v4.35/bin/bin/../../lib/gcc/pic32c/8.3.1/../../../../pic32c/lib/thumb/v6-m/nofp\libc-musl.a(__fmt_u.o)
 .debug_info    0x00059a82      0x5ba c:/program files/microchip/xc32/v4.35/bin/bin/../../lib/gcc/pic32c/8.3.1/../../../../pic32c/lib/thumb/v6-m/nofp\libc-musl.a(__fmt_x.o)
 .debug_info    0x0005a03c      0x2a7 c:/program files/microchip/xc32/v4.35/bin/bin/../../lib/gcc/pic32c/8.3.1/../../../../pic32c/lib/thumb/v6-m/nofp\libc-musl.a(strcpy.o)
 .debug_info    0x0005a2e3      0x34c c:/program files/microchip/xc32/v4.35/bin/bin/../../lib/gcc/pic32c/8.3.1/../../../../pic32c/lib/thumb/v6-m/nofp\libc-musl.a(toupper.o)
 .debug_info    0x0005a62f      0x42c c:/program files/microchip/xc32/v4.35/bin/bin/../../lib/gcc/pic32c/8.3.1/../../../../pic32c/lib/thumb/v6-m/nofp\libc-musl.a(__cvt_u.o)
 .debug_info    0x0005aa5b      0x2af c:/program files/microchip/xc32/v4.35/bin/bin/../../lib/gcc/pic32c/8.3.1/../../../../pic32c/lib/thumb/v6-m/nofp\libc-musl.a(stpcpy.o)
 .debug_info    0x0005ad0a       0x26 c:/program files/microchip/xc32/v4.35/bin/bin/../../lib/gcc/pic32c/8.3.1/thumb/v6-m/nofp\libgcc.a(_udivsi3.o)
 .debug_info    0x0005ad30       0x26 c:/program files/microchip/xc32/v4.35/bin/bin/../../lib/gcc/pic32c/8.3.1/thumb/v6-m/nofp\libgcc.a(_divsi3.o)
 .debug_info    0x0005ad56       0x26 c:/program files/microchip/xc32/v4.35/bin/bin/../../lib/gcc/pic32c/8.3.1/thumb/v6-m/nofp\libgcc.a(_dvmd_tls.o)
 .debug_info    0x0005ad7c       0x26 c:/program files/microchip/xc32/v4.35/bin/bin/../../lib/gcc/pic32c/8.3.1/thumb/v6-m/nofp\libgcc.a(_aeabi_uldivmod.o)
 .debug_info    0x0005ada2      0x492 c:/program files/microchip/xc32/v4.35/bin/bin/../../lib/gcc/pic32c/8.3.1/thumb/v6-m/nofp\libgcc.a(_muldi3.o)
 .debug_info    0x0005b234      0x3df c:/program files/microchip/xc32/v4.35/bin/bin/../../lib/gcc/pic32c/8.3.1/thumb/v6-m/nofp\libgcc.a(_udivmoddi4.o)
 .debug_info    0x0005b613       0x26 c:/program files/microchip/xc32/v4.35/bin/bin/../../lib/gcc/pic32c/8.3.1/thumb/v6-m/nofp\libgcc.a(_lshrdi3.o)
 .debug_info    0x0005b639       0x26 c:/program files/microchip/xc32/v4.35/bin/bin/../../lib/gcc/pic32c/8.3.1/thumb/v6-m/nofp\libgcc.a(_ashldi3.o)
 .debug_info    0x0005b65f       0x26 c:/program files/microchip/xc32/v4.35/bin/bin/../../lib/gcc/pic32c/8.3.1/thumb/v6-m/nofp\libgcc.a(_clzdi2.o)
 .debug_info    0x0005b685       0x26 c:/program files/microchip/xc32/v4.35/bin/bin/../../lib/gcc/pic32c/8.3.1/thumb/v6-m/nofp\libgcc.a(_clzsi2.o)
 .debug_info    0x0005b6ab      0x292 c:/program files/microchip/xc32/v4.35/bin/bin/../../lib/gcc/pic32c/8.3.1/../../../../pic32c/lib/thumb/v6-m/nofp\libpic32c.a(pic32_data_init_clear.o)
 .debug_info    0x0005b93d      0x291 c:/program files/microchip/xc32/v4.35/bin/bin/../../lib/gcc/pic32c/8.3.1/../../../../pic32c/lib/thumb/v6-m/nofp\libpic32c.a(pic32_data_init_copy.o)

.debug_abbrev   0x00000000     0xbfaf
 .debug_abbrev  0x00000000       0x3e build/default/production/_ext/1171490990/exceptions.o
 .debug_abbrev  0x0000003e      0x13c build/default/production/_ext/1655452824/mac_task.o
 .debug_abbrev  0x0000017a      0x21b build/default/production/_ext/1655452824/mac_process_beacon_frame.o
 .debug_abbrev  0x00000395       0xf7 build/default/production/_ext/1171490990/freertos_hooks.o
 .debug_abbrev  0x0000048c      0x1fd build/default/production/_ext/1865468468/plib_nvic.o
 .debug_abbrev  0x00000689      0x1bf build/default/production/_ext/1655452824/mac_sync.o
 .debug_abbrev  0x00000848      0x38d build/default/production/_ext/559172130/phy_init.o
 .debug_abbrev  0x00000bd5      0x1cb build/default/production/_ext/60167341/plib_eic.o
 .debug_abbrev  0x00000da0      0x3ff build/default/production/_ext/1655452824/mac_data_req.o
 .debug_abbrev  0x0000119f      0x418 build/default/production/_ext/404212886/FreeRTOS_tasks.o
 .debug_abbrev  0x000015b7       0xb5 build/default/production/_ext/1171490990/interrupts.o
 .debug_abbrev  0x0000166c      0x14a build/default/production/_ext/1655452824/mac_dispatcher.o
 .debug_abbrev  0x000017b6      0x1e9 build/default/production/_ext/829342655/plib_tc3.o
 .debug_abbrev  0x0000199f      0x1e2 build/default/production/_ext/1655452824/mac_data_extract_mhr.o
 .debug_abbrev  0x00001b81      0x246 build/default/production/_ext/1881668453/sys_int.o
 .debug_abbrev  0x00001dc7      0x162 build/default/production/_ext/559172130/phy_rx_enable.o
 .debug_abbrev  0x00001f29       0x6d build/default/production/_ext/1655452824/usr_mlme_sync_loss_ind.o
 .debug_abbrev  0x00001f96      0x189 build/default/production/_ext/1529399856/osal_freertos_extend.o
 .debug_abbrev  0x0000211f      0x516 build/default/production/_ext/101884895/sys_time.o
 .debug_abbrev  0x00002635      0x1d6 build/default/production/_ext/1865521619/plib_port.o
 .debug_abbrev  0x0000280b      0x1c0 build/default/production/_ext/559172130/phy_pwr_mgmt.o
 .debug_abbrev  0x000029cb      0x20a build/default/production/_ext/1655452824/mac_tx_coord_realignment_command.o
 .debug_abbrev  0x00002bd5      0x2a4 build/default/production/_ext/559172130/phy_tx.o
 .debug_abbrev  0x00002e79      0x2b2 build/default/production/_ext/17022449/plib_sercom4_spi_master.o
 .debug_abbrev  0x0000312b      0x35a build/default/production/_ext/1655452824/mac_associate.o
 .debug_abbrev  0x00003485      0x346 build/default/production/_ext/1655452824/mac_pib.o
 .debug_abbrev  0x000037cb      0x110 build/default/production/_ext/1171490990/startup_xc32.o
 .debug_abbrev  0x000038db      0x308 build/default/production/_ext/1655452824/mac_beacon.o
 .debug_abbrev  0x00003be3      0x382 build/default/production/_ext/1832805299/sys_console.o
 .debug_abbrev  0x00003f65      0x184 build/default/production/_ext/1360937237/app.o
 .debug_abbrev  0x000040e9      0x2a6 build/default/production/_ext/1655452824/mac_rx_enable.o
 .debug_abbrev  0x0000438f      0x20e build/default/production/_ext/1655452824/mac.o
 .debug_abbrev  0x0000459d       0x77 build/default/production/_ext/1360937237/main.o
 .debug_abbrev  0x00004614      0x13e build/default/production/_ext/1984496892/plib_clock.o
 .debug_abbrev  0x00004752      0x12a build/default/production/_ext/957911548/phy_task.o
 .debug_abbrev  0x0000487c      0x1f9 build/default/production/_ext/1529399856/osal_freertos.o
 .debug_abbrev  0x00004a75      0x34f build/default/production/_ext/559172130/phy_pib.o
 .debug_abbrev  0x00004dc4      0x3f9 build/default/production/_ext/1655452824/mac_disassociate.o
 .debug_abbrev  0x000051bd      0x1c1 build/default/production/_ext/1655452824/mac_orphan.o
 .debug_abbrev  0x0000537e      0x338 build/default/production/_ext/1832805299/sys_console_uart.o
 .debug_abbrev  0x000056b6      0x1af build/default/production/_ext/1593096446/plib_nvmctrl.o
 .debug_abbrev  0x00005865      0x371 build/default/production/_ext/559172130/phy.o
 .debug_abbrev  0x00005bd6      0x2d3 build/default/production/_ext/1655452824/mac_process_phy_tx_frame_status.o
 .debug_abbrev  0x00005ea9      0x283 build/default/production/_ext/1171490990/initialization.o
 .debug_abbrev  0x0000612c      0x133 build/default/production/_ext/1171490990/tasks.o
 .debug_abbrev  0x0000625f      0x190 build/default/production/_ext/1374435801/bmm.o
 .debug_abbrev  0x000063ef      0x204 build/default/production/_ext/1655452824/mac_callback_wrapper.o
 .debug_abbrev  0x000065f3      0x258 build/default/production/_ext/1655452824/mac_api.o
 .debug_abbrev  0x0000684b      0x39b build/default/production/_ext/1655452824/mac_misc.o
 .debug_abbrev  0x00006be6      0x347 build/default/production/_ext/559172130/phy_helper.o
 .debug_abbrev  0x00006f2d      0x471 build/default/production/_ext/504274921/plib_sercom0_usart.o
 .debug_abbrev  0x0000739e      0x16b build/default/production/_ext/559172130/phy_irq_handler.o
 .debug_abbrev  0x00007509      0x3fa build/default/production/_ext/1655452824/mac_mcps_data.o
 .debug_abbrev  0x00007903      0x3a7 build/default/production/_ext/404212886/timers.o
 .debug_abbrev  0x00007caa      0x336 build/default/production/_ext/404212886/queue.o
 .debug_abbrev  0x00007fe0      0x38e build/default/production/_ext/1655452824/mac_data_ind.o
 .debug_abbrev  0x0000836e      0x368 build/default/production/_ext/1655452824/mac_scan.o
 .debug_abbrev  0x000086d6      0x191 build/default/production/_ext/559172130/phy_trx_reg_access.o
 .debug_abbrev  0x00008867      0x1cf build/default/production/_ext/1624415188/port.o
 .debug_abbrev  0x00008a36      0x22a build/default/production/_ext/1655452824/mac_poll.o
 .debug_abbrev  0x00008c60      0x1c9 build/default/production/_ext/559172130/phy_ed.o
 .debug_abbrev  0x00008e29      0x15e build/default/production/_ext/404212886/list.o
 .debug_abbrev  0x00008f87      0x3a5 build/default/production/_ext/745501718/pal.o
 .debug_abbrev  0x0000932c      0x2b6 build/default/production/_ext/1655452824/mac_start.o
 .debug_abbrev  0x000095e2      0x2b4 build/default/production/_ext/874725666/qmm.o
 .debug_abbrev  0x00009896      0x231 build/default/production/_ext/559172130/phy_rx.o
 .debug_abbrev  0x00009ac7      0x261 build/default/production/_ext/1665200909/heap_4.o
 .debug_abbrev  0x00009d28      0x377 build/default/production/_ext/85628700/demo_app_ffd.o
 .debug_abbrev  0x0000a09f      0x2fd build/default/production/_ext/85628700/usr_mac_callbacks.o
 .debug_abbrev  0x0000a39c       0x44 c:/program files/microchip/xc32/v4.35/bin/bin/../../lib/gcc/pic32c/8.3.1/../../../../pic32c/lib/thumb/v6-m/nofp\libpic32c.a(data_init.o)
 .debug_abbrev  0x0000a3e0      0x117 c:/program files/microchip/xc32/v4.35/bin/bin/../../lib/gcc/pic32c/8.3.1/../../../../pic32c/lib/thumb/v6-m/nofp\libc-musl.a(__libc_start_main.o)
 .debug_abbrev  0x0000a4f7       0xb8 c:/program files/microchip/xc32/v4.35/bin/bin/../../lib/gcc/pic32c/8.3.1/../../../../pic32c/lib/thumb/v6-m/nofp\libc-musl.a(libc.o)
 .debug_abbrev  0x0000a5af       0x8b c:/program files/microchip/xc32/v4.35/bin/bin/../../lib/gcc/pic32c/8.3.1/../../../../pic32c/lib/thumb/v6-m/nofp\libc-musl.a(rand.o)
 .debug_abbrev  0x0000a63a      0x168 c:/program files/microchip/xc32/v4.35/bin/bin/../../lib/gcc/pic32c/8.3.1/../../../../pic32c/lib/thumb/v6-m/nofp\libc-musl.a(vsnprintf.o)
 .debug_abbrev  0x0000a7a2       0x9c c:/program files/microchip/xc32/v4.35/bin/bin/../../lib/gcc/pic32c/8.3.1/../../../../pic32c/lib/thumb/v6-m/nofp\libc-musl.a(memcpy.o)
 .debug_abbrev  0x0000a83e       0x97 c:/program files/microchip/xc32/v4.35/bin/bin/../../lib/gcc/pic32c/8.3.1/../../../../pic32c/lib/thumb/v6-m/nofp\libc-musl.a(memset.o)
 .debug_abbrev  0x0000a8d5       0x86 c:/program files/microchip/xc32/v4.35/bin/bin/../../lib/gcc/pic32c/8.3.1/../../../../pic32c/lib/thumb/v6-m/nofp\libc-musl.a(strlen.o)
 .debug_abbrev  0x0000a95b       0x57 c:/program files/microchip/xc32/v4.35/bin/bin/../../lib/gcc/pic32c/8.3.1/../../../../pic32c/lib/thumb/v6-m/nofp\libc-musl.a(__environ.o)
 .debug_abbrev  0x0000a9b2       0x2e c:/program files/microchip/xc32/v4.35/bin/bin/../../lib/gcc/pic32c/8.3.1/../../../../pic32c/lib/thumb/v6-m/nofp\libc-musl.a(__errno_location.o)
 .debug_abbrev  0x0000a9e0      0x16f c:/program files/microchip/xc32/v4.35/bin/bin/../../lib/gcc/pic32c/8.3.1/../../../../pic32c/lib/thumb/v6-m/nofp\libc-musl.a(vfprintf.o)
 .debug_abbrev  0x0000ab4f       0xbd c:/program files/microchip/xc32/v4.35/bin/bin/../../lib/gcc/pic32c/8.3.1/../../../../pic32c/lib/thumb/v6-m/nofp\libc-musl.a(__pop_float.o)
 .debug_abbrev  0x0000ac0c       0xbd c:/program files/microchip/xc32/v4.35/bin/bin/../../lib/gcc/pic32c/8.3.1/../../../../pic32c/lib/thumb/v6-m/nofp\libc-musl.a(__pop_int.o)
 .debug_abbrev  0x0000acc9       0xbd c:/program files/microchip/xc32/v4.35/bin/bin/../../lib/gcc/pic32c/8.3.1/../../../../pic32c/lib/thumb/v6-m/nofp\libc-musl.a(__pop_ptr.o)
 .debug_abbrev  0x0000ad86      0x2be c:/program files/microchip/xc32/v4.35/bin/bin/../../lib/gcc/pic32c/8.3.1/../../../../pic32c/lib/thumb/v6-m/nofp\libc-musl.a(__printf_core.o)
 .debug_abbrev  0x0000b044       0xbb c:/program files/microchip/xc32/v4.35/bin/bin/../../lib/gcc/pic32c/8.3.1/../../../../pic32c/lib/thumb/v6-m/nofp\libc-musl.a(atoi.o)
 .debug_abbrev  0x0000b0ff       0xe9 c:/program files/microchip/xc32/v4.35/bin/bin/../../lib/gcc/pic32c/8.3.1/../../../../pic32c/lib/thumb/v6-m/nofp\libc-musl.a(tolower.o)
 .debug_abbrev  0x0000b1e8      0x194 c:/program files/microchip/xc32/v4.35/bin/bin/../../lib/gcc/pic32c/8.3.1/../../../../pic32c/lib/thumb/v6-m/nofp\libc-musl.a(__fmt_a.o)
 .debug_abbrev  0x0000b37c      0x120 c:/program files/microchip/xc32/v4.35/bin/bin/../../lib/gcc/pic32c/8.3.1/../../../../pic32c/lib/thumb/v6-m/nofp\libc-musl.a(__fmt_d.o)
 .debug_abbrev  0x0000b49c      0x1a2 c:/program files/microchip/xc32/v4.35/bin/bin/../../lib/gcc/pic32c/8.3.1/../../../../pic32c/lib/thumb/v6-m/nofp\libc-musl.a(__fmt_fp.o)
 .debug_abbrev  0x0000b63e      0x120 c:/program files/microchip/xc32/v4.35/bin/bin/../../lib/gcc/pic32c/8.3.1/../../../../pic32c/lib/thumb/v6-m/nofp\libc-musl.a(__fmt_o.o)
 .debug_abbrev  0x0000b75e      0x11d c:/program files/microchip/xc32/v4.35/bin/bin/../../lib/gcc/pic32c/8.3.1/../../../../pic32c/lib/thumb/v6-m/nofp\libc-musl.a(__fmt_s.o)
 .debug_abbrev  0x0000b87b      0x120 c:/program files/microchip/xc32/v4.35/bin/bin/../../lib/gcc/pic32c/8.3.1/../../../../pic32c/lib/thumb/v6-m/nofp\libc-musl.a(__fmt_u.o)
 .debug_abbrev  0x0000b99b      0x10f c:/program files/microchip/xc32/v4.35/bin/bin/../../lib/gcc/pic32c/8.3.1/../../../../pic32c/lib/thumb/v6-m/nofp\libc-musl.a(__fmt_x.o)
 .debug_abbrev  0x0000baaa       0x8e c:/program files/microchip/xc32/v4.35/bin/bin/../../lib/gcc/pic32c/8.3.1/../../../../pic32c/lib/thumb/v6-m/nofp\libc-musl.a(strcpy.o)
 .debug_abbrev  0x0000bb38       0xe9 c:/program files/microchip/xc32/v4.35/bin/bin/../../lib/gcc/pic32c/8.3.1/../../../../pic32c/lib/thumb/v6-m/nofp\libc-musl.a(toupper.o)
 .debug_abbrev  0x0000bc21       0xb2 c:/program files/microchip/xc32/v4.35/bin/bin/../../lib/gcc/pic32c/8.3.1/../../../../pic32c/lib/thumb/v6-m/nofp\libc-musl.a(__cvt_u.o)
 .debug_abbrev  0x0000bcd3       0x63 c:/program files/microchip/xc32/v4.35/bin/bin/../../lib/gcc/pic32c/8.3.1/../../../../pic32c/lib/thumb/v6-m/nofp\libc-musl.a(stpcpy.o)
 .debug_abbrev  0x0000bd36       0x14 c:/program files/microchip/xc32/v4.35/bin/bin/../../lib/gcc/pic32c/8.3.1/thumb/v6-m/nofp\libgcc.a(_udivsi3.o)
 .debug_abbrev  0x0000bd4a       0x14 c:/program files/microchip/xc32/v4.35/bin/bin/../../lib/gcc/pic32c/8.3.1/thumb/v6-m/nofp\libgcc.a(_divsi3.o)
 .debug_abbrev  0x0000bd5e       0x14 c:/program files/microchip/xc32/v4.35/bin/bin/../../lib/gcc/pic32c/8.3.1/thumb/v6-m/nofp\libgcc.a(_dvmd_tls.o)
 .debug_abbrev  0x0000bd72       0x14 c:/program files/microchip/xc32/v4.35/bin/bin/../../lib/gcc/pic32c/8.3.1/thumb/v6-m/nofp\libgcc.a(_aeabi_uldivmod.o)
 .debug_abbrev  0x0000bd86       0xef c:/program files/microchip/xc32/v4.35/bin/bin/../../lib/gcc/pic32c/8.3.1/thumb/v6-m/nofp\libgcc.a(_muldi3.o)
 .debug_abbrev  0x0000be75       0x8e c:/program files/microchip/xc32/v4.35/bin/bin/../../lib/gcc/pic32c/8.3.1/thumb/v6-m/nofp\libgcc.a(_udivmoddi4.o)
 .debug_abbrev  0x0000bf03       0x14 c:/program files/microchip/xc32/v4.35/bin/bin/../../lib/gcc/pic32c/8.3.1/thumb/v6-m/nofp\libgcc.a(_lshrdi3.o)
 .debug_abbrev  0x0000bf17       0x14 c:/program files/microchip/xc32/v4.35/bin/bin/../../lib/gcc/pic32c/8.3.1/thumb/v6-m/nofp\libgcc.a(_ashldi3.o)
 .debug_abbrev  0x0000bf2b       0x14 c:/program files/microchip/xc32/v4.35/bin/bin/../../lib/gcc/pic32c/8.3.1/thumb/v6-m/nofp\libgcc.a(_clzdi2.o)
 .debug_abbrev  0x0000bf3f       0x14 c:/program files/microchip/xc32/v4.35/bin/bin/../../lib/gcc/pic32c/8.3.1/thumb/v6-m/nofp\libgcc.a(_clzsi2.o)
 .debug_abbrev  0x0000bf53       0x2e c:/program files/microchip/xc32/v4.35/bin/bin/../../lib/gcc/pic32c/8.3.1/../../../../pic32c/lib/thumb/v6-m/nofp\libpic32c.a(pic32_data_init_clear.o)
 .debug_abbrev  0x0000bf81       0x2e c:/program files/microchip/xc32/v4.35/bin/bin/../../lib/gcc/pic32c/8.3.1/../../../../pic32c/lib/thumb/v6-m/nofp\libpic32c.a(pic32_data_init_copy.o)

.debug_aranges  0x00000000     0x1cd0
 .debug_aranges
                0x00000000       0x28 build/default/production/_ext/1171490990/exceptions.o
 .debug_aranges
                0x00000028       0x28 build/default/production/_ext/1655452824/mac_task.o
 .debug_aranges
                0x00000050       0x20 build/default/production/_ext/1655452824/mac_process_beacon_frame.o
 .debug_aranges
                0x00000070       0x40 build/default/production/_ext/1171490990/freertos_hooks.o
 .debug_aranges
                0x000000b0       0x38 build/default/production/_ext/1865468468/plib_nvic.o
 .debug_aranges
                0x000000e8       0x28 build/default/production/_ext/1655452824/mac_sync.o
 .debug_aranges
                0x00000110       0x48 build/default/production/_ext/559172130/phy_init.o
 .debug_aranges
                0x00000158       0x40 build/default/production/_ext/60167341/plib_eic.o
 .debug_aranges
                0x00000198       0x40 build/default/production/_ext/1655452824/mac_data_req.o
 .debug_aranges
                0x000001d8      0x198 build/default/production/_ext/404212886/FreeRTOS_tasks.o
 .debug_aranges
                0x00000370       0x20 build/default/production/_ext/1171490990/interrupts.o
 .debug_aranges
                0x00000390       0x20 build/default/production/_ext/1655452824/mac_dispatcher.o
 .debug_aranges
                0x000003b0       0x78 build/default/production/_ext/829342655/plib_tc3.o
 .debug_aranges
                0x00000428       0x20 build/default/production/_ext/1655452824/mac_data_extract_mhr.o
 .debug_aranges
                0x00000448       0x40 build/default/production/_ext/1881668453/sys_int.o
 .debug_aranges
                0x00000488       0x20 build/default/production/_ext/559172130/phy_rx_enable.o
 .debug_aranges
                0x000004a8       0x20 build/default/production/_ext/1655452824/usr_mlme_sync_loss_ind.o
 .debug_aranges
                0x000004c8       0x58 build/default/production/_ext/1529399856/osal_freertos_extend.o
 .debug_aranges
                0x00000520      0x128 build/default/production/_ext/101884895/sys_time.o
 .debug_aranges
                0x00000648       0x70 build/default/production/_ext/1865521619/plib_port.o
 .debug_aranges
                0x000006b8       0x30 build/default/production/_ext/559172130/phy_pwr_mgmt.o
 .debug_aranges
                0x000006e8       0x20 build/default/production/_ext/1655452824/mac_tx_coord_realignment_command.o
 .debug_aranges
                0x00000708       0x48 build/default/production/_ext/559172130/phy_tx.o
 .debug_aranges
                0x00000750       0x60 build/default/production/_ext/17022449/plib_sercom4_spi_master.o
 .debug_aranges
                0x000007b0       0x50 build/default/production/_ext/1655452824/mac_associate.o
 .debug_aranges
                0x00000800       0x48 build/default/production/_ext/1655452824/mac_pib.o
 .debug_aranges
                0x00000848       0x28 build/default/production/_ext/1171490990/startup_xc32.o
 .debug_aranges
                0x00000870       0x38 build/default/production/_ext/1655452824/mac_beacon.o
 .debug_aranges
                0x000008a8       0x88 build/default/production/_ext/1832805299/sys_console.o
 .debug_aranges
                0x00000930       0x28 build/default/production/_ext/1360937237/app.o
 .debug_aranges
                0x00000958       0x30 build/default/production/_ext/1655452824/mac_rx_enable.o
 .debug_aranges
                0x00000988       0x30 build/default/production/_ext/1655452824/mac.o
 .debug_aranges
                0x000009b8       0x20 build/default/production/_ext/1360937237/main.o
 .debug_aranges
                0x000009d8       0x20 build/default/production/_ext/1984496892/plib_clock.o
 .debug_aranges
                0x000009f8       0x38 build/default/production/_ext/957911548/phy_task.o
 .debug_aranges
                0x00000a30       0x90 build/default/production/_ext/1529399856/osal_freertos.o
 .debug_aranges
                0x00000ac0       0x40 build/default/production/_ext/559172130/phy_pib.o
 .debug_aranges
                0x00000b00       0x38 build/default/production/_ext/1655452824/mac_disassociate.o
 .debug_aranges
                0x00000b38       0x28 build/default/production/_ext/1655452824/mac_orphan.o
 .debug_aranges
                0x00000b60       0x70 build/default/production/_ext/1832805299/sys_console_uart.o
 .debug_aranges
                0x00000bd0       0x88 build/default/production/_ext/1593096446/plib_nvmctrl.o
 .debug_aranges
                0x00000c58       0x70 build/default/production/_ext/559172130/phy.o
 .debug_aranges
                0x00000cc8       0x30 build/default/production/_ext/1655452824/mac_process_phy_tx_frame_status.o
 .debug_aranges
                0x00000cf8       0x20 build/default/production/_ext/1171490990/initialization.o
 .debug_aranges
                0x00000d18       0x38 build/default/production/_ext/1171490990/tasks.o
 .debug_aranges
                0x00000d50       0x38 build/default/production/_ext/1374435801/bmm.o
 .debug_aranges
                0x00000d88       0xa8 build/default/production/_ext/1655452824/mac_callback_wrapper.o
 .debug_aranges
                0x00000e30       0x90 build/default/production/_ext/1655452824/mac_api.o
 .debug_aranges
                0x00000ec0       0x68 build/default/production/_ext/1655452824/mac_misc.o
 .debug_aranges
                0x00000f28       0x90 build/default/production/_ext/559172130/phy_helper.o
 .debug_aranges
                0x00000fb8       0xe8 build/default/production/_ext/504274921/plib_sercom0_usart.o
 .debug_aranges
                0x000010a0       0x30 build/default/production/_ext/559172130/phy_irq_handler.o
 .debug_aranges
                0x000010d0       0x60 build/default/production/_ext/1655452824/mac_mcps_data.o
 .debug_aranges
                0x00001130       0x98 build/default/production/_ext/404212886/timers.o
 .debug_aranges
                0x000011c8      0x100 build/default/production/_ext/404212886/queue.o
 .debug_aranges
                0x000012c8       0x38 build/default/production/_ext/1655452824/mac_data_ind.o
 .debug_aranges
                0x00001300       0x60 build/default/production/_ext/1655452824/mac_scan.o
 .debug_aranges
                0x00001360       0x58 build/default/production/_ext/559172130/phy_trx_reg_access.o
 .debug_aranges
                0x000013b8       0x88 build/default/production/_ext/1624415188/port.o
 .debug_aranges
                0x00001440       0x38 build/default/production/_ext/1655452824/mac_poll.o
 .debug_aranges
                0x00001478       0x30 build/default/production/_ext/559172130/phy_ed.o
 .debug_aranges
                0x000014a8       0x40 build/default/production/_ext/404212886/list.o
 .debug_aranges
                0x000014e8       0x70 build/default/production/_ext/745501718/pal.o
 .debug_aranges
                0x00001558       0x30 build/default/production/_ext/1655452824/mac_start.o
 .debug_aranges
                0x00001588       0x40 build/default/production/_ext/874725666/qmm.o
 .debug_aranges
                0x000015c8       0x28 build/default/production/_ext/559172130/phy_rx.o
 .debug_aranges
                0x000015f0       0x50 build/default/production/_ext/1665200909/heap_4.o
 .debug_aranges
                0x00001640       0xa8 build/default/production/_ext/85628700/demo_app_ffd.o
 .debug_aranges
                0x000016e8       0xa0 build/default/production/_ext/85628700/usr_mac_callbacks.o
 .debug_aranges
                0x00001788       0x28 c:/program files/microchip/xc32/v4.35/bin/bin/../../lib/gcc/pic32c/8.3.1/../../../../pic32c/lib/thumb/v6-m/nofp\libpic32c.a(data_init.o)
 .debug_aranges
                0x000017b0       0x28 c:/program files/microchip/xc32/v4.35/bin/bin/../../lib/gcc/pic32c/8.3.1/../../../../pic32c/lib/thumb/v6-m/nofp\libc-musl.a(__libc_start_main.o)
 .debug_aranges
                0x000017d8       0x18 c:/program files/microchip/xc32/v4.35/bin/bin/../../lib/gcc/pic32c/8.3.1/../../../../pic32c/lib/thumb/v6-m/nofp\libc-musl.a(libc.o)
 .debug_aranges
                0x000017f0       0x28 c:/program files/microchip/xc32/v4.35/bin/bin/../../lib/gcc/pic32c/8.3.1/../../../../pic32c/lib/thumb/v6-m/nofp\libc-musl.a(rand.o)
 .debug_aranges
                0x00001818       0x20 c:/program files/microchip/xc32/v4.35/bin/bin/../../lib/gcc/pic32c/8.3.1/../../../../pic32c/lib/thumb/v6-m/nofp\libc-musl.a(vsnprintf.o)
 .debug_aranges
                0x00001838       0x20 c:/program files/microchip/xc32/v4.35/bin/bin/../../lib/gcc/pic32c/8.3.1/../../../../pic32c/lib/thumb/v6-m/nofp\libc-musl.a(memcpy.o)
 .debug_aranges
                0x00001858       0x20 c:/program files/microchip/xc32/v4.35/bin/bin/../../lib/gcc/pic32c/8.3.1/../../../../pic32c/lib/thumb/v6-m/nofp\libc-musl.a(memset.o)
 .debug_aranges
                0x00001878       0x20 c:/program files/microchip/xc32/v4.35/bin/bin/../../lib/gcc/pic32c/8.3.1/../../../../pic32c/lib/thumb/v6-m/nofp\libc-musl.a(strlen.o)
 .debug_aranges
                0x00001898       0x18 c:/program files/microchip/xc32/v4.35/bin/bin/../../lib/gcc/pic32c/8.3.1/../../../../pic32c/lib/thumb/v6-m/nofp\libc-musl.a(__environ.o)
 .debug_aranges
                0x000018b0       0x18 c:/program files/microchip/xc32/v4.35/bin/bin/../../lib/gcc/pic32c/8.3.1/../../../../pic32c/lib/thumb/v6-m/nofp\libc-musl.a(__errno_location.o)
 .debug_aranges
                0x000018c8       0x28 c:/program files/microchip/xc32/v4.35/bin/bin/../../lib/gcc/pic32c/8.3.1/../../../../pic32c/lib/thumb/v6-m/nofp\libc-musl.a(vfprintf.o)
 .debug_aranges
                0x000018f0       0x20 c:/program files/microchip/xc32/v4.35/bin/bin/../../lib/gcc/pic32c/8.3.1/../../../../pic32c/lib/thumb/v6-m/nofp\libc-musl.a(__pop_float.o)
 .debug_aranges
                0x00001910       0x20 c:/program files/microchip/xc32/v4.35/bin/bin/../../lib/gcc/pic32c/8.3.1/../../../../pic32c/lib/thumb/v6-m/nofp\libc-musl.a(__pop_int.o)
 .debug_aranges
                0x00001930       0x20 c:/program files/microchip/xc32/v4.35/bin/bin/../../lib/gcc/pic32c/8.3.1/../../../../pic32c/lib/thumb/v6-m/nofp\libc-musl.a(__pop_ptr.o)
 .debug_aranges
                0x00001950       0x50 c:/program files/microchip/xc32/v4.35/bin/bin/../../lib/gcc/pic32c/8.3.1/../../../../pic32c/lib/thumb/v6-m/nofp\libc-musl.a(__printf_core.o)
 .debug_aranges
                0x000019a0       0x20 c:/program files/microchip/xc32/v4.35/bin/bin/../../lib/gcc/pic32c/8.3.1/../../../../pic32c/lib/thumb/v6-m/nofp\libc-musl.a(atoi.o)
 .debug_aranges
                0x000019c0       0x28 c:/program files/microchip/xc32/v4.35/bin/bin/../../lib/gcc/pic32c/8.3.1/../../../../pic32c/lib/thumb/v6-m/nofp\libc-musl.a(tolower.o)
 .debug_aranges
                0x000019e8       0x20 c:/program files/microchip/xc32/v4.35/bin/bin/../../lib/gcc/pic32c/8.3.1/../../../../pic32c/lib/thumb/v6-m/nofp\libc-musl.a(__fmt_a.o)
 .debug_aranges
                0x00001a08       0x20 c:/program files/microchip/xc32/v4.35/bin/bin/../../lib/gcc/pic32c/8.3.1/../../../../pic32c/lib/thumb/v6-m/nofp\libc-musl.a(__fmt_d.o)
 .debug_aranges
                0x00001a28       0x20 c:/program files/microchip/xc32/v4.35/bin/bin/../../lib/gcc/pic32c/8.3.1/../../../../pic32c/lib/thumb/v6-m/nofp\libc-musl.a(__fmt_fp.o)
 .debug_aranges
                0x00001a48       0x20 c:/program files/microchip/xc32/v4.35/bin/bin/../../lib/gcc/pic32c/8.3.1/../../../../pic32c/lib/thumb/v6-m/nofp\libc-musl.a(__fmt_o.o)
 .debug_aranges
                0x00001a68       0x20 c:/program files/microchip/xc32/v4.35/bin/bin/../../lib/gcc/pic32c/8.3.1/../../../../pic32c/lib/thumb/v6-m/nofp\libc-musl.a(__fmt_s.o)
 .debug_aranges
                0x00001a88       0x20 c:/program files/microchip/xc32/v4.35/bin/bin/../../lib/gcc/pic32c/8.3.1/../../../../pic32c/lib/thumb/v6-m/nofp\libc-musl.a(__fmt_u.o)
 .debug_aranges
                0x00001aa8       0x20 c:/program files/microchip/xc32/v4.35/bin/bin/../../lib/gcc/pic32c/8.3.1/../../../../pic32c/lib/thumb/v6-m/nofp\libc-musl.a(__fmt_x.o)
 .debug_aranges
                0x00001ac8       0x20 c:/program files/microchip/xc32/v4.35/bin/bin/../../lib/gcc/pic32c/8.3.1/../../../../pic32c/lib/thumb/v6-m/nofp\libc-musl.a(strcpy.o)
 .debug_aranges
                0x00001ae8       0x28 c:/program files/microchip/xc32/v4.35/bin/bin/../../lib/gcc/pic32c/8.3.1/../../../../pic32c/lib/thumb/v6-m/nofp\libc-musl.a(toupper.o)
 .debug_aranges
                0x00001b10       0x20 c:/program files/microchip/xc32/v4.35/bin/bin/../../lib/gcc/pic32c/8.3.1/../../../../pic32c/lib/thumb/v6-m/nofp\libc-musl.a(__cvt_u.o)
 .debug_aranges
                0x00001b30       0x20 c:/program files/microchip/xc32/v4.35/bin/bin/../../lib/gcc/pic32c/8.3.1/../../../../pic32c/lib/thumb/v6-m/nofp\libc-musl.a(stpcpy.o)
 .debug_aranges
                0x00001b50       0x20 c:/program files/microchip/xc32/v4.35/bin/bin/../../lib/gcc/pic32c/8.3.1/thumb/v6-m/nofp\libgcc.a(_udivsi3.o)
 .debug_aranges
                0x00001b70       0x20 c:/program files/microchip/xc32/v4.35/bin/bin/../../lib/gcc/pic32c/8.3.1/thumb/v6-m/nofp\libgcc.a(_divsi3.o)
 .debug_aranges
                0x00001b90       0x20 c:/program files/microchip/xc32/v4.35/bin/bin/../../lib/gcc/pic32c/8.3.1/thumb/v6-m/nofp\libgcc.a(_dvmd_tls.o)
 .debug_aranges
                0x00001bb0       0x20 c:/program files/microchip/xc32/v4.35/bin/bin/../../lib/gcc/pic32c/8.3.1/thumb/v6-m/nofp\libgcc.a(_aeabi_uldivmod.o)
 .debug_aranges
                0x00001bd0       0x20 c:/program files/microchip/xc32/v4.35/bin/bin/../../lib/gcc/pic32c/8.3.1/thumb/v6-m/nofp\libgcc.a(_muldi3.o)
 .debug_aranges
                0x00001bf0       0x20 c:/program files/microchip/xc32/v4.35/bin/bin/../../lib/gcc/pic32c/8.3.1/thumb/v6-m/nofp\libgcc.a(_udivmoddi4.o)
 .debug_aranges
                0x00001c10       0x20 c:/program files/microchip/xc32/v4.35/bin/bin/../../lib/gcc/pic32c/8.3.1/thumb/v6-m/nofp\libgcc.a(_lshrdi3.o)
 .debug_aranges
                0x00001c30       0x20 c:/program files/microchip/xc32/v4.35/bin/bin/../../lib/gcc/pic32c/8.3.1/thumb/v6-m/nofp\libgcc.a(_ashldi3.o)
 .debug_aranges
                0x00001c50       0x20 c:/program files/microchip/xc32/v4.35/bin/bin/../../lib/gcc/pic32c/8.3.1/thumb/v6-m/nofp\libgcc.a(_clzdi2.o)
 .debug_aranges
                0x00001c70       0x20 c:/program files/microchip/xc32/v4.35/bin/bin/../../lib/gcc/pic32c/8.3.1/thumb/v6-m/nofp\libgcc.a(_clzsi2.o)
 .debug_aranges
                0x00001c90       0x20 c:/program files/microchip/xc32/v4.35/bin/bin/../../lib/gcc/pic32c/8.3.1/../../../../pic32c/lib/thumb/v6-m/nofp\libpic32c.a(pic32_data_init_clear.o)
 .debug_aranges
                0x00001cb0       0x20 c:/program files/microchip/xc32/v4.35/bin/bin/../../lib/gcc/pic32c/8.3.1/../../../../pic32c/lib/thumb/v6-m/nofp\libpic32c.a(pic32_data_init_copy.o)

.debug_ranges   0x00000000     0x1dd8
 .debug_ranges  0x00000000       0x18 build/default/production/_ext/1171490990/exceptions.o
 .debug_ranges  0x00000018       0x18 build/default/production/_ext/1655452824/mac_task.o
 .debug_ranges  0x00000030       0x40 build/default/production/_ext/1655452824/mac_process_beacon_frame.o
 .debug_ranges  0x00000070       0x30 build/default/production/_ext/1171490990/freertos_hooks.o
 .debug_ranges  0x000000a0       0x28 build/default/production/_ext/1865468468/plib_nvic.o
 .debug_ranges  0x000000c8       0x18 build/default/production/_ext/1655452824/mac_sync.o
 .debug_ranges  0x000000e0       0x98 build/default/production/_ext/559172130/phy_init.o
 .debug_ranges  0x00000178       0x30 build/default/production/_ext/60167341/plib_eic.o
 .debug_ranges  0x000001a8       0x90 build/default/production/_ext/1655452824/mac_data_req.o
 .debug_ranges  0x00000238      0x2b0 build/default/production/_ext/404212886/FreeRTOS_tasks.o
 .debug_ranges  0x000004e8       0x10 build/default/production/_ext/1171490990/interrupts.o
 .debug_ranges  0x000004f8       0x28 build/default/production/_ext/1655452824/mac_dispatcher.o
 .debug_ranges  0x00000520       0x68 build/default/production/_ext/829342655/plib_tc3.o
 .debug_ranges  0x00000588       0x10 build/default/production/_ext/1655452824/mac_data_extract_mhr.o
 .debug_ranges  0x00000598       0x48 build/default/production/_ext/1881668453/sys_int.o
 .debug_ranges  0x000005e0       0x10 build/default/production/_ext/559172130/phy_rx_enable.o
 .debug_ranges  0x000005f0       0x10 build/default/production/_ext/1655452824/usr_mlme_sync_loss_ind.o
 .debug_ranges  0x00000600       0x48 build/default/production/_ext/1529399856/osal_freertos_extend.o
 .debug_ranges  0x00000648      0x180 build/default/production/_ext/101884895/sys_time.o
 .debug_ranges  0x000007c8       0x60 build/default/production/_ext/1865521619/plib_port.o
 .debug_ranges  0x00000828       0x20 build/default/production/_ext/559172130/phy_pwr_mgmt.o
 .debug_ranges  0x00000848       0x10 build/default/production/_ext/1655452824/mac_tx_coord_realignment_command.o
 .debug_ranges  0x00000858       0x38 build/default/production/_ext/559172130/phy_tx.o
 .debug_ranges  0x00000890       0x68 build/default/production/_ext/17022449/plib_sercom4_spi_master.o
 .debug_ranges  0x000008f8       0x58 build/default/production/_ext/1655452824/mac_associate.o
 .debug_ranges  0x00000950       0x38 build/default/production/_ext/1655452824/mac_pib.o
 .debug_ranges  0x00000988       0x18 build/default/production/_ext/1171490990/startup_xc32.o
 .debug_ranges  0x000009a0       0x28 build/default/production/_ext/1655452824/mac_beacon.o
 .debug_ranges  0x000009c8       0x78 build/default/production/_ext/1832805299/sys_console.o
 .debug_ranges  0x00000a40       0x18 build/default/production/_ext/1360937237/app.o
 .debug_ranges  0x00000a58       0x20 build/default/production/_ext/1655452824/mac_rx_enable.o
 .debug_ranges  0x00000a78       0x20 build/default/production/_ext/1655452824/mac.o
 .debug_ranges  0x00000a98       0x10 build/default/production/_ext/1360937237/main.o
 .debug_ranges  0x00000aa8       0x28 build/default/production/_ext/1984496892/plib_clock.o
 .debug_ranges  0x00000ad0       0x28 build/default/production/_ext/957911548/phy_task.o
 .debug_ranges  0x00000af8       0x80 build/default/production/_ext/1529399856/osal_freertos.o
 .debug_ranges  0x00000b78       0xc0 build/default/production/_ext/559172130/phy_pib.o
 .debug_ranges  0x00000c38       0x88 build/default/production/_ext/1655452824/mac_disassociate.o
 .debug_ranges  0x00000cc0       0x18 build/default/production/_ext/1655452824/mac_orphan.o
 .debug_ranges  0x00000cd8       0x60 build/default/production/_ext/1832805299/sys_console_uart.o
 .debug_ranges  0x00000d38       0x78 build/default/production/_ext/1593096446/plib_nvmctrl.o
 .debug_ranges  0x00000db0       0x78 build/default/production/_ext/559172130/phy.o
 .debug_ranges  0x00000e28       0x38 build/default/production/_ext/1655452824/mac_process_phy_tx_frame_status.o
 .debug_ranges  0x00000e60       0x10 build/default/production/_ext/1171490990/initialization.o
 .debug_ranges  0x00000e70       0x28 build/default/production/_ext/1171490990/tasks.o
 .debug_ranges  0x00000e98       0x28 build/default/production/_ext/1374435801/bmm.o
 .debug_ranges  0x00000ec0       0x98 build/default/production/_ext/1655452824/mac_callback_wrapper.o
 .debug_ranges  0x00000f58       0x80 build/default/production/_ext/1655452824/mac_api.o
 .debug_ranges  0x00000fd8       0x58 build/default/production/_ext/1655452824/mac_misc.o
 .debug_ranges  0x00001030       0x80 build/default/production/_ext/559172130/phy_helper.o
 .debug_ranges  0x000010b0      0x1e8 build/default/production/_ext/504274921/plib_sercom0_usart.o
 .debug_ranges  0x00001298       0x20 build/default/production/_ext/559172130/phy_irq_handler.o
 .debug_ranges  0x000012b8       0xd8 build/default/production/_ext/1655452824/mac_mcps_data.o
 .debug_ranges  0x00001390      0x108 build/default/production/_ext/404212886/timers.o
 .debug_ranges  0x00001498      0x1e8 build/default/production/_ext/404212886/queue.o
 .debug_ranges  0x00001680       0x48 build/default/production/_ext/1655452824/mac_data_ind.o
 .debug_ranges  0x000016c8       0x68 build/default/production/_ext/1655452824/mac_scan.o
 .debug_ranges  0x00001730       0x48 build/default/production/_ext/559172130/phy_trx_reg_access.o
 .debug_ranges  0x00001778       0x78 build/default/production/_ext/1624415188/port.o
 .debug_ranges  0x000017f0       0x40 build/default/production/_ext/1655452824/mac_poll.o
 .debug_ranges  0x00001830       0x20 build/default/production/_ext/559172130/phy_ed.o
 .debug_ranges  0x00001850       0x30 build/default/production/_ext/404212886/list.o
 .debug_ranges  0x00001880       0x60 build/default/production/_ext/745501718/pal.o
 .debug_ranges  0x000018e0       0x40 build/default/production/_ext/1655452824/mac_start.o
 .debug_ranges  0x00001920       0x68 build/default/production/_ext/874725666/qmm.o
 .debug_ranges  0x00001988       0x30 build/default/production/_ext/559172130/phy_rx.o
 .debug_ranges  0x000019b8       0x40 build/default/production/_ext/1665200909/heap_4.o
 .debug_ranges  0x000019f8       0xe8 build/default/production/_ext/85628700/demo_app_ffd.o
 .debug_ranges  0x00001ae0       0x90 build/default/production/_ext/85628700/usr_mac_callbacks.o
 .debug_ranges  0x00001b70       0x18 c:/program files/microchip/xc32/v4.35/bin/bin/../../lib/gcc/pic32c/8.3.1/../../../../pic32c/lib/thumb/v6-m/nofp\libpic32c.a(data_init.o)
 .debug_ranges  0x00001b88       0x30 c:/program files/microchip/xc32/v4.35/bin/bin/../../lib/gcc/pic32c/8.3.1/../../../../pic32c/lib/thumb/v6-m/nofp\libc-musl.a(__libc_start_main.o)
 .debug_ranges  0x00001bb8       0x18 c:/program files/microchip/xc32/v4.35/bin/bin/../../lib/gcc/pic32c/8.3.1/../../../../pic32c/lib/thumb/v6-m/nofp\libc-musl.a(rand.o)
 .debug_ranges  0x00001bd0       0x10 c:/program files/microchip/xc32/v4.35/bin/bin/../../lib/gcc/pic32c/8.3.1/../../../../pic32c/lib/thumb/v6-m/nofp\libc-musl.a(vsnprintf.o)
 .debug_ranges  0x00001be0       0x10 c:/program files/microchip/xc32/v4.35/bin/bin/../../lib/gcc/pic32c/8.3.1/../../../../pic32c/lib/thumb/v6-m/nofp\libc-musl.a(memcpy.o)
 .debug_ranges  0x00001bf0       0x10 c:/program files/microchip/xc32/v4.35/bin/bin/../../lib/gcc/pic32c/8.3.1/../../../../pic32c/lib/thumb/v6-m/nofp\libc-musl.a(memset.o)
 .debug_ranges  0x00001c00       0x10 c:/program files/microchip/xc32/v4.35/bin/bin/../../lib/gcc/pic32c/8.3.1/../../../../pic32c/lib/thumb/v6-m/nofp\libc-musl.a(strlen.o)
 .debug_ranges  0x00001c10       0x18 c:/program files/microchip/xc32/v4.35/bin/bin/../../lib/gcc/pic32c/8.3.1/../../../../pic32c/lib/thumb/v6-m/nofp\libc-musl.a(vfprintf.o)
 .debug_ranges  0x00001c28       0x10 c:/program files/microchip/xc32/v4.35/bin/bin/../../lib/gcc/pic32c/8.3.1/../../../../pic32c/lib/thumb/v6-m/nofp\libc-musl.a(__pop_float.o)
 .debug_ranges  0x00001c38       0x10 c:/program files/microchip/xc32/v4.35/bin/bin/../../lib/gcc/pic32c/8.3.1/../../../../pic32c/lib/thumb/v6-m/nofp\libc-musl.a(__pop_int.o)
 .debug_ranges  0x00001c48       0x10 c:/program files/microchip/xc32/v4.35/bin/bin/../../lib/gcc/pic32c/8.3.1/../../../../pic32c/lib/thumb/v6-m/nofp\libc-musl.a(__pop_ptr.o)
 .debug_ranges  0x00001c58       0x58 c:/program files/microchip/xc32/v4.35/bin/bin/../../lib/gcc/pic32c/8.3.1/../../../../pic32c/lib/thumb/v6-m/nofp\libc-musl.a(__printf_core.o)
 .debug_ranges  0x00001cb0       0x10 c:/program files/microchip/xc32/v4.35/bin/bin/../../lib/gcc/pic32c/8.3.1/../../../../pic32c/lib/thumb/v6-m/nofp\libc-musl.a(atoi.o)
 .debug_ranges  0x00001cc0       0x18 c:/program files/microchip/xc32/v4.35/bin/bin/../../lib/gcc/pic32c/8.3.1/../../../../pic32c/lib/thumb/v6-m/nofp\libc-musl.a(tolower.o)
 .debug_ranges  0x00001cd8       0x10 c:/program files/microchip/xc32/v4.35/bin/bin/../../lib/gcc/pic32c/8.3.1/../../../../pic32c/lib/thumb/v6-m/nofp\libc-musl.a(__fmt_a.o)
 .debug_ranges  0x00001ce8       0x10 c:/program files/microchip/xc32/v4.35/bin/bin/../../lib/gcc/pic32c/8.3.1/../../../../pic32c/lib/thumb/v6-m/nofp\libc-musl.a(__fmt_d.o)
 .debug_ranges  0x00001cf8       0x10 c:/program files/microchip/xc32/v4.35/bin/bin/../../lib/gcc/pic32c/8.3.1/../../../../pic32c/lib/thumb/v6-m/nofp\libc-musl.a(__fmt_fp.o)
 .debug_ranges  0x00001d08       0x10 c:/program files/microchip/xc32/v4.35/bin/bin/../../lib/gcc/pic32c/8.3.1/../../../../pic32c/lib/thumb/v6-m/nofp\libc-musl.a(__fmt_o.o)
 .debug_ranges  0x00001d18       0x10 c:/program files/microchip/xc32/v4.35/bin/bin/../../lib/gcc/pic32c/8.3.1/../../../../pic32c/lib/thumb/v6-m/nofp\libc-musl.a(__fmt_s.o)
 .debug_ranges  0x00001d28       0x10 c:/program files/microchip/xc32/v4.35/bin/bin/../../lib/gcc/pic32c/8.3.1/../../../../pic32c/lib/thumb/v6-m/nofp\libc-musl.a(__fmt_u.o)
 .debug_ranges  0x00001d38       0x10 c:/program files/microchip/xc32/v4.35/bin/bin/../../lib/gcc/pic32c/8.3.1/../../../../pic32c/lib/thumb/v6-m/nofp\libc-musl.a(__fmt_x.o)
 .debug_ranges  0x00001d48       0x10 c:/program files/microchip/xc32/v4.35/bin/bin/../../lib/gcc/pic32c/8.3.1/../../../../pic32c/lib/thumb/v6-m/nofp\libc-musl.a(strcpy.o)
 .debug_ranges  0x00001d58       0x18 c:/program files/microchip/xc32/v4.35/bin/bin/../../lib/gcc/pic32c/8.3.1/../../../../pic32c/lib/thumb/v6-m/nofp\libc-musl.a(toupper.o)
 .debug_ranges  0x00001d70       0x10 c:/program files/microchip/xc32/v4.35/bin/bin/../../lib/gcc/pic32c/8.3.1/../../../../pic32c/lib/thumb/v6-m/nofp\libc-musl.a(__cvt_u.o)
 .debug_ranges  0x00001d80       0x10 c:/program files/microchip/xc32/v4.35/bin/bin/../../lib/gcc/pic32c/8.3.1/../../../../pic32c/lib/thumb/v6-m/nofp\libc-musl.a(stpcpy.o)
 .debug_ranges  0x00001d90       0x28 c:/program files/microchip/xc32/v4.35/bin/bin/../../lib/gcc/pic32c/8.3.1/thumb/v6-m/nofp\libgcc.a(_muldi3.o)
 .debug_ranges  0x00001db8       0x10 c:/program files/microchip/xc32/v4.35/bin/bin/../../lib/gcc/pic32c/8.3.1/../../../../pic32c/lib/thumb/v6-m/nofp\libpic32c.a(pic32_data_init_clear.o)
 .debug_ranges  0x00001dc8       0x10 c:/program files/microchip/xc32/v4.35/bin/bin/../../lib/gcc/pic32c/8.3.1/../../../../pic32c/lib/thumb/v6-m/nofp\libpic32c.a(pic32_data_init_copy.o)

.debug_line     0x00000000    0x1b2db
 .debug_line    0x00000000       0x6e build/default/production/_ext/1171490990/exceptions.o
 .debug_line    0x0000006e      0x261 build/default/production/_ext/1655452824/mac_task.o
 .debug_line    0x000002cf      0x467 build/default/production/_ext/1655452824/mac_process_beacon_frame.o
 .debug_line    0x00000736      0x15d build/default/production/_ext/1171490990/freertos_hooks.o
 .debug_line    0x00000893      0x36b build/default/production/_ext/1865468468/plib_nvic.o
 .debug_line    0x00000bfe      0x372 build/default/production/_ext/1655452824/mac_sync.o
 .debug_line    0x00000f70      0x73e build/default/production/_ext/559172130/phy_init.o
 .debug_line    0x000016ae      0x2a2 build/default/production/_ext/60167341/plib_eic.o
 .debug_line    0x00001950      0x9ff build/default/production/_ext/1655452824/mac_data_req.o
 .debug_line    0x0000234f     0x1892 build/default/production/_ext/404212886/FreeRTOS_tasks.o
 .debug_line    0x00003be1       0xba build/default/production/_ext/1171490990/interrupts.o
 .debug_line    0x00003c9b      0x1aa build/default/production/_ext/1655452824/mac_dispatcher.o
 .debug_line    0x00003e45      0x34f build/default/production/_ext/829342655/plib_tc3.o
 .debug_line    0x00004194      0x303 build/default/production/_ext/1655452824/mac_data_extract_mhr.o
 .debug_line    0x00004497      0x2c5 build/default/production/_ext/1881668453/sys_int.o
 .debug_line    0x0000475c      0x23c build/default/production/_ext/559172130/phy_rx_enable.o
 .debug_line    0x00004998       0xd6 build/default/production/_ext/1655452824/usr_mlme_sync_loss_ind.o
 .debug_line    0x00004a6e      0x2c9 build/default/production/_ext/1529399856/osal_freertos_extend.o
 .debug_line    0x00004d37     0x1200 build/default/production/_ext/101884895/sys_time.o
 .debug_line    0x00005f37      0x30a build/default/production/_ext/1865521619/plib_port.o
 .debug_line    0x00006241      0x26f build/default/production/_ext/559172130/phy_pwr_mgmt.o
 .debug_line    0x000064b0      0x429 build/default/production/_ext/1655452824/mac_tx_coord_realignment_command.o
 .debug_line    0x000068d9      0x4c3 build/default/production/_ext/559172130/phy_tx.o
 .debug_line    0x00006d9c      0x77a build/default/production/_ext/17022449/plib_sercom4_spi_master.o
 .debug_line    0x00007516      0x86d build/default/production/_ext/1655452824/mac_associate.o
 .debug_line    0x00007d83      0xa01 build/default/production/_ext/1655452824/mac_pib.o
 .debug_line    0x00008784      0x157 build/default/production/_ext/1171490990/startup_xc32.o
 .debug_line    0x000088db      0x573 build/default/production/_ext/1655452824/mac_beacon.o
 .debug_line    0x00008e4e      0x65c build/default/production/_ext/1832805299/sys_console.o
 .debug_line    0x000094aa      0x187 build/default/production/_ext/1360937237/app.o
 .debug_line    0x00009631      0x3cc build/default/production/_ext/1655452824/mac_rx_enable.o
 .debug_line    0x000099fd      0x315 build/default/production/_ext/1655452824/mac.o
 .debug_line    0x00009d12       0x6d build/default/production/_ext/1360937237/main.o
 .debug_line    0x00009d7f      0x1e4 build/default/production/_ext/1984496892/plib_clock.o
 .debug_line    0x00009f63      0x266 build/default/production/_ext/957911548/phy_task.o
 .debug_line    0x0000a1c9      0x43c build/default/production/_ext/1529399856/osal_freertos.o
 .debug_line    0x0000a605      0x7e1 build/default/production/_ext/559172130/phy_pib.o
 .debug_line    0x0000ade6      0x780 build/default/production/_ext/1655452824/mac_disassociate.o
 .debug_line    0x0000b566      0x2d6 build/default/production/_ext/1655452824/mac_orphan.o
 .debug_line    0x0000b83c      0x4b6 build/default/production/_ext/1832805299/sys_console_uart.o
 .debug_line    0x0000bcf2      0x39d build/default/production/_ext/1593096446/plib_nvmctrl.o
 .debug_line    0x0000c08f      0x772 build/default/production/_ext/559172130/phy.o
 .debug_line    0x0000c801      0x500 build/default/production/_ext/1655452824/mac_process_phy_tx_frame_status.o
 .debug_line    0x0000cd01      0x68e build/default/production/_ext/1171490990/initialization.o
 .debug_line    0x0000d38f      0x204 build/default/production/_ext/1171490990/tasks.o
 .debug_line    0x0000d593      0x295 build/default/production/_ext/1374435801/bmm.o
 .debug_line    0x0000d828      0x51b build/default/production/_ext/1655452824/mac_callback_wrapper.o
 .debug_line    0x0000dd43      0x971 build/default/production/_ext/1655452824/mac_api.o
 .debug_line    0x0000e6b4      0x6f3 build/default/production/_ext/1655452824/mac_misc.o
 .debug_line    0x0000eda7      0x87a build/default/production/_ext/559172130/phy_helper.o
 .debug_line    0x0000f621      0xd34 build/default/production/_ext/504274921/plib_sercom0_usart.o
 .debug_line    0x00010355      0x28c build/default/production/_ext/559172130/phy_irq_handler.o
 .debug_line    0x000105e1      0xa98 build/default/production/_ext/1655452824/mac_mcps_data.o
 .debug_line    0x00011079      0x77c build/default/production/_ext/404212886/timers.o
 .debug_line    0x000117f5     0x10b4 build/default/production/_ext/404212886/queue.o
 .debug_line    0x000128a9      0x9ae build/default/production/_ext/1655452824/mac_data_ind.o
 .debug_line    0x00013257      0xad4 build/default/production/_ext/1655452824/mac_scan.o
 .debug_line    0x00013d2b      0x433 build/default/production/_ext/559172130/phy_trx_reg_access.o
 .debug_line    0x0001415e      0x328 build/default/production/_ext/1624415188/port.o
 .debug_line    0x00014486      0x3d9 build/default/production/_ext/1655452824/mac_poll.o
 .debug_line    0x0001485f      0x2d2 build/default/production/_ext/559172130/phy_ed.o
 .debug_line    0x00014b31      0x2c5 build/default/production/_ext/404212886/list.o
 .debug_line    0x00014df6      0x516 build/default/production/_ext/745501718/pal.o
 .debug_line    0x0001530c      0x416 build/default/production/_ext/1655452824/mac_start.o
 .debug_line    0x00015722      0x3a1 build/default/production/_ext/874725666/qmm.o
 .debug_line    0x00015ac3      0x364 build/default/production/_ext/559172130/phy_rx.o
 .debug_line    0x00015e27      0x594 build/default/production/_ext/1665200909/heap_4.o
 .debug_line    0x000163bb      0x8e0 build/default/production/_ext/85628700/demo_app_ffd.o
 .debug_line    0x00016c9b      0x54a build/default/production/_ext/85628700/usr_mac_callbacks.o
 .debug_line    0x000171e5       0xe8 c:/program files/microchip/xc32/v4.35/bin/bin/../../lib/gcc/pic32c/8.3.1/../../../../pic32c/lib/thumb/v6-m/nofp\libpic32c.a(data_init.o)
 .debug_line    0x000172cd      0x1c2 c:/program files/microchip/xc32/v4.35/bin/bin/../../lib/gcc/pic32c/8.3.1/../../../../pic32c/lib/thumb/v6-m/nofp\libc-musl.a(__libc_start_main.o)
 .debug_line    0x0001748f       0xb8 c:/program files/microchip/xc32/v4.35/bin/bin/../../lib/gcc/pic32c/8.3.1/../../../../pic32c/lib/thumb/v6-m/nofp\libc-musl.a(libc.o)
 .debug_line    0x00017547       0xfd c:/program files/microchip/xc32/v4.35/bin/bin/../../lib/gcc/pic32c/8.3.1/../../../../pic32c/lib/thumb/v6-m/nofp\libc-musl.a(rand.o)
 .debug_line    0x00017644      0x239 c:/program files/microchip/xc32/v4.35/bin/bin/../../lib/gcc/pic32c/8.3.1/../../../../pic32c/lib/thumb/v6-m/nofp\libc-musl.a(vsnprintf.o)
 .debug_line    0x0001787d       0xf1 c:/program files/microchip/xc32/v4.35/bin/bin/../../lib/gcc/pic32c/8.3.1/../../../../pic32c/lib/thumb/v6-m/nofp\libc-musl.a(memcpy.o)
 .debug_line    0x0001796e       0xe6 c:/program files/microchip/xc32/v4.35/bin/bin/../../lib/gcc/pic32c/8.3.1/../../../../pic32c/lib/thumb/v6-m/nofp\libc-musl.a(memset.o)
 .debug_line    0x00017a54       0xf1 c:/program files/microchip/xc32/v4.35/bin/bin/../../lib/gcc/pic32c/8.3.1/../../../../pic32c/lib/thumb/v6-m/nofp\libc-musl.a(strlen.o)
 .debug_line    0x00017b45      0x101 c:/program files/microchip/xc32/v4.35/bin/bin/../../lib/gcc/pic32c/8.3.1/../../../../pic32c/lib/thumb/v6-m/nofp\libc-musl.a(__environ.o)
 .debug_line    0x00017c46       0x9d c:/program files/microchip/xc32/v4.35/bin/bin/../../lib/gcc/pic32c/8.3.1/../../../../pic32c/lib/thumb/v6-m/nofp\libc-musl.a(__errno_location.o)
 .debug_line    0x00017ce3      0x203 c:/program files/microchip/xc32/v4.35/bin/bin/../../lib/gcc/pic32c/8.3.1/../../../../pic32c/lib/thumb/v6-m/nofp\libc-musl.a(vfprintf.o)
 .debug_line    0x00017ee6      0x16c c:/program files/microchip/xc32/v4.35/bin/bin/../../lib/gcc/pic32c/8.3.1/../../../../pic32c/lib/thumb/v6-m/nofp\libc-musl.a(__pop_float.o)
 .debug_line    0x00018052      0x217 c:/program files/microchip/xc32/v4.35/bin/bin/../../lib/gcc/pic32c/8.3.1/../../../../pic32c/lib/thumb/v6-m/nofp\libc-musl.a(__pop_int.o)
 .debug_line    0x00018269      0x1ce c:/program files/microchip/xc32/v4.35/bin/bin/../../lib/gcc/pic32c/8.3.1/../../../../pic32c/lib/thumb/v6-m/nofp\libc-musl.a(__pop_ptr.o)
 .debug_line    0x00018437      0x6d4 c:/program files/microchip/xc32/v4.35/bin/bin/../../lib/gcc/pic32c/8.3.1/../../../../pic32c/lib/thumb/v6-m/nofp\libc-musl.a(__printf_core.o)
 .debug_line    0x00018b0b      0x179 c:/program files/microchip/xc32/v4.35/bin/bin/../../lib/gcc/pic32c/8.3.1/../../../../pic32c/lib/thumb/v6-m/nofp\libc-musl.a(atoi.o)
 .debug_line    0x00018c84      0x162 c:/program files/microchip/xc32/v4.35/bin/bin/../../lib/gcc/pic32c/8.3.1/../../../../pic32c/lib/thumb/v6-m/nofp\libc-musl.a(tolower.o)
 .debug_line    0x00018de6      0x656 c:/program files/microchip/xc32/v4.35/bin/bin/../../lib/gcc/pic32c/8.3.1/../../../../pic32c/lib/thumb/v6-m/nofp\libc-musl.a(__fmt_a.o)
 .debug_line    0x0001943c      0x211 c:/program files/microchip/xc32/v4.35/bin/bin/../../lib/gcc/pic32c/8.3.1/../../../../pic32c/lib/thumb/v6-m/nofp\libc-musl.a(__fmt_d.o)
 .debug_line    0x0001964d      0x676 c:/program files/microchip/xc32/v4.35/bin/bin/../../lib/gcc/pic32c/8.3.1/../../../../pic32c/lib/thumb/v6-m/nofp\libc-musl.a(__fmt_fp.o)
 .debug_line    0x00019cc3      0x1bc c:/program files/microchip/xc32/v4.35/bin/bin/../../lib/gcc/pic32c/8.3.1/../../../../pic32c/lib/thumb/v6-m/nofp\libc-musl.a(__fmt_o.o)
 .debug_line    0x00019e7f      0x20d c:/program files/microchip/xc32/v4.35/bin/bin/../../lib/gcc/pic32c/8.3.1/../../../../pic32c/lib/thumb/v6-m/nofp\libc-musl.a(__fmt_s.o)
 .debug_line    0x0001a08c      0x18d c:/program files/microchip/xc32/v4.35/bin/bin/../../lib/gcc/pic32c/8.3.1/../../../../pic32c/lib/thumb/v6-m/nofp\libc-musl.a(__fmt_u.o)
 .debug_line    0x0001a219      0x2f5 c:/program files/microchip/xc32/v4.35/bin/bin/../../lib/gcc/pic32c/8.3.1/../../../../pic32c/lib/thumb/v6-m/nofp\libc-musl.a(__fmt_x.o)
 .debug_line    0x0001a50e       0xb5 c:/program files/microchip/xc32/v4.35/bin/bin/../../lib/gcc/pic32c/8.3.1/../../../../pic32c/lib/thumb/v6-m/nofp\libc-musl.a(strcpy.o)
 .debug_line    0x0001a5c3      0x162 c:/program files/microchip/xc32/v4.35/bin/bin/../../lib/gcc/pic32c/8.3.1/../../../../pic32c/lib/thumb/v6-m/nofp\libc-musl.a(toupper.o)
 .debug_line    0x0001a725      0x1dd c:/program files/microchip/xc32/v4.35/bin/bin/../../lib/gcc/pic32c/8.3.1/../../../../pic32c/lib/thumb/v6-m/nofp\libc-musl.a(__cvt_u.o)
 .debug_line    0x0001a902       0xc4 c:/program files/microchip/xc32/v4.35/bin/bin/../../lib/gcc/pic32c/8.3.1/../../../../pic32c/lib/thumb/v6-m/nofp\libc-musl.a(stpcpy.o)
 .debug_line    0x0001a9c6       0xab c:/program files/microchip/xc32/v4.35/bin/bin/../../lib/gcc/pic32c/8.3.1/thumb/v6-m/nofp\libgcc.a(_udivsi3.o)
 .debug_line    0x0001aa71       0xb9 c:/program files/microchip/xc32/v4.35/bin/bin/../../lib/gcc/pic32c/8.3.1/thumb/v6-m/nofp\libgcc.a(_divsi3.o)
 .debug_line    0x0001ab2a       0x94 c:/program files/microchip/xc32/v4.35/bin/bin/../../lib/gcc/pic32c/8.3.1/thumb/v6-m/nofp\libgcc.a(_dvmd_tls.o)
 .debug_line    0x0001abbe       0x9f c:/program files/microchip/xc32/v4.35/bin/bin/../../lib/gcc/pic32c/8.3.1/thumb/v6-m/nofp\libgcc.a(_aeabi_uldivmod.o)
 .debug_line    0x0001ac5d       0xea c:/program files/microchip/xc32/v4.35/bin/bin/../../lib/gcc/pic32c/8.3.1/thumb/v6-m/nofp\libgcc.a(_muldi3.o)
 .debug_line    0x0001ad47      0x18b c:/program files/microchip/xc32/v4.35/bin/bin/../../lib/gcc/pic32c/8.3.1/thumb/v6-m/nofp\libgcc.a(_udivmoddi4.o)
 .debug_line    0x0001aed2       0x9f c:/program files/microchip/xc32/v4.35/bin/bin/../../lib/gcc/pic32c/8.3.1/thumb/v6-m/nofp\libgcc.a(_lshrdi3.o)
 .debug_line    0x0001af71       0x9f c:/program files/microchip/xc32/v4.35/bin/bin/../../lib/gcc/pic32c/8.3.1/thumb/v6-m/nofp\libgcc.a(_ashldi3.o)
 .debug_line    0x0001b010       0x9e c:/program files/microchip/xc32/v4.35/bin/bin/../../lib/gcc/pic32c/8.3.1/thumb/v6-m/nofp\libgcc.a(_clzdi2.o)
 .debug_line    0x0001b0ae       0xa8 c:/program files/microchip/xc32/v4.35/bin/bin/../../lib/gcc/pic32c/8.3.1/thumb/v6-m/nofp\libgcc.a(_clzsi2.o)
 .debug_line    0x0001b156       0xb6 c:/program files/microchip/xc32/v4.35/bin/bin/../../lib/gcc/pic32c/8.3.1/../../../../pic32c/lib/thumb/v6-m/nofp\libpic32c.a(pic32_data_init_clear.o)
 .debug_line    0x0001b20c       0xcf c:/program files/microchip/xc32/v4.35/bin/bin/../../lib/gcc/pic32c/8.3.1/../../../../pic32c/lib/thumb/v6-m/nofp\libpic32c.a(pic32_data_init_copy.o)

.debug_str      0x00000000     0x39f7
 .debug_str     0x00000000        0x0 build/default/production/_ext/1171490990/exceptions.o
 .debug_str     0x00000000       0x94 build/default/production/_ext/1655452824/mac_task.o
 .debug_str     0x00000094       0x50 build/default/production/_ext/1655452824/mac_process_beacon_frame.o
 .debug_str     0x000000e4       0x25 build/default/production/_ext/1171490990/freertos_hooks.o
 .debug_str     0x00000109        0xa build/default/production/_ext/1865468468/plib_nvic.o
 .debug_str     0x00000113       0x65 build/default/production/_ext/1655452824/mac_sync.o
 .debug_str     0x00000178      0x182 build/default/production/_ext/559172130/phy_init.o
 .debug_str     0x000002fa       0x11 build/default/production/_ext/60167341/plib_eic.o
 .debug_str     0x0000030b       0xb1 build/default/production/_ext/1655452824/mac_data_req.o
 .debug_str     0x000003bc      0x2e8 build/default/production/_ext/404212886/FreeRTOS_tasks.o
 .debug_str     0x000006a4        0x0 build/default/production/_ext/1171490990/interrupts.o
 .debug_str     0x000006a4       0x10 build/default/production/_ext/1655452824/mac_dispatcher.o
 .debug_str     0x000006b4       0xaf build/default/production/_ext/829342655/plib_tc3.o
 .debug_str     0x00000763       0x16 build/default/production/_ext/1655452824/mac_data_extract_mhr.o
 .debug_str     0x00000779       0x32 build/default/production/_ext/1881668453/sys_int.o
 .debug_str     0x000007ab       0x2e build/default/production/_ext/559172130/phy_rx_enable.o
 .debug_str     0x000007d9        0x0 build/default/production/_ext/1655452824/usr_mlme_sync_loss_ind.o
 .debug_str     0x000007d9       0xe0 build/default/production/_ext/1529399856/osal_freertos_extend.o
 .debug_str     0x000008b9      0x16c build/default/production/_ext/101884895/sys_time.o
 .debug_str     0x00000a25        0xb build/default/production/_ext/1865521619/plib_port.o
 .debug_str     0x00000a30       0x26 build/default/production/_ext/559172130/phy_pwr_mgmt.o
 .debug_str     0x00000a56       0x15 build/default/production/_ext/1655452824/mac_tx_coord_realignment_command.o
 .debug_str     0x00000a6b       0xa4 build/default/production/_ext/559172130/phy_tx.o
 .debug_str     0x00000b0f      0x135 build/default/production/_ext/17022449/plib_sercom4_spi_master.o
 .debug_str     0x00000c44      0x184 build/default/production/_ext/1655452824/mac_associate.o
 .debug_str     0x00000dc8       0xd5 build/default/production/_ext/1655452824/mac_pib.o
 .debug_str     0x00000e9d       0x2f build/default/production/_ext/1171490990/startup_xc32.o
 .debug_str     0x00000ecc       0x32 build/default/production/_ext/1655452824/mac_beacon.o
 .debug_str     0x00000efe       0x58 build/default/production/_ext/1832805299/sys_console.o
 .debug_str     0x00000f56       0x54 build/default/production/_ext/1360937237/app.o
 .debug_str     0x00000faa       0x8c build/default/production/_ext/1655452824/mac_rx_enable.o
 .debug_str     0x00001036       0x5e build/default/production/_ext/1655452824/mac.o
 .debug_str     0x00001094       0x19 build/default/production/_ext/1360937237/main.o
 .debug_str     0x000010ad       0x28 build/default/production/_ext/1984496892/plib_clock.o
 .debug_str     0x000010d5       0x6d build/default/production/_ext/957911548/phy_task.o
 .debug_str     0x00001142      0x13b build/default/production/_ext/1529399856/osal_freertos.o
 .debug_str     0x0000127d       0x4c build/default/production/_ext/559172130/phy_pib.o
 .debug_str     0x000012c9      0x113 build/default/production/_ext/1655452824/mac_disassociate.o
 .debug_str     0x000013dc       0x66 build/default/production/_ext/1655452824/mac_orphan.o
 .debug_str     0x00001442       0xb3 build/default/production/_ext/1832805299/sys_console_uart.o
 .debug_str     0x000014f5       0x11 build/default/production/_ext/1593096446/plib_nvmctrl.o
 .debug_str     0x00001506      0x106 build/default/production/_ext/559172130/phy.o
 .debug_str     0x0000160c      0x15e build/default/production/_ext/1655452824/mac_process_phy_tx_frame_status.o
 .debug_str     0x0000176a      0x167 build/default/production/_ext/1171490990/initialization.o
 .debug_str     0x000018d1       0x4c build/default/production/_ext/1171490990/tasks.o
 .debug_str     0x0000191d       0x31 build/default/production/_ext/1374435801/bmm.o
 .debug_str     0x0000194e      0x1f7 build/default/production/_ext/1655452824/mac_callback_wrapper.o
 .debug_str     0x00001b45      0x265 build/default/production/_ext/1655452824/mac_api.o
 .debug_str     0x00001daa      0x111 build/default/production/_ext/1655452824/mac_misc.o
 .debug_str     0x00001ebb       0xa3 build/default/production/_ext/559172130/phy_helper.o
 .debug_str     0x00001f5e      0x1b1 build/default/production/_ext/504274921/plib_sercom0_usart.o
 .debug_str     0x0000210f       0x6a build/default/production/_ext/559172130/phy_irq_handler.o
 .debug_str     0x00002179      0x16a build/default/production/_ext/1655452824/mac_mcps_data.o
 .debug_str     0x000022e3      0x216 build/default/production/_ext/404212886/timers.o
 .debug_str     0x000024f9      0x329 build/default/production/_ext/404212886/queue.o
 .debug_str     0x00002822      0x22b build/default/production/_ext/1655452824/mac_data_ind.o
 .debug_str     0x00002a4d      0x10d build/default/production/_ext/1655452824/mac_scan.o
 .debug_str     0x00002b5a       0x6b build/default/production/_ext/559172130/phy_trx_reg_access.o
 .debug_str     0x00002bc5       0x26 build/default/production/_ext/1624415188/port.o
 .debug_str     0x00002beb       0x71 build/default/production/_ext/1655452824/mac_poll.o
 .debug_str     0x00002c5c       0x83 build/default/production/_ext/559172130/phy_ed.o
 .debug_str     0x00002cdf       0x2b build/default/production/_ext/404212886/list.o
 .debug_str     0x00002d0a       0xf6 build/default/production/_ext/745501718/pal.o
 .debug_str     0x00002e00       0xaa build/default/production/_ext/1655452824/mac_start.o
 .debug_str     0x00002eaa       0x20 build/default/production/_ext/874725666/qmm.o
 .debug_str     0x00002eca       0x78 build/default/production/_ext/559172130/phy_rx.o
 .debug_str     0x00002f42       0xb8 build/default/production/_ext/1665200909/heap_4.o
 .debug_str     0x00002ffa      0x139 build/default/production/_ext/85628700/demo_app_ffd.o
 .debug_str     0x00003133      0x134 build/default/production/_ext/85628700/usr_mac_callbacks.o
 .debug_str     0x00003267        0x0 c:/program files/microchip/xc32/v4.35/bin/bin/../../lib/gcc/pic32c/8.3.1/../../../../pic32c/lib/thumb/v6-m/nofp\libpic32c.a(data_init.o)
 .debug_str     0x00003267        0x0 c:/program files/microchip/xc32/v4.35/bin/bin/../../lib/gcc/pic32c/8.3.1/../../../../pic32c/lib/thumb/v6-m/nofp\libc-musl.a(__libc_start_main.o)
 .debug_str     0x00003267        0x0 c:/program files/microchip/xc32/v4.35/bin/bin/../../lib/gcc/pic32c/8.3.1/../../../../pic32c/lib/thumb/v6-m/nofp\libc-musl.a(libc.o)
 .debug_str     0x00003267        0x0 c:/program files/microchip/xc32/v4.35/bin/bin/../../lib/gcc/pic32c/8.3.1/../../../../pic32c/lib/thumb/v6-m/nofp\libc-musl.a(rand.o)
 .debug_str     0x00003267        0x9 c:/program files/microchip/xc32/v4.35/bin/bin/../../lib/gcc/pic32c/8.3.1/../../../../pic32c/lib/thumb/v6-m/nofp\libc-musl.a(vsnprintf.o)
 .debug_str     0x00003270        0x0 c:/program files/microchip/xc32/v4.35/bin/bin/../../lib/gcc/pic32c/8.3.1/../../../../pic32c/lib/thumb/v6-m/nofp\libc-musl.a(memcpy.o)
 .debug_str     0x00003270        0x0 c:/program files/microchip/xc32/v4.35/bin/bin/../../lib/gcc/pic32c/8.3.1/../../../../pic32c/lib/thumb/v6-m/nofp\libc-musl.a(memset.o)
 .debug_str     0x00003270        0x0 c:/program files/microchip/xc32/v4.35/bin/bin/../../lib/gcc/pic32c/8.3.1/../../../../pic32c/lib/thumb/v6-m/nofp\libc-musl.a(strlen.o)
 .debug_str     0x00003270        0x0 c:/program files/microchip/xc32/v4.35/bin/bin/../../lib/gcc/pic32c/8.3.1/../../../../pic32c/lib/thumb/v6-m/nofp\libc-musl.a(__environ.o)
 .debug_str     0x00003270        0x0 c:/program files/microchip/xc32/v4.35/bin/bin/../../lib/gcc/pic32c/8.3.1/../../../../pic32c/lib/thumb/v6-m/nofp\libc-musl.a(__errno_location.o)
 .debug_str     0x00003270       0x1e c:/program files/microchip/xc32/v4.35/bin/bin/../../lib/gcc/pic32c/8.3.1/../../../../pic32c/lib/thumb/v6-m/nofp\libc-musl.a(vfprintf.o)
 .debug_str     0x0000328e        0x0 c:/program files/microchip/xc32/v4.35/bin/bin/../../lib/gcc/pic32c/8.3.1/../../../../pic32c/lib/thumb/v6-m/nofp\libc-musl.a(__pop_float.o)
 .debug_str     0x0000328e        0x0 c:/program files/microchip/xc32/v4.35/bin/bin/../../lib/gcc/pic32c/8.3.1/../../../../pic32c/lib/thumb/v6-m/nofp\libc-musl.a(__pop_int.o)
 .debug_str     0x0000328e        0x0 c:/program files/microchip/xc32/v4.35/bin/bin/../../lib/gcc/pic32c/8.3.1/../../../../pic32c/lib/thumb/v6-m/nofp\libc-musl.a(__pop_ptr.o)
 .debug_str     0x0000328e       0x20 c:/program files/microchip/xc32/v4.35/bin/bin/../../lib/gcc/pic32c/8.3.1/../../../../pic32c/lib/thumb/v6-m/nofp\libc-musl.a(__printf_core.o)
 .debug_str     0x000032ae        0x0 c:/program files/microchip/xc32/v4.35/bin/bin/../../lib/gcc/pic32c/8.3.1/../../../../pic32c/lib/thumb/v6-m/nofp\libc-musl.a(atoi.o)
 .debug_str     0x000032ae        0x0 c:/program files/microchip/xc32/v4.35/bin/bin/../../lib/gcc/pic32c/8.3.1/../../../../pic32c/lib/thumb/v6-m/nofp\libc-musl.a(tolower.o)
 .debug_str     0x000032ae        0x0 c:/program files/microchip/xc32/v4.35/bin/bin/../../lib/gcc/pic32c/8.3.1/../../../../pic32c/lib/thumb/v6-m/nofp\libc-musl.a(__fmt_a.o)
 .debug_str     0x000032ae        0x0 c:/program files/microchip/xc32/v4.35/bin/bin/../../lib/gcc/pic32c/8.3.1/../../../../pic32c/lib/thumb/v6-m/nofp\libc-musl.a(__fmt_d.o)
 .debug_str     0x000032ae        0x0 c:/program files/microchip/xc32/v4.35/bin/bin/../../lib/gcc/pic32c/8.3.1/../../../../pic32c/lib/thumb/v6-m/nofp\libc-musl.a(__fmt_fp.o)
 .debug_str     0x000032ae        0x0 c:/program files/microchip/xc32/v4.35/bin/bin/../../lib/gcc/pic32c/8.3.1/../../../../pic32c/lib/thumb/v6-m/nofp\libc-musl.a(__fmt_o.o)
 .debug_str     0x000032ae        0x0 c:/program files/microchip/xc32/v4.35/bin/bin/../../lib/gcc/pic32c/8.3.1/../../../../pic32c/lib/thumb/v6-m/nofp\libc-musl.a(__fmt_s.o)
 .debug_str     0x000032ae        0x0 c:/program files/microchip/xc32/v4.35/bin/bin/../../lib/gcc/pic32c/8.3.1/../../../../pic32c/lib/thumb/v6-m/nofp\libc-musl.a(__fmt_u.o)
 .debug_str     0x000032ae        0x0 c:/program files/microchip/xc32/v4.35/bin/bin/../../lib/gcc/pic32c/8.3.1/../../../../pic32c/lib/thumb/v6-m/nofp\libc-musl.a(__fmt_x.o)
 .debug_str     0x000032ae        0x9 c:/program files/microchip/xc32/v4.35/bin/bin/../../lib/gcc/pic32c/8.3.1/../../../../pic32c/lib/thumb/v6-m/nofp\libc-musl.a(strcpy.o)
 .debug_str     0x000032b7        0x0 c:/program files/microchip/xc32/v4.35/bin/bin/../../lib/gcc/pic32c/8.3.1/../../../../pic32c/lib/thumb/v6-m/nofp\libc-musl.a(toupper.o)
 .debug_str     0x000032b7        0x0 c:/program files/microchip/xc32/v4.35/bin/bin/../../lib/gcc/pic32c/8.3.1/../../../../pic32c/lib/thumb/v6-m/nofp\libc-musl.a(__cvt_u.o)
 .debug_str     0x000032b7        0x0 c:/program files/microchip/xc32/v4.35/bin/bin/../../lib/gcc/pic32c/8.3.1/../../../../pic32c/lib/thumb/v6-m/nofp\libc-musl.a(stpcpy.o)
 .debug_str     0x000032b7       0xe8 c:/program files/microchip/xc32/v4.35/bin/bin/../../lib/gcc/pic32c/8.3.1/thumb/v6-m/nofp\libgcc.a(_udivsi3.o)
 .debug_str     0x0000339f       0xe8 c:/program files/microchip/xc32/v4.35/bin/bin/../../lib/gcc/pic32c/8.3.1/thumb/v6-m/nofp\libgcc.a(_divsi3.o)
 .debug_str     0x00003487       0xe8 c:/program files/microchip/xc32/v4.35/bin/bin/../../lib/gcc/pic32c/8.3.1/thumb/v6-m/nofp\libgcc.a(_dvmd_tls.o)
 .debug_str     0x0000356f       0xe8 c:/program files/microchip/xc32/v4.35/bin/bin/../../lib/gcc/pic32c/8.3.1/thumb/v6-m/nofp\libgcc.a(_aeabi_uldivmod.o)
 .debug_str     0x00003657        0x0 c:/program files/microchip/xc32/v4.35/bin/bin/../../lib/gcc/pic32c/8.3.1/thumb/v6-m/nofp\libgcc.a(_muldi3.o)
 .debug_str     0x00003657        0x0 c:/program files/microchip/xc32/v4.35/bin/bin/../../lib/gcc/pic32c/8.3.1/thumb/v6-m/nofp\libgcc.a(_udivmoddi4.o)
 .debug_str     0x00003657       0xe8 c:/program files/microchip/xc32/v4.35/bin/bin/../../lib/gcc/pic32c/8.3.1/thumb/v6-m/nofp\libgcc.a(_lshrdi3.o)
 .debug_str     0x0000373f       0xe8 c:/program files/microchip/xc32/v4.35/bin/bin/../../lib/gcc/pic32c/8.3.1/thumb/v6-m/nofp\libgcc.a(_ashldi3.o)
 .debug_str     0x00003827       0xe8 c:/program files/microchip/xc32/v4.35/bin/bin/../../lib/gcc/pic32c/8.3.1/thumb/v6-m/nofp\libgcc.a(_clzdi2.o)
 .debug_str     0x0000390f       0xe8 c:/program files/microchip/xc32/v4.35/bin/bin/../../lib/gcc/pic32c/8.3.1/thumb/v6-m/nofp\libgcc.a(_clzsi2.o)
 .debug_str     0x000039f7        0x0 c:/program files/microchip/xc32/v4.35/bin/bin/../../lib/gcc/pic32c/8.3.1/../../../../pic32c/lib/thumb/v6-m/nofp\libpic32c.a(pic32_data_init_clear.o)
 .debug_str     0x000039f7        0x0 c:/program files/microchip/xc32/v4.35/bin/bin/../../lib/gcc/pic32c/8.3.1/../../../../pic32c/lib/thumb/v6-m/nofp\libpic32c.a(pic32_data_init_copy.o)

.debug_frame    0x00000000     0x3ef0
 .debug_frame   0x00000000       0x30 build/default/production/_ext/1171490990/exceptions.o
 .debug_frame   0x00000030       0x48 build/default/production/_ext/1655452824/mac_task.o
 .debug_frame   0x00000078       0x3c build/default/production/_ext/1655452824/mac_process_beacon_frame.o
 .debug_frame   0x000000b4       0x68 build/default/production/_ext/1171490990/freertos_hooks.o
 .debug_frame   0x0000011c       0x58 build/default/production/_ext/1865468468/plib_nvic.o
 .debug_frame   0x00000174       0x44 build/default/production/_ext/1655452824/mac_sync.o
 .debug_frame   0x000001b8       0xb4 build/default/production/_ext/559172130/phy_init.o
 .debug_frame   0x0000026c       0x7c build/default/production/_ext/60167341/plib_eic.o
 .debug_frame   0x000002e8       0xb8 build/default/production/_ext/1655452824/mac_data_req.o
 .debug_frame   0x000003a0      0x4dc build/default/production/_ext/404212886/FreeRTOS_tasks.o
 .debug_frame   0x0000087c       0x20 build/default/production/_ext/1171490990/interrupts.o
 .debug_frame   0x0000089c       0x28 build/default/production/_ext/1655452824/mac_dispatcher.o
 .debug_frame   0x000008c4       0xd8 build/default/production/_ext/829342655/plib_tc3.o
 .debug_frame   0x0000099c       0x30 build/default/production/_ext/1655452824/mac_data_extract_mhr.o
 .debug_frame   0x000009cc       0x84 build/default/production/_ext/1881668453/sys_int.o
 .debug_frame   0x00000a50       0x28 build/default/production/_ext/559172130/phy_rx_enable.o
 .debug_frame   0x00000a78       0x20 build/default/production/_ext/1655452824/usr_mlme_sync_loss_ind.o
 .debug_frame   0x00000a98       0xd0 build/default/production/_ext/1529399856/osal_freertos_extend.o
 .debug_frame   0x00000b68      0x3a0 build/default/production/_ext/101884895/sys_time.o
 .debug_frame   0x00000f08       0xd4 build/default/production/_ext/1865521619/plib_port.o
 .debug_frame   0x00000fdc       0x58 build/default/production/_ext/559172130/phy_pwr_mgmt.o
 .debug_frame   0x00001034       0x38 build/default/production/_ext/1655452824/mac_tx_coord_realignment_command.o
 .debug_frame   0x0000106c       0xb0 build/default/production/_ext/559172130/phy_tx.o
 .debug_frame   0x0000111c       0xd4 build/default/production/_ext/17022449/plib_sercom4_spi_master.o
 .debug_frame   0x000011f0       0xe0 build/default/production/_ext/1655452824/mac_associate.o
 .debug_frame   0x000012d0       0xb0 build/default/production/_ext/1655452824/mac_pib.o
 .debug_frame   0x00001380       0x38 build/default/production/_ext/1171490990/startup_xc32.o
 .debug_frame   0x000013b8       0x84 build/default/production/_ext/1655452824/mac_beacon.o
 .debug_frame   0x0000143c      0x15c build/default/production/_ext/1832805299/sys_console.o
 .debug_frame   0x00001598       0x44 build/default/production/_ext/1360937237/app.o
 .debug_frame   0x000015dc       0x60 build/default/production/_ext/1655452824/mac_rx_enable.o
 .debug_frame   0x0000163c       0x58 build/default/production/_ext/1655452824/mac.o
 .debug_frame   0x00001694       0x28 build/default/production/_ext/1360937237/main.o
 .debug_frame   0x000016bc       0x20 build/default/production/_ext/1984496892/plib_clock.o
 .debug_frame   0x000016dc       0x70 build/default/production/_ext/957911548/phy_task.o
 .debug_frame   0x0000174c      0x174 build/default/production/_ext/1529399856/osal_freertos.o
 .debug_frame   0x000018c0       0x90 build/default/production/_ext/559172130/phy_pib.o
 .debug_frame   0x00001950       0x90 build/default/production/_ext/1655452824/mac_disassociate.o
 .debug_frame   0x000019e0       0x4c build/default/production/_ext/1655452824/mac_orphan.o
 .debug_frame   0x00001a2c      0x118 build/default/production/_ext/1832805299/sys_console_uart.o
 .debug_frame   0x00001b44      0x108 build/default/production/_ext/1593096446/plib_nvmctrl.o
 .debug_frame   0x00001c4c      0x104 build/default/production/_ext/559172130/phy.o
 .debug_frame   0x00001d50       0x54 build/default/production/_ext/1655452824/mac_process_phy_tx_frame_status.o
 .debug_frame   0x00001da4       0x28 build/default/production/_ext/1171490990/initialization.o
 .debug_frame   0x00001dcc       0x74 build/default/production/_ext/1171490990/tasks.o
 .debug_frame   0x00001e40       0x70 build/default/production/_ext/1374435801/bmm.o
 .debug_frame   0x00001eb0      0x1e0 build/default/production/_ext/1655452824/mac_callback_wrapper.o
 .debug_frame   0x00002090      0x1dc build/default/production/_ext/1655452824/mac_api.o
 .debug_frame   0x0000226c      0x120 build/default/production/_ext/1655452824/mac_misc.o
 .debug_frame   0x0000238c      0x184 build/default/production/_ext/559172130/phy_helper.o
 .debug_frame   0x00002510      0x254 build/default/production/_ext/504274921/plib_sercom0_usart.o
 .debug_frame   0x00002764       0x58 build/default/production/_ext/559172130/phy_irq_handler.o
 .debug_frame   0x000027bc       0xf8 build/default/production/_ext/1655452824/mac_mcps_data.o
 .debug_frame   0x000028b4      0x1ac build/default/production/_ext/404212886/timers.o
 .debug_frame   0x00002a60      0x324 build/default/production/_ext/404212886/queue.o
 .debug_frame   0x00002d84       0x8c build/default/production/_ext/1655452824/mac_data_ind.o
 .debug_frame   0x00002e10      0x110 build/default/production/_ext/1655452824/mac_scan.o
 .debug_frame   0x00002f20       0xf4 build/default/production/_ext/559172130/phy_trx_reg_access.o
 .debug_frame   0x00003014      0x10c build/default/production/_ext/1624415188/port.o
 .debug_frame   0x00003120       0x74 build/default/production/_ext/1655452824/mac_poll.o
 .debug_frame   0x00003194       0x5c build/default/production/_ext/559172130/phy_ed.o
 .debug_frame   0x000031f0       0x6c build/default/production/_ext/404212886/list.o
 .debug_frame   0x0000325c      0x12c build/default/production/_ext/745501718/pal.o
 .debug_frame   0x00003388       0x64 build/default/production/_ext/1655452824/mac_start.o
 .debug_frame   0x000033ec       0x84 build/default/production/_ext/874725666/qmm.o
 .debug_frame   0x00003470       0x48 build/default/production/_ext/559172130/phy_rx.o
 .debug_frame   0x000034b8       0xb0 build/default/production/_ext/1665200909/heap_4.o
 .debug_frame   0x00003568      0x1c4 build/default/production/_ext/85628700/demo_app_ffd.o
 .debug_frame   0x0000372c      0x1c0 build/default/production/_ext/85628700/usr_mac_callbacks.o
 .debug_frame   0x000038ec       0x38 c:/program files/microchip/xc32/v4.35/bin/bin/../../lib/gcc/pic32c/8.3.1/../../../../pic32c/lib/thumb/v6-m/nofp\libpic32c.a(data_init.o)
 .debug_frame   0x00003924       0x38 c:/program files/microchip/xc32/v4.35/bin/bin/../../lib/gcc/pic32c/8.3.1/../../../../pic32c/lib/thumb/v6-m/nofp\libc-musl.a(__libc_start_main.o)
 .debug_frame   0x0000395c       0x30 c:/program files/microchip/xc32/v4.35/bin/bin/../../lib/gcc/pic32c/8.3.1/../../../../pic32c/lib/thumb/v6-m/nofp\libc-musl.a(rand.o)
 .debug_frame   0x0000398c       0x34 c:/program files/microchip/xc32/v4.35/bin/bin/../../lib/gcc/pic32c/8.3.1/../../../../pic32c/lib/thumb/v6-m/nofp\libc-musl.a(vsnprintf.o)
 .debug_frame   0x000039c0       0x28 c:/program files/microchip/xc32/v4.35/bin/bin/../../lib/gcc/pic32c/8.3.1/../../../../pic32c/lib/thumb/v6-m/nofp\libc-musl.a(memcpy.o)
 .debug_frame   0x000039e8       0x20 c:/program files/microchip/xc32/v4.35/bin/bin/../../lib/gcc/pic32c/8.3.1/../../../../pic32c/lib/thumb/v6-m/nofp\libc-musl.a(memset.o)
 .debug_frame   0x00003a08       0x20 c:/program files/microchip/xc32/v4.35/bin/bin/../../lib/gcc/pic32c/8.3.1/../../../../pic32c/lib/thumb/v6-m/nofp\libc-musl.a(strlen.o)
 .debug_frame   0x00003a28       0x44 c:/program files/microchip/xc32/v4.35/bin/bin/../../lib/gcc/pic32c/8.3.1/../../../../pic32c/lib/thumb/v6-m/nofp\libc-musl.a(vfprintf.o)
 .debug_frame   0x00003a6c       0x20 c:/program files/microchip/xc32/v4.35/bin/bin/../../lib/gcc/pic32c/8.3.1/../../../../pic32c/lib/thumb/v6-m/nofp\libc-musl.a(__pop_float.o)
 .debug_frame   0x00003a8c       0x28 c:/program files/microchip/xc32/v4.35/bin/bin/../../lib/gcc/pic32c/8.3.1/../../../../pic32c/lib/thumb/v6-m/nofp\libc-musl.a(__pop_int.o)
 .debug_frame   0x00003ab4       0x28 c:/program files/microchip/xc32/v4.35/bin/bin/../../lib/gcc/pic32c/8.3.1/../../../../pic32c/lib/thumb/v6-m/nofp\libc-musl.a(__pop_ptr.o)
 .debug_frame   0x00003adc       0xc0 c:/program files/microchip/xc32/v4.35/bin/bin/../../lib/gcc/pic32c/8.3.1/../../../../pic32c/lib/thumb/v6-m/nofp\libc-musl.a(__printf_core.o)
 .debug_frame   0x00003b9c       0x28 c:/program files/microchip/xc32/v4.35/bin/bin/../../lib/gcc/pic32c/8.3.1/../../../../pic32c/lib/thumb/v6-m/nofp\libc-musl.a(atoi.o)
 .debug_frame   0x00003bc4       0x38 c:/program files/microchip/xc32/v4.35/bin/bin/../../lib/gcc/pic32c/8.3.1/../../../../pic32c/lib/thumb/v6-m/nofp\libc-musl.a(tolower.o)
 .debug_frame   0x00003bfc       0x30 c:/program files/microchip/xc32/v4.35/bin/bin/../../lib/gcc/pic32c/8.3.1/../../../../pic32c/lib/thumb/v6-m/nofp\libc-musl.a(__fmt_a.o)
 .debug_frame   0x00003c2c       0x30 c:/program files/microchip/xc32/v4.35/bin/bin/../../lib/gcc/pic32c/8.3.1/../../../../pic32c/lib/thumb/v6-m/nofp\libc-musl.a(__fmt_d.o)
 .debug_frame   0x00003c5c       0x34 c:/program files/microchip/xc32/v4.35/bin/bin/../../lib/gcc/pic32c/8.3.1/../../../../pic32c/lib/thumb/v6-m/nofp\libc-musl.a(__fmt_fp.o)
 .debug_frame   0x00003c90       0x30 c:/program files/microchip/xc32/v4.35/bin/bin/../../lib/gcc/pic32c/8.3.1/../../../../pic32c/lib/thumb/v6-m/nofp\libc-musl.a(__fmt_o.o)
 .debug_frame   0x00003cc0       0x30 c:/program files/microchip/xc32/v4.35/bin/bin/../../lib/gcc/pic32c/8.3.1/../../../../pic32c/lib/thumb/v6-m/nofp\libc-musl.a(__fmt_s.o)
 .debug_frame   0x00003cf0       0x30 c:/program files/microchip/xc32/v4.35/bin/bin/../../lib/gcc/pic32c/8.3.1/../../../../pic32c/lib/thumb/v6-m/nofp\libc-musl.a(__fmt_u.o)
 .debug_frame   0x00003d20       0x30 c:/program files/microchip/xc32/v4.35/bin/bin/../../lib/gcc/pic32c/8.3.1/../../../../pic32c/lib/thumb/v6-m/nofp\libc-musl.a(__fmt_x.o)
 .debug_frame   0x00003d50       0x28 c:/program files/microchip/xc32/v4.35/bin/bin/../../lib/gcc/pic32c/8.3.1/../../../../pic32c/lib/thumb/v6-m/nofp\libc-musl.a(strcpy.o)
 .debug_frame   0x00003d78       0x38 c:/program files/microchip/xc32/v4.35/bin/bin/../../lib/gcc/pic32c/8.3.1/../../../../pic32c/lib/thumb/v6-m/nofp\libc-musl.a(toupper.o)
 .debug_frame   0x00003db0       0x34 c:/program files/microchip/xc32/v4.35/bin/bin/../../lib/gcc/pic32c/8.3.1/../../../../pic32c/lib/thumb/v6-m/nofp\libc-musl.a(__cvt_u.o)
 .debug_frame   0x00003de4       0x20 c:/program files/microchip/xc32/v4.35/bin/bin/../../lib/gcc/pic32c/8.3.1/../../../../pic32c/lib/thumb/v6-m/nofp\libc-musl.a(stpcpy.o)
 .debug_frame   0x00003e04       0x20 c:/program files/microchip/xc32/v4.35/bin/bin/../../lib/gcc/pic32c/8.3.1/thumb/v6-m/nofp\libgcc.a(_udivsi3.o)
 .debug_frame   0x00003e24       0x20 c:/program files/microchip/xc32/v4.35/bin/bin/../../lib/gcc/pic32c/8.3.1/thumb/v6-m/nofp\libgcc.a(_divsi3.o)
 .debug_frame   0x00003e44       0x34 c:/program files/microchip/xc32/v4.35/bin/bin/../../lib/gcc/pic32c/8.3.1/thumb/v6-m/nofp\libgcc.a(_muldi3.o)
 .debug_frame   0x00003e78       0x30 c:/program files/microchip/xc32/v4.35/bin/bin/../../lib/gcc/pic32c/8.3.1/thumb/v6-m/nofp\libgcc.a(_udivmoddi4.o)
 .debug_frame   0x00003ea8       0x20 c:/program files/microchip/xc32/v4.35/bin/bin/../../lib/gcc/pic32c/8.3.1/../../../../pic32c/lib/thumb/v6-m/nofp\libpic32c.a(pic32_data_init_clear.o)
 .debug_frame   0x00003ec8       0x28 c:/program files/microchip/xc32/v4.35/bin/bin/../../lib/gcc/pic32c/8.3.1/../../../../pic32c/lib/thumb/v6-m/nofp\libpic32c.a(pic32_data_init_copy.o)

.debug_loc      0x00000000    0x1e4ae
 .debug_loc     0x00000000       0x7a build/default/production/_ext/1655452824/mac_task.o
 .debug_loc     0x0000007a      0x217 build/default/production/_ext/1655452824/mac_process_beacon_frame.o
 .debug_loc     0x00000291       0x76 build/default/production/_ext/1171490990/freertos_hooks.o
 .debug_loc     0x00000307      0x156 build/default/production/_ext/1865468468/plib_nvic.o
 .debug_loc     0x0000045d      0x132 build/default/production/_ext/1655452824/mac_sync.o
 .debug_loc     0x0000058f      0x360 build/default/production/_ext/559172130/phy_init.o
 .debug_loc     0x000008ef       0xf0 build/default/production/_ext/60167341/plib_eic.o
 .debug_loc     0x000009df      0xf88 build/default/production/_ext/1655452824/mac_data_req.o
 .debug_loc     0x00001967     0x22d4 build/default/production/_ext/404212886/FreeRTOS_tasks.o
 .debug_loc     0x00003c3b       0xa8 build/default/production/_ext/1655452824/mac_dispatcher.o
 .debug_loc     0x00003ce3       0x6f build/default/production/_ext/829342655/plib_tc3.o
 .debug_loc     0x00003d52      0x33d build/default/production/_ext/1655452824/mac_data_extract_mhr.o
 .debug_loc     0x0000408f      0x17d build/default/production/_ext/1881668453/sys_int.o
 .debug_loc     0x0000420c       0x9c build/default/production/_ext/559172130/phy_rx_enable.o
 .debug_loc     0x000042a8       0x94 build/default/production/_ext/1655452824/usr_mlme_sync_loss_ind.o
 .debug_loc     0x0000433c      0x4dc build/default/production/_ext/1529399856/osal_freertos_extend.o
 .debug_loc     0x00004818     0x2371 build/default/production/_ext/101884895/sys_time.o
 .debug_loc     0x00006b89      0x246 build/default/production/_ext/1865521619/plib_port.o
 .debug_loc     0x00006dcf       0xc9 build/default/production/_ext/559172130/phy_pwr_mgmt.o
 .debug_loc     0x00006e98      0x5f7 build/default/production/_ext/1655452824/mac_tx_coord_realignment_command.o
 .debug_loc     0x0000748f      0x2ea build/default/production/_ext/559172130/phy_tx.o
 .debug_loc     0x00007779      0x68a build/default/production/_ext/17022449/plib_sercom4_spi_master.o
 .debug_loc     0x00007e03      0xce9 build/default/production/_ext/1655452824/mac_associate.o
 .debug_loc     0x00008aec      0xd4f build/default/production/_ext/1655452824/mac_pib.o
 .debug_loc     0x0000983b       0x20 build/default/production/_ext/1171490990/startup_xc32.o
 .debug_loc     0x0000985b      0x6fe build/default/production/_ext/1655452824/mac_beacon.o
 .debug_loc     0x00009f59      0xb69 build/default/production/_ext/1832805299/sys_console.o
 .debug_loc     0x0000aac2       0x63 build/default/production/_ext/1360937237/app.o
 .debug_loc     0x0000ab25      0x28a build/default/production/_ext/1655452824/mac_rx_enable.o
 .debug_loc     0x0000adaf      0x19e build/default/production/_ext/1655452824/mac.o
 .debug_loc     0x0000af4d       0x20 build/default/production/_ext/1360937237/main.o
 .debug_loc     0x0000af6d       0x31 build/default/production/_ext/1984496892/plib_clock.o
 .debug_loc     0x0000af9e      0x1ce build/default/production/_ext/957911548/phy_task.o
 .debug_loc     0x0000b16c      0x70a build/default/production/_ext/1529399856/osal_freertos.o
 .debug_loc     0x0000b876      0x954 build/default/production/_ext/559172130/phy_pib.o
 .debug_loc     0x0000c1ca      0x97c build/default/production/_ext/1655452824/mac_disassociate.o
 .debug_loc     0x0000cb46      0x10b build/default/production/_ext/1655452824/mac_orphan.o
 .debug_loc     0x0000cc51      0x83c build/default/production/_ext/1832805299/sys_console_uart.o
 .debug_loc     0x0000d48d      0x42e build/default/production/_ext/1593096446/plib_nvmctrl.o
 .debug_loc     0x0000d8bb      0x418 build/default/production/_ext/559172130/phy.o
 .debug_loc     0x0000dcd3      0x5c4 build/default/production/_ext/1655452824/mac_process_phy_tx_frame_status.o
 .debug_loc     0x0000e297       0x45 build/default/production/_ext/1171490990/initialization.o
 .debug_loc     0x0000e2dc       0xfb build/default/production/_ext/1171490990/tasks.o
 .debug_loc     0x0000e3d7      0x1d1 build/default/production/_ext/1374435801/bmm.o
 .debug_loc     0x0000e5a8      0x7e1 build/default/production/_ext/1655452824/mac_callback_wrapper.o
 .debug_loc     0x0000ed89      0xffa build/default/production/_ext/1655452824/mac_api.o
 .debug_loc     0x0000fd83      0x3c6 build/default/production/_ext/1655452824/mac_misc.o
 .debug_loc     0x00010149      0xf4b build/default/production/_ext/559172130/phy_helper.o
 .debug_loc     0x00011094      0xdd8 build/default/production/_ext/504274921/plib_sercom0_usart.o
 .debug_loc     0x00011e6c       0xdb build/default/production/_ext/559172130/phy_irq_handler.o
 .debug_loc     0x00011f47      0xc65 build/default/production/_ext/1655452824/mac_mcps_data.o
 .debug_loc     0x00012bac      0xe33 build/default/production/_ext/404212886/timers.o
 .debug_loc     0x000139df     0x1e45 build/default/production/_ext/404212886/queue.o
 .debug_loc     0x00015824      0xad5 build/default/production/_ext/1655452824/mac_data_ind.o
 .debug_loc     0x000162f9      0xa58 build/default/production/_ext/1655452824/mac_scan.o
 .debug_loc     0x00016d51      0x4ad build/default/production/_ext/559172130/phy_trx_reg_access.o
 .debug_loc     0x000171fe      0x14d build/default/production/_ext/1624415188/port.o
 .debug_loc     0x0001734b      0x28d build/default/production/_ext/1655452824/mac_poll.o
 .debug_loc     0x000175d8       0xc4 build/default/production/_ext/559172130/phy_ed.o
 .debug_loc     0x0001769c       0xa6 build/default/production/_ext/404212886/list.o
 .debug_loc     0x00017742      0x7d2 build/default/production/_ext/745501718/pal.o
 .debug_loc     0x00017f14      0x33e build/default/production/_ext/1655452824/mac_start.o
 .debug_loc     0x00018252      0x541 build/default/production/_ext/874725666/qmm.o
 .debug_loc     0x00018793      0x276 build/default/production/_ext/559172130/phy_rx.o
 .debug_loc     0x00018a09      0x588 build/default/production/_ext/1665200909/heap_4.o
 .debug_loc     0x00018f91      0xafc build/default/production/_ext/85628700/demo_app_ffd.o
 .debug_loc     0x00019a8d      0xb2e build/default/production/_ext/85628700/usr_mac_callbacks.o
 .debug_loc     0x0001a5bb       0x14 c:/program files/microchip/xc32/v4.35/bin/bin/../../lib/gcc/pic32c/8.3.1/../../../../pic32c/lib/thumb/v6-m/nofp\libpic32c.a(data_init.o)
 .debug_loc     0x0001a5cf       0x5e c:/program files/microchip/xc32/v4.35/bin/bin/../../lib/gcc/pic32c/8.3.1/../../../../pic32c/lib/thumb/v6-m/nofp\libc-musl.a(__libc_start_main.o)
 .debug_loc     0x0001a62d       0x24 c:/program files/microchip/xc32/v4.35/bin/bin/../../lib/gcc/pic32c/8.3.1/../../../../pic32c/lib/thumb/v6-m/nofp\libc-musl.a(rand.o)
 .debug_loc     0x0001a651      0x10c c:/program files/microchip/xc32/v4.35/bin/bin/../../lib/gcc/pic32c/8.3.1/../../../../pic32c/lib/thumb/v6-m/nofp\libc-musl.a(vsnprintf.o)
 .debug_loc     0x0001a75d      0x12d c:/program files/microchip/xc32/v4.35/bin/bin/../../lib/gcc/pic32c/8.3.1/../../../../pic32c/lib/thumb/v6-m/nofp\libc-musl.a(memcpy.o)
 .debug_loc     0x0001a88a       0xcd c:/program files/microchip/xc32/v4.35/bin/bin/../../lib/gcc/pic32c/8.3.1/../../../../pic32c/lib/thumb/v6-m/nofp\libc-musl.a(memset.o)
 .debug_loc     0x0001a957       0x81 c:/program files/microchip/xc32/v4.35/bin/bin/../../lib/gcc/pic32c/8.3.1/../../../../pic32c/lib/thumb/v6-m/nofp\libc-musl.a(strlen.o)
 .debug_loc     0x0001a9d8       0xd0 c:/program files/microchip/xc32/v4.35/bin/bin/../../lib/gcc/pic32c/8.3.1/../../../../pic32c/lib/thumb/v6-m/nofp\libc-musl.a(vfprintf.o)
 .debug_loc     0x0001aaa8       0x6f c:/program files/microchip/xc32/v4.35/bin/bin/../../lib/gcc/pic32c/8.3.1/../../../../pic32c/lib/thumb/v6-m/nofp\libc-musl.a(__pop_float.o)
 .debug_loc     0x0001ab17      0x34c c:/program files/microchip/xc32/v4.35/bin/bin/../../lib/gcc/pic32c/8.3.1/../../../../pic32c/lib/thumb/v6-m/nofp\libc-musl.a(__pop_int.o)
 .debug_loc     0x0001ae63      0x1fe c:/program files/microchip/xc32/v4.35/bin/bin/../../lib/gcc/pic32c/8.3.1/../../../../pic32c/lib/thumb/v6-m/nofp\libc-musl.a(__pop_ptr.o)
 .debug_loc     0x0001b061      0x6d9 c:/program files/microchip/xc32/v4.35/bin/bin/../../lib/gcc/pic32c/8.3.1/../../../../pic32c/lib/thumb/v6-m/nofp\libc-musl.a(__printf_core.o)
 .debug_loc     0x0001b73a       0xdc c:/program files/microchip/xc32/v4.35/bin/bin/../../lib/gcc/pic32c/8.3.1/../../../../pic32c/lib/thumb/v6-m/nofp\libc-musl.a(atoi.o)
 .debug_loc     0x0001b816       0x8f c:/program files/microchip/xc32/v4.35/bin/bin/../../lib/gcc/pic32c/8.3.1/../../../../pic32c/lib/thumb/v6-m/nofp\libc-musl.a(tolower.o)
 .debug_loc     0x0001b8a5      0xd9a c:/program files/microchip/xc32/v4.35/bin/bin/../../lib/gcc/pic32c/8.3.1/../../../../pic32c/lib/thumb/v6-m/nofp\libc-musl.a(__fmt_a.o)
 .debug_loc     0x0001c63f      0x2a6 c:/program files/microchip/xc32/v4.35/bin/bin/../../lib/gcc/pic32c/8.3.1/../../../../pic32c/lib/thumb/v6-m/nofp\libc-musl.a(__fmt_d.o)
 .debug_loc     0x0001c8e5      0xc94 c:/program files/microchip/xc32/v4.35/bin/bin/../../lib/gcc/pic32c/8.3.1/../../../../pic32c/lib/thumb/v6-m/nofp\libc-musl.a(__fmt_fp.o)
 .debug_loc     0x0001d579      0x12d c:/program files/microchip/xc32/v4.35/bin/bin/../../lib/gcc/pic32c/8.3.1/../../../../pic32c/lib/thumb/v6-m/nofp\libc-musl.a(__fmt_o.o)
 .debug_loc     0x0001d6a6      0x144 c:/program files/microchip/xc32/v4.35/bin/bin/../../lib/gcc/pic32c/8.3.1/../../../../pic32c/lib/thumb/v6-m/nofp\libc-musl.a(__fmt_s.o)
 .debug_loc     0x0001d7ea      0x12d c:/program files/microchip/xc32/v4.35/bin/bin/../../lib/gcc/pic32c/8.3.1/../../../../pic32c/lib/thumb/v6-m/nofp\libc-musl.a(__fmt_u.o)
 .debug_loc     0x0001d917      0x3be c:/program files/microchip/xc32/v4.35/bin/bin/../../lib/gcc/pic32c/8.3.1/../../../../pic32c/lib/thumb/v6-m/nofp\libc-musl.a(__fmt_x.o)
 .debug_loc     0x0001dcd5       0x74 c:/program files/microchip/xc32/v4.35/bin/bin/../../lib/gcc/pic32c/8.3.1/../../../../pic32c/lib/thumb/v6-m/nofp\libc-musl.a(strcpy.o)
 .debug_loc     0x0001dd49       0x8f c:/program files/microchip/xc32/v4.35/bin/bin/../../lib/gcc/pic32c/8.3.1/../../../../pic32c/lib/thumb/v6-m/nofp\libc-musl.a(toupper.o)
 .debug_loc     0x0001ddd8      0x1d4 c:/program files/microchip/xc32/v4.35/bin/bin/../../lib/gcc/pic32c/8.3.1/../../../../pic32c/lib/thumb/v6-m/nofp\libc-musl.a(__cvt_u.o)
 .debug_loc     0x0001dfac       0x90 c:/program files/microchip/xc32/v4.35/bin/bin/../../lib/gcc/pic32c/8.3.1/../../../../pic32c/lib/thumb/v6-m/nofp\libc-musl.a(stpcpy.o)
 .debug_loc     0x0001e03c      0x177 c:/program files/microchip/xc32/v4.35/bin/bin/../../lib/gcc/pic32c/8.3.1/thumb/v6-m/nofp\libgcc.a(_muldi3.o)
 .debug_loc     0x0001e1b3      0x2e7 c:/program files/microchip/xc32/v4.35/bin/bin/../../lib/gcc/pic32c/8.3.1/thumb/v6-m/nofp\libgcc.a(_udivmoddi4.o)
 .debug_loc     0x0001e49a       0x14 c:/program files/microchip/xc32/v4.35/bin/bin/../../lib/gcc/pic32c/8.3.1/../../../../pic32c/lib/thumb/v6-m/nofp\libpic32c.a(pic32_data_init_copy.o)

.note.GNU-stack
                0x00000000        0x0
 .note.GNU-stack
                0x00000000        0x0 c:/program files/microchip/xc32/v4.35/bin/bin/../../lib/gcc/pic32c/8.3.1/../../../../pic32c/lib/thumb/v6-m/nofp\libc-musl.a(__libc_start_main.o)
 .note.GNU-stack
                0x00000000        0x0 c:/program files/microchip/xc32/v4.35/bin/bin/../../lib/gcc/pic32c/8.3.1/../../../../pic32c/lib/thumb/v6-m/nofp\libc-musl.a(libc.o)
 .note.GNU-stack
                0x00000000        0x0 c:/program files/microchip/xc32/v4.35/bin/bin/../../lib/gcc/pic32c/8.3.1/../../../../pic32c/lib/thumb/v6-m/nofp\libc-musl.a(rand.o)
 .note.GNU-stack
                0x00000000        0x0 c:/program files/microchip/xc32/v4.35/bin/bin/../../lib/gcc/pic32c/8.3.1/../../../../pic32c/lib/thumb/v6-m/nofp\libc-musl.a(vsnprintf.o)
 .note.GNU-stack
                0x00000000        0x0 c:/program files/microchip/xc32/v4.35/bin/bin/../../lib/gcc/pic32c/8.3.1/../../../../pic32c/lib/thumb/v6-m/nofp\libc-musl.a(memcpy.o)
 .note.GNU-stack
                0x00000000        0x0 c:/program files/microchip/xc32/v4.35/bin/bin/../../lib/gcc/pic32c/8.3.1/../../../../pic32c/lib/thumb/v6-m/nofp\libc-musl.a(memset.o)
 .note.GNU-stack
                0x00000000        0x0 c:/program files/microchip/xc32/v4.35/bin/bin/../../lib/gcc/pic32c/8.3.1/../../../../pic32c/lib/thumb/v6-m/nofp\libc-musl.a(strlen.o)
 .note.GNU-stack
                0x00000000        0x0 c:/program files/microchip/xc32/v4.35/bin/bin/../../lib/gcc/pic32c/8.3.1/../../../../pic32c/lib/thumb/v6-m/nofp\libc-musl.a(__environ.o)
 .note.GNU-stack
                0x00000000        0x0 c:/program files/microchip/xc32/v4.35/bin/bin/../../lib/gcc/pic32c/8.3.1/../../../../pic32c/lib/thumb/v6-m/nofp\libc-musl.a(__errno_location.o)
 .note.GNU-stack
                0x00000000        0x0 c:/program files/microchip/xc32/v4.35/bin/bin/../../lib/gcc/pic32c/8.3.1/../../../../pic32c/lib/thumb/v6-m/nofp\libc-musl.a(vfprintf.o)
 .note.GNU-stack
                0x00000000        0x0 c:/program files/microchip/xc32/v4.35/bin/bin/../../lib/gcc/pic32c/8.3.1/../../../../pic32c/lib/thumb/v6-m/nofp\libc-musl.a(__pop_float.o)
 .note.GNU-stack
                0x00000000        0x0 c:/program files/microchip/xc32/v4.35/bin/bin/../../lib/gcc/pic32c/8.3.1/../../../../pic32c/lib/thumb/v6-m/nofp\libc-musl.a(__pop_int.o)
 .note.GNU-stack
                0x00000000        0x0 c:/program files/microchip/xc32/v4.35/bin/bin/../../lib/gcc/pic32c/8.3.1/../../../../pic32c/lib/thumb/v6-m/nofp\libc-musl.a(__pop_ptr.o)
 .note.GNU-stack
                0x00000000        0x0 c:/program files/microchip/xc32/v4.35/bin/bin/../../lib/gcc/pic32c/8.3.1/../../../../pic32c/lib/thumb/v6-m/nofp\libc-musl.a(__printf_core.o)
 .note.GNU-stack
                0x00000000        0x0 c:/program files/microchip/xc32/v4.35/bin/bin/../../lib/gcc/pic32c/8.3.1/../../../../pic32c/lib/thumb/v6-m/nofp\libc-musl.a(atoi.o)
 .note.GNU-stack
                0x00000000        0x0 c:/program files/microchip/xc32/v4.35/bin/bin/../../lib/gcc/pic32c/8.3.1/../../../../pic32c/lib/thumb/v6-m/nofp\libc-musl.a(tolower.o)
 .note.GNU-stack
                0x00000000        0x0 c:/program files/microchip/xc32/v4.35/bin/bin/../../lib/gcc/pic32c/8.3.1/../../../../pic32c/lib/thumb/v6-m/nofp\libc-musl.a(__fmt_a.o)
 .note.GNU-stack
                0x00000000        0x0 c:/program files/microchip/xc32/v4.35/bin/bin/../../lib/gcc/pic32c/8.3.1/../../../../pic32c/lib/thumb/v6-m/nofp\libc-musl.a(__fmt_d.o)
 .note.GNU-stack
                0x00000000        0x0 c:/program files/microchip/xc32/v4.35/bin/bin/../../lib/gcc/pic32c/8.3.1/../../../../pic32c/lib/thumb/v6-m/nofp\libc-musl.a(__fmt_fp.o)
 .note.GNU-stack
                0x00000000        0x0 c:/program files/microchip/xc32/v4.35/bin/bin/../../lib/gcc/pic32c/8.3.1/../../../../pic32c/lib/thumb/v6-m/nofp\libc-musl.a(__fmt_o.o)
 .note.GNU-stack
                0x00000000        0x0 c:/program files/microchip/xc32/v4.35/bin/bin/../../lib/gcc/pic32c/8.3.1/../../../../pic32c/lib/thumb/v6-m/nofp\libc-musl.a(__fmt_s.o)
 .note.GNU-stack
                0x00000000        0x0 c:/program files/microchip/xc32/v4.35/bin/bin/../../lib/gcc/pic32c/8.3.1/../../../../pic32c/lib/thumb/v6-m/nofp\libc-musl.a(__fmt_u.o)
 .note.GNU-stack
                0x00000000        0x0 c:/program files/microchip/xc32/v4.35/bin/bin/../../lib/gcc/pic32c/8.3.1/../../../../pic32c/lib/thumb/v6-m/nofp\libc-musl.a(__fmt_x.o)
 .note.GNU-stack
                0x00000000        0x0 c:/program files/microchip/xc32/v4.35/bin/bin/../../lib/gcc/pic32c/8.3.1/../../../../pic32c/lib/thumb/v6-m/nofp\libc-musl.a(strcpy.o)
 .note.GNU-stack
                0x00000000        0x0 c:/program files/microchip/xc32/v4.35/bin/bin/../../lib/gcc/pic32c/8.3.1/../../../../pic32c/lib/thumb/v6-m/nofp\libc-musl.a(toupper.o)
 .note.GNU-stack
                0x00000000        0x0 c:/program files/microchip/xc32/v4.35/bin/bin/../../lib/gcc/pic32c/8.3.1/../../../../pic32c/lib/thumb/v6-m/nofp\libc-musl.a(__cvt_u.o)
 .note.GNU-stack
                0x00000000        0x0 c:/program files/microchip/xc32/v4.35/bin/bin/../../lib/gcc/pic32c/8.3.1/../../../../pic32c/lib/thumb/v6-m/nofp\libc-musl.a(stpcpy.o)

__xc_reference_data
                0x00000000       0x5c
 __xc_reference_data
                0x00000000        0x8 c:/program files/microchip/xc32/v4.35/bin/bin/../../lib/gcc/pic32c/8.3.1/../../../../pic32c/lib/thumb/v6-m/nofp\libc-musl.a(vfprintf.o)
                0x00000000                __vfprintf_needs_fmt
 __xc_reference_data
                0x00000008       0x54 c:/program files/microchip/xc32/v4.35/bin/bin/../../lib/gcc/pic32c/8.3.1/../../../../pic32c/lib/thumb/v6-m/nofp\libc-musl.a(__io_fmt_needed.o)
                0x00000008                __io_fmt_needed

.stack          0x20004bb0      0x100
 .stack         0x20004bb0      0x100 stack

.bss.ucHeap%1   0x20000000     0x2f40
 .bss.ucHeap    0x20000000     0x2f40 build/default/production/_ext/1665200909/heap_4.o

.bss.buf_pool%2
                0x20002f40     0x10a4
 .bss.buf_pool  0x20002f40     0x10a4 build/default/production/_ext/1374435801/bmm.o

.bss.buf_header%3
                0x20003fe4       0xd8
 .bss.buf_header
                0x20003fe4       0xd8 build/default/production/_ext/1374435801/bmm.o

.bss.consolePrintBuffer%4
                0x200040bc       0xc8
 .bss.consolePrintBuffer
                0x200040bc       0xc8 build/default/production/_ext/1832805299/sys_console.o

.bss.eicCallbackObject%5
                0x20004184       0xc0
 .bss.eicCallbackObject
                0x20004184       0xc0 build/default/production/_ext/60167341/plib_eic.o

.bss.timers%6   0x20004244       0xa0
 .bss.timers    0x20004244       0xa0 build/default/production/_ext/101884895/sys_time.o

.bss.SERCOM0_USART_ReadBuffer%7
                0x200042e4       0x80
 .bss.SERCOM0_USART_ReadBuffer
                0x200042e4       0x80 build/default/production/_ext/504274921/plib_sercom0_usart.o

.bss.SERCOM0_USART_WriteBuffer%8
                0x20004364       0x80
 .bss.SERCOM0_USART_WriteBuffer
                0x20004364       0x80 build/default/production/_ext/504274921/plib_sercom0_usart.o

.bss.pxReadyTasksLists%9
                0x200043e4       0x64
 .bss.pxReadyTasksLists
                0x200043e4       0x64 build/default/production/_ext/404212886/FreeRTOS_tasks.o

.bss.device_list%10
                0x20004448       0x60
 .bss.device_list
                0x20004448       0x60 build/default/production/_ext/85628700/demo_app_ffd.o
                0x20004448                device_list

.bss.palTimers%11
                0x200044a8       0x50
 .bss.palTimers
                0x200044a8       0x50 build/default/production/_ext/745501718/pal.o

.bss%12         0x200044f8       0x50
 .bss           0x200044f8       0x50 c:/program files/microchip/xc32/v4.35/bin/bin/../../lib/gcc/pic32c/8.3.1/../../../../pic32c/lib/thumb/v6-m/nofp\libc-musl.a(libc.o)
                0x200044f8                __progname_full
                0x200044f8                program_invocation_name
                0x200044fc                program_invocation_short_name
                0x200044fc                __progname
                0x20004500                __sysinfo
                0x20004504                __hwcap
                0x20004508                __libc

.bss.osalAPIList%13
                0x20004548       0x44
 .bss.osalAPIList
                0x20004548       0x44 build/default/production/_ext/1171490990/initialization.o
                0x20004548                osalAPIList

.bss.gSystemCounterObj%14
                0x20004590       0x40
 .bss.gSystemCounterObj
                0x20004590       0x40 build/default/production/_ext/101884895/sys_time.o

.bss.macParseData%15
                0x200045d0       0x40
 .bss.macParseData
                0x200045d0       0x40 build/default/production/_ext/1655452824/mac.o
                0x200045d0                macParseData

.bss.sercom0USARTObj%16
                0x20004610       0x40
 .bss.sercom0USARTObj
                0x20004610       0x40 build/default/production/_ext/504274921/plib_sercom0_usart.o

.bss.macBeacon_Payload%17
                0x20004650       0x34
 .bss.macBeacon_Payload
                0x20004650       0x34 build/default/production/_ext/1655452824/mac.o
                0x20004650                macBeacon_Payload

.bss.sercom4SPIObj%18
                0x20004684       0x2c
 .bss.sercom4SPIObj
                0x20004684       0x2c build/default/production/_ext/17022449/plib_sercom4_spi_master.o

.bss.macPib%19  0x200046b0       0x20
 .bss.macPib    0x200046b0       0x20 build/default/production/_ext/1655452824/mac.o
                0x200046b0                macPib

.bss.payload_arr%20
                0x200046d0       0x1e
 .bss.payload_arr
                0x200046d0       0x1e build/default/production/_ext/85628700/demo_app_ffd.o

.bss.tal_pib%21
                0x200046f0       0x1d
 .bss.tal_pib   0x200046f0       0x1d build/default/production/_ext/559172130/phy.o
                0x200046f0                tal_pib

.bss%22         0x20004710       0x1c
 .bss           0x20004710       0x1c c:/program files/microchip/xc32/v4.35/bin/bin/../../lib/gcc/pic32c/8.3.1/thumb/v6-m/nofp/crtbegin.o

.bss.phy_info%23
                0x2000472c       0x1c
 .bss.phy_info  0x2000472c       0x1c build/default/production/_ext/559172130/phy.o
                0x2000472c                phy_info

.bss.xDelayedTaskList1%24
                0x20004748       0x14
 .bss.xDelayedTaskList1
                0x20004748       0x14 build/default/production/_ext/404212886/FreeRTOS_tasks.o

.bss.xDelayedTaskList2%25
                0x2000475c       0x14
 .bss.xDelayedTaskList2
                0x2000475c       0x14 build/default/production/_ext/404212886/FreeRTOS_tasks.o

.bss.xPendingReadyList%26
                0x20004770       0x14
 .bss.xPendingReadyList
                0x20004770       0x14 build/default/production/_ext/404212886/FreeRTOS_tasks.o

.bss.xSuspendedTaskList%27
                0x20004784       0x14
 .bss.xSuspendedTaskList
                0x20004784       0x14 build/default/production/_ext/404212886/FreeRTOS_tasks.o

.bss.xTasksWaitingTermination%28
                0x20004798       0x14
 .bss.xTasksWaitingTermination
                0x20004798       0x14 build/default/production/_ext/404212886/FreeRTOS_tasks.o

.bss.xActiveTimerList1%29
                0x200047ac       0x14
 .bss.xActiveTimerList1
                0x200047ac       0x14 build/default/production/_ext/404212886/timers.o

.bss.xActiveTimerList2%30
                0x200047c0       0x14
 .bss.xActiveTimerList2
                0x200047c0       0x14 build/default/production/_ext/404212886/timers.o

.bss.MAC_SyncLossBuffer.8322%31
                0x200047d4        0xe
 .bss.MAC_SyncLossBuffer.8322
                0x200047d4        0xe build/default/production/_ext/1655452824/mac_sync.o

.bss.consoleDeviceInstance%32
                0x200047e4        0xc
 .bss.consoleDeviceInstance
                0x200047e4        0xc build/default/production/_ext/1832805299/sys_console.o

.bss.indirectDataQueue%33
                0x200047f0        0xc
 .bss.indirectDataQueue
                0x200047f0        0xc build/default/production/_ext/1655452824/mac.o
                0x200047f0                indirectDataQueue

.bss.nhleMacQueue%34
                0x200047fc        0xc
 .bss.nhleMacQueue
                0x200047fc        0xc build/default/production/_ext/1655452824/mac.o
                0x200047fc                nhleMacQueue

.bss.phyMacQueue%35
                0x20004808        0xc
 .bss.phyMacQueue
                0x20004808        0xc build/default/production/_ext/1655452824/mac.o
                0x20004808                phyMacQueue

.bss.gConsoleUartData%36
                0x20004814        0xc
 .bss.gConsoleUartData
                0x20004814        0xc build/default/production/_ext/1832805299/sys_console_uart.o

.bss.tal_incoming_frame_queue%37
                0x20004820        0xc
 .bss.tal_incoming_frame_queue
                0x20004820        0xc build/default/production/_ext/559172130/phy.o
                0x20004820                tal_incoming_frame_queue

.bss.free_large_buffer_q%38
                0x2000482c        0xc
 .bss.free_large_buffer_q
                0x2000482c        0xc build/default/production/_ext/1374435801/bmm.o

.bss.free_small_buffer_q%39
                0x20004838        0xc
 .bss.free_small_buffer_q
                0x20004838        0xc build/default/production/_ext/1374435801/bmm.o

.bss.macNhleQueue%40
                0x20004844        0xc
 .bss.macNhleQueue
                0x20004844        0xc build/default/production/_ext/1655452824/mac_api.o
                0x20004844                macNhleQueue

.bss.msrParams%41
                0x20004850        0xc
 .bss.msrParams
                0x20004850        0xc build/default/production/_ext/1655452824/mac_start.o

.bss.TC3_CallbackObject%42
                0x2000485c        0x8
 .bss.TC3_CallbackObject
                0x2000485c        0x8 build/default/production/_ext/829342655/plib_tc3.o

.bss.appData%43
                0x20004864        0x8
 .bss.appData   0x20004864        0x8 build/default/production/_ext/1360937237/app.o
                0x20004864                appData

.bss.macLastSrcAddr%44
                0x20004870        0x8
 .bss.macLastSrcAddr
                0x20004870        0x8 build/default/production/_ext/1655452824/mac.o
                0x20004870                macLastSrcAddr

.bss.phyTxFrameInfo%45
                0x20004878        0x8
 .bss.phyTxFrameInfo
                0x20004878        0x8 build/default/production/_ext/1655452824/mac.o
                0x20004878                phyTxFrameInfo

.bss.sysObj%46  0x20004880        0x8
 .bss.sysObj    0x20004880        0x8 build/default/production/_ext/1171490990/initialization.o
                0x20004880                sysObj

.bss.xStart%47  0x20004888        0x8
 .bss.xStart    0x20004888        0x8 build/default/production/_ext/1665200909/heap_4.o

.bss.semMacInternalHandler%48
                0x2000458c        0x4
 .bss.semMacInternalHandler
                0x2000458c        0x4 build/default/production/_ext/1655452824/mac_task.o

.bss.xActivatedMember%49
                0x2000486c        0x4
 .bss.xActivatedMember
                0x2000486c        0x4 build/default/production/_ext/1655452824/mac_task.o

.bss.xQueueSet%50
                0x20004890        0x4
 .bss.xQueueSet
                0x20004890        0x4 build/default/production/_ext/1655452824/mac_task.o

.bss.pxCurrentTCB%51
                0x20004894        0x4
 .bss.pxCurrentTCB
                0x20004894        0x4 build/default/production/_ext/404212886/FreeRTOS_tasks.o
                0x20004894                pxCurrentTCB

.bss.pxDelayedTaskList%52
                0x20004898        0x4
 .bss.pxDelayedTaskList
                0x20004898        0x4 build/default/production/_ext/404212886/FreeRTOS_tasks.o

.bss.pxOverflowDelayedTaskList%53
                0x2000489c        0x4
 .bss.pxOverflowDelayedTaskList
                0x2000489c        0x4 build/default/production/_ext/404212886/FreeRTOS_tasks.o

.bss.uxCurrentNumberOfTasks%54
                0x200048a0        0x4
 .bss.uxCurrentNumberOfTasks
                0x200048a0        0x4 build/default/production/_ext/404212886/FreeRTOS_tasks.o

.bss.uxDeletedTasksWaitingCleanUp%55
                0x200048a4        0x4
 .bss.uxDeletedTasksWaitingCleanUp
                0x200048a4        0x4 build/default/production/_ext/404212886/FreeRTOS_tasks.o

.bss.uxSchedulerSuspended%56
                0x200048a8        0x4
 .bss.uxSchedulerSuspended
                0x200048a8        0x4 build/default/production/_ext/404212886/FreeRTOS_tasks.o

.bss.uxTaskNumber%57
                0x200048ac        0x4
 .bss.uxTaskNumber
                0x200048ac        0x4 build/default/production/_ext/404212886/FreeRTOS_tasks.o

.bss.uxTopReadyPriority%58
                0x200048b0        0x4
 .bss.uxTopReadyPriority
                0x200048b0        0x4 build/default/production/_ext/404212886/FreeRTOS_tasks.o

.bss.xIdleTaskHandle%59
                0x200048b4        0x4
 .bss.xIdleTaskHandle
                0x200048b4        0x4 build/default/production/_ext/404212886/FreeRTOS_tasks.o

.bss.xNextTaskUnblockTime%60
                0x200048b8        0x4
 .bss.xNextTaskUnblockTime
                0x200048b8        0x4 build/default/production/_ext/404212886/FreeRTOS_tasks.o

.bss.xNumOfOverflows%61
                0x200048bc        0x4
 .bss.xNumOfOverflows
                0x200048bc        0x4 build/default/production/_ext/404212886/FreeRTOS_tasks.o

.bss.xPendedTicks%62
                0x200048c0        0x4
 .bss.xPendedTicks
                0x200048c0        0x4 build/default/production/_ext/404212886/FreeRTOS_tasks.o

.bss.xSchedulerRunning%63
                0x200048c4        0x4
 .bss.xSchedulerRunning
                0x200048c4        0x4 build/default/production/_ext/404212886/FreeRTOS_tasks.o

.bss.xTickCount%64
                0x200048c8        0x4
 .bss.xTickCount
                0x200048c8        0x4 build/default/production/_ext/404212886/FreeRTOS_tasks.o

.bss.xYieldPending%65
                0x200048cc        0x4
 .bss.xYieldPending
                0x200048cc        0x4 build/default/production/_ext/404212886/FreeRTOS_tasks.o

.bss.beaconPtr%66
                0x200048d0        0x4
 .bss.beaconPtr
                0x200048d0        0x4 build/default/production/_ext/1655452824/mac_beacon.o

.bss.consolePrintBufferMutex%67
                0x200048d4        0x4
 .bss.consolePrintBufferMutex
                0x200048d4        0x4 build/default/production/_ext/1832805299/sys_console.o

.bss.macConfBufPtr%68
                0x200048d8        0x4
 .bss.macConfBufPtr
                0x200048d8        0x4 build/default/production/_ext/1655452824/mac.o
                0x200048d8                macConfBufPtr

.bss.macFrameInfo%69
                0x200048dc        0x4
 .bss.macFrameInfo
                0x200048dc        0x4 build/default/production/_ext/1655452824/mac.o
                0x200048dc                macFrameInfo

.bss.macScanCmdBufPtr%70
                0x200048e0        0x4
 .bss.macScanCmdBufPtr
                0x200048e0        0x4 build/default/production/_ext/1655452824/mac.o
                0x200048e0                macScanCmdBufPtr

.bss.mac_frame_ptr%71
                0x200048e4        0x4
 .bss.mac_frame_ptr
                0x200048e4        0x4 build/default/production/_ext/559172130/phy.o
                0x200048e4                mac_frame_ptr

.bss.tal_frame_to_tx%72
                0x200048e8        0x4
 .bss.tal_frame_to_tx
                0x200048e8        0x4 build/default/production/_ext/559172130/phy.o
                0x200048e8                tal_frame_to_tx

.bss.tal_rx_buffer%73
                0x200048ec        0x4
 .bss.tal_rx_buffer
                0x200048ec        0x4 build/default/production/_ext/559172130/phy.o
                0x200048ec                tal_rx_buffer

.bss.semPhyInternalHandler%74
                0x200048f0        0x4
 .bss.semPhyInternalHandler
                0x200048f0        0x4 build/default/production/_ext/1171490990/initialization.o
                0x200048f0                semPhyInternalHandler

.bss.semTalInternalHandler%75
                0x200048f4        0x4
 .bss.semTalInternalHandler
                0x200048f4        0x4 build/default/production/_ext/1171490990/initialization.o
                0x200048f4                semTalInternalHandler

.bss.xAPP_Tasks%76
                0x200048f8        0x4
 .bss.xAPP_Tasks
                0x200048f8        0x4 build/default/production/_ext/1171490990/tasks.o
                0x200048f8                xAPP_Tasks

.bss.xTAL_Tasks%77
                0x200048fc        0x4
 .bss.xTAL_Tasks
                0x200048fc        0x4 build/default/production/_ext/1171490990/tasks.o
                0x200048fc                xTAL_Tasks

.bss.xWPAN_Tasks%78
                0x20004900        0x4
 .bss.xWPAN_Tasks
                0x20004900        0x4 build/default/production/_ext/1171490990/tasks.o
                0x20004900                xWPAN_Tasks

.bss.pxCurrentTimerList%79
                0x20004904        0x4
 .bss.pxCurrentTimerList
                0x20004904        0x4 build/default/production/_ext/404212886/timers.o

.bss.pxOverflowTimerList%80
                0x20004908        0x4
 .bss.pxOverflowTimerList
                0x20004908        0x4 build/default/production/_ext/404212886/timers.o

.bss.xLastTime.5144%81
                0x2000490c        0x4
 .bss.xLastTime.5144
                0x2000490c        0x4 build/default/production/_ext/404212886/timers.o

.bss.xTimerQueue%82
                0x20004910        0x4
 .bss.xTimerQueue
                0x20004910        0x4 build/default/production/_ext/404212886/timers.o

.bss.xTimerTaskHandle%83
                0x20004914        0x4
 .bss.xTimerTaskHandle
                0x20004914        0x4 build/default/production/_ext/404212886/timers.o

.bss.scanChannels%84
                0x20004918        0x4
 .bss.scanChannels
                0x20004918        0x4 build/default/production/_ext/1655452824/mac_scan.o

.bss.sampler_counter%85
                0x2000491c        0x4
 .bss.sampler_counter
                0x2000491c        0x4 build/default/production/_ext/559172130/phy_ed.o

.bss.pxEnd%86   0x20004920        0x4
 .bss.pxEnd     0x20004920        0x4 build/default/production/_ext/1665200909/heap_4.o

.bss.xBlockAllocatedBit%87
                0x20004924        0x4
 .bss.xBlockAllocatedBit
                0x20004924        0x4 build/default/production/_ext/1665200909/heap_4.o

.bss.xFreeBytesRemaining%88
                0x20004928        0x4
 .bss.xFreeBytesRemaining
                0x20004928        0x4 build/default/production/_ext/1665200909/heap_4.o

.bss.xMinimumEverFreeBytesRemaining%89
                0x2000492c        0x4
 .bss.xMinimumEverFreeBytesRemaining
                0x2000492c        0x4 build/default/production/_ext/1665200909/heap_4.o

.bss.xNumberOfSuccessfulAllocations%90
                0x20004930        0x4
 .bss.xNumberOfSuccessfulAllocations
                0x20004930        0x4 build/default/production/_ext/1665200909/heap_4.o

.bss.xNumberOfSuccessfulFrees%91
                0x20004934        0x4
 .bss.xNumberOfSuccessfulFrees
                0x20004934        0x4 build/default/production/_ext/1665200909/heap_4.o

.bss.Button_state%92
                0x20004938        0x4
 .bss.Button_state
                0x20004938        0x4 build/default/production/_ext/85628700/demo_app_ffd.o

.bss.Data_Conf_LED_Timer_Handle%93
                0x2000493c        0x4
 .bss.Data_Conf_LED_Timer_Handle
                0x2000493c        0x4 build/default/production/_ext/85628700/demo_app_ffd.o

.bss.Data_Ind_LED_Timer_Handle%94
                0x20004940        0x4
 .bss.Data_Ind_LED_Timer_Handle
                0x20004940        0x4 build/default/production/_ext/85628700/demo_app_ffd.o

.bss%95         0x20004944        0x4
 .bss           0x20004944        0x4 c:/program files/microchip/xc32/v4.35/bin/bin/../../lib/gcc/pic32c/8.3.1/../../../../pic32c/lib/thumb/v6-m/nofp\libpic32c.a(data_init.o)

.bss%96         0x20004948        0x4
 .bss           0x20004948        0x4 c:/program files/microchip/xc32/v4.35/bin/bin/../../lib/gcc/pic32c/8.3.1/../../../../pic32c/lib/thumb/v6-m/nofp\libc-musl.a(rand.o)

.bss%97         0x2000494c        0x4
 .bss           0x2000494c        0x4 c:/program files/microchip/xc32/v4.35/bin/bin/../../lib/gcc/pic32c/8.3.1/../../../../pic32c/lib/thumb/v6-m/nofp\libc-musl.a(__environ.o)
                0x2000494c                __environ
                0x2000494c                environ
                0x2000494c                ___environ
                0x2000494c                _environ

.bss%98         0x20004950        0x4
 .bss           0x20004950        0x4 c:/program files/microchip/xc32/v4.35/bin/bin/../../lib/gcc/pic32c/8.3.1/../../../../pic32c/lib/thumb/v6-m/nofp\libc-musl.a(__errno_location.o)
                0x20004950                __errno_val

.bss.macScanOrigPanid%99
                0x200046ee        0x2
 .bss.macScanOrigPanid
                0x200046ee        0x2 build/default/production/_ext/1655452824/mac.o
                0x200046ee                macScanOrigPanid

.bss.no_of_assoc_devices%100
                0x200047e2        0x2
 .bss.no_of_assoc_devices
                0x200047e2        0x2 build/default/production/_ext/85628700/demo_app_ffd.o
                0x200047e2                no_of_assoc_devices

.bss.TAL_RETRY_TIMER%101
                0x2000470d        0x1
 .bss.TAL_RETRY_TIMER
                0x2000470d        0x1 build/default/production/_ext/559172130/phy_init.o
                0x2000470d                TAL_RETRY_TIMER

.bss.tal_sw_retry_count%102
                0x2000470e        0x1
 .bss.tal_sw_retry_count
                0x2000470e        0x1 build/default/production/_ext/559172130/phy_tx.o

.bss.tal_sw_retry_no_csma_ca%103
                0x2000470f        0x1
 .bss.tal_sw_retry_no_csma_ca
                0x2000470f        0x1 build/default/production/_ext/559172130/phy_tx.o

.bss.trx_trac_status%104
                0x20004954        0x1
 .bss.trx_trac_status
                0x20004954        0x1 build/default/production/_ext/559172130/phy_tx.o

.bss.isLastByteTransferInProgress.5571%105
                0x20004955        0x1
 .bss.isLastByteTransferInProgress.5571
                0x20004955        0x1 build/default/production/_ext/17022449/plib_sercom4_spi_master.o

.bss.trx_pib_wakeup.8464%106
                0x20004956        0x1
 .bss.trx_pib_wakeup.8464
                0x20004956        0x1 build/default/production/_ext/1655452824/mac_pib.o

.bss.pendingAddressCount%107
                0x20004957        0x1
 .bss.pendingAddressCount
                0x20004957        0x1 build/default/production/_ext/1655452824/mac_beacon.o

.bss.isConsoleMutexCreated%108
                0x20004958        0x1
 .bss.isConsoleMutexCreated
                0x20004958        0x1 build/default/production/_ext/1832805299/sys_console.o

.bss.macBusy%109
                0x20004959        0x1
 .bss.macBusy   0x20004959        0x1 build/default/production/_ext/1655452824/mac.o
                0x20004959                macBusy

.bss.macLastDsn%110
                0x2000495a        0x1
 .bss.macLastDsn
                0x2000495a        0x1 build/default/production/_ext/1655452824/mac.o
                0x2000495a                macLastDsn

.bss.macPollState%111
                0x2000495b        0x1
 .bss.macPollState
                0x2000495b        0x1 build/default/production/_ext/1655452824/mac.o
                0x2000495b                macPollState

.bss.macRadioSleepState%112
                0x2000495c        0x1
 .bss.macRadioSleepState
                0x2000495c        0x1 build/default/production/_ext/1655452824/mac.o
                0x2000495c                macRadioSleepState

.bss.macRxEnabled%113
                0x2000495d        0x1
 .bss.macRxEnabled
                0x2000495d        0x1 build/default/production/_ext/1655452824/mac.o
                0x2000495d                macRxEnabled

.bss.macScanOrigChannel%114
                0x2000495e        0x1
 .bss.macScanOrigChannel
                0x2000495e        0x1 build/default/production/_ext/1655452824/mac.o
                0x2000495e                macScanOrigChannel

.bss.macScanOrigPage%115
                0x2000495f        0x1
 .bss.macScanOrigPage
                0x2000495f        0x1 build/default/production/_ext/1655452824/mac.o
                0x2000495f                macScanOrigPage

.bss.macScanState%116
                0x20004960        0x1
 .bss.macScanState
                0x20004960        0x1 build/default/production/_ext/1655452824/mac.o
                0x20004960                macScanState

.bss.macState%117
                0x20004961        0x1
 .bss.macState  0x20004961        0x1 build/default/production/_ext/1655452824/mac.o
                0x20004961                macState

.bss.macSyncState%118
                0x20004962        0x1
 .bss.macSyncState
                0x20004962        0x1 build/default/production/_ext/1655452824/mac.o
                0x20004962                macSyncState

.bss.Timer_DataPersistence%119
                0x20004963        0x1
 .bss.Timer_DataPersistence
                0x20004963        0x1 build/default/production/_ext/1655452824/mac_misc.o
                0x20004963                Timer_DataPersistence

.bss.Timer_PollWaitTime%120
                0x20004964        0x1
 .bss.Timer_PollWaitTime
                0x20004964        0x1 build/default/production/_ext/1655452824/mac_misc.o
                0x20004964                Timer_PollWaitTime

.bss.Timer_RxEnable%121
                0x20004965        0x1
 .bss.Timer_RxEnable
                0x20004965        0x1 build/default/production/_ext/1655452824/mac_misc.o
                0x20004965                Timer_RxEnable

.bss.Timer_ScanDuration%122
                0x20004966        0x1
 .bss.Timer_ScanDuration
                0x20004966        0x1 build/default/production/_ext/1655452824/mac_misc.o
                0x20004966                Timer_ScanDuration

.bss.scanCurrChannel%123
                0x20004967        0x1
 .bss.scanCurrChannel
                0x20004967        0x1 build/default/production/_ext/1655452824/mac_scan.o

.bss.scanCurrPage%124
                0x20004968        0x1
 .bss.scanCurrPage
                0x20004968        0x1 build/default/production/_ext/1655452824/mac_scan.o

.bss.scanDuration%125
                0x20004969        0x1
 .bss.scanDuration
                0x20004969        0x1 build/default/production/_ext/1655452824/mac_scan.o

.bss.scanType%126
                0x2000496a        0x1
 .bss.scanType  0x2000496a        0x1 build/default/production/_ext/1655452824/mac_scan.o

.bss.max_ed_level%127
                0x2000496b        0x1
 .bss.max_ed_level
                0x2000496b        0x1 build/default/production/_ext/559172130/phy_ed.o

.bss.numOfTimers%128
                0x2000496c        0x1
 .bss.numOfTimers
                0x2000496c        0x1 build/default/production/_ext/745501718/pal.o

.bss.palTimerInitialized.8222%129
                0x2000496d        0x1
 .bss.palTimerInitialized.8222
                0x2000496d        0x1 build/default/production/_ext/745501718/pal.o

.bss.coord_state%130
                0x2000496e        0x1
 .bss.coord_state
                0x2000496e        0x1 build/default/production/_ext/85628700/demo_app_ffd.o
                0x2000496e                coord_state

.bss.curr_msdu_handle%131
                0x2000496f        0x1
 .bss.curr_msdu_handle
                0x2000496f        0x1 build/default/production/_ext/85628700/demo_app_ffd.o

.bss.current_channel%132
                0x20004970        0x1
 .bss.current_channel
                0x20004970        0x1 build/default/production/_ext/85628700/demo_app_ffd.o
                0x20004970                current_channel

.bss.current_channel_page%133
                0x20004971        0x1
 .bss.current_channel_page
                0x20004971        0x1 build/default/production/_ext/85628700/demo_app_ffd.o
                0x20004971                current_channel_page

.data.beacon_payload%134
                0x20004974       0x18
 .data.beacon_payload
                0x20004974       0x18 build/default/production/_ext/85628700/demo_app_ffd.o
                0x20004974                beacon_payload

.data.uxCriticalNesting%135
                0x2000498c        0x4
 .data.uxCriticalNesting
                0x2000498c        0x4 build/default/production/_ext/1624415188/port.o

.data.gSysTimeTokenCount%136
                0x20004972        0x2
 .data.gSysTimeTokenCount
                0x20004972        0x2 build/default/production/_ext/101884895/sys_time.o

.eh_frame%z1    0x00000000        0x0
 .eh_frame      0x00000000        0x0 c:/program files/microchip/xc32/v4.35/bin/bin/../../lib/gcc/pic32c/8.3.1/thumb/v6-m/nofp/crtbegin.o

.config_00804000.__config_00804000%137
                0x00804000        0x4
 .config_00804000.__config_00804000
                0x00804000        0x4 build/default/production/_ext/1171490990/initialization.o
                0x00804000                __config_00804000

.config_00804004.__config_00804004%138
                0x00804004        0x4
 .config_00804004.__config_00804004
                0x00804004        0x4 build/default/production/_ext/1171490990/initialization.o
                0x00804004                __config_00804004

.text.__fmt_fp%139
                0x000000d4      0x4bc
 .text.__fmt_fp
                0x000000d4      0x4bc c:/program files/microchip/xc32/v4.35/bin/bin/../../lib/gcc/pic32c/8.3.1/../../../../pic32c/lib/thumb/v6-m/nofp\libc-musl.a(__fmt_fp.o)
                0x000000d4                __fmt_f_needed
                0x000000d4                __fmt_fp

.text.__fmt_a%140
                0x00000590      0x488
 .text.__fmt_a  0x00000590      0x488 c:/program files/microchip/xc32/v4.35/bin/bin/../../lib/gcc/pic32c/8.3.1/../../../../pic32c/lib/thumb/v6-m/nofp\libc-musl.a(__fmt_a.o)
                0x00000590                __fmt_a_needed
                0x00000590                __fmt_a

.text.MAC_ProcessPhyDataInd%141
                0x00000a18      0x460
 .text.MAC_ProcessPhyDataInd
                0x00000a18      0x460 build/default/production/_ext/1655452824/mac_data_ind.o
                0x00000a18                MAC_ProcessPhyDataInd

.dinit%142      0x00000e78      0x440
 .dinit         0x00000e78      0x440 data_init

.rodata.MAC_MLME_Set%143
                0x000012b8      0x3c4
 .rodata.MAC_MLME_Set
                0x000012b8      0x3c4 build/default/production/_ext/1655452824/mac_pib.o

.rodata.MAC_MLME_Get%144
                0x0000167c      0x3c4
 .rodata.MAC_MLME_Get
                0x0000167c      0x3c4 build/default/production/_ext/1655452824/mac_pib.o

.text.__printf_core%145
                0x00001a40      0x340
 .text.__printf_core
                0x00001a40      0x340 c:/program files/microchip/xc32/v4.35/bin/bin/../../lib/gcc/pic32c/8.3.1/../../../../pic32c/lib/thumb/v6-m/nofp\libc-musl.a(__printf_core.o)
                0x00001a40                __printf_core

.text.MAC_MCPS_DataRequest%146
                0x00001d80      0x2d4
 .text.MAC_MCPS_DataRequest
                0x00001d80      0x2d4 build/default/production/_ext/1655452824/mac_mcps_data.o
                0x00001d80                MAC_MCPS_DataRequest

.text.PHY_TxDoneCallback%147
                0x00002054      0x24c
 .text.PHY_TxDoneCallback
                0x00002054      0x24c build/default/production/_ext/1655452824/mac_process_phy_tx_frame_status.o
                0x00002054                PHY_TxDoneCallback

.rodata%148     0x000022a0      0x234
 .rodata        0x000022a0      0x234 build/default/production/_ext/85628700/demo_app_ffd.o

.text.MAC_BuildAndTxDataReq%149
                0x000024d4      0x230
 .text.MAC_BuildAndTxDataReq
                0x000024d4      0x230 build/default/production/_ext/1655452824/mac_data_req.o
                0x000024d4                MAC_BuildAndTxDataReq

.text.PHY_PibSet%150
                0x00002704      0x210
 .text.PHY_PibSet
                0x00002704      0x210 build/default/production/_ext/559172130/phy_pib.o
                0x00002704                PHY_PibSet

.text.set_trx_state%151
                0x00002914      0x208
 .text.set_trx_state
                0x00002914      0x208 build/default/production/_ext/559172130/phy.o
                0x00002914                set_trx_state

.text.MAC_MLME_Get%152
                0x00002b1c      0x200
 .text.MAC_MLME_Get
                0x00002b1c      0x200 build/default/production/_ext/1655452824/mac_pib.o
                0x00002b1c                MAC_MLME_Get

.text.xTaskCreate%153
                0x00002d1c      0x1d8
 .text.xTaskCreate
                0x00002d1c      0x1d8 build/default/production/_ext/404212886/FreeRTOS_tasks.o
                0x00002d1c                xTaskCreate

.text.MAC_MLME_DisassociateRequest%154
                0x00002ef4      0x1d8
 .text.MAC_MLME_DisassociateRequest
                0x00002ef4      0x1d8 build/default/production/_ext/1655452824/mac_disassociate.o
                0x00002ef4                MAC_MLME_DisassociateRequest

.text.MAC_MLME_ScanRequest%155
                0x000030cc      0x1d0
 .text.MAC_MLME_ScanRequest
                0x000030cc      0x1d0 build/default/production/_ext/1655452824/mac_scan.o
                0x000030cc                MAC_MLME_ScanRequest

.text.MAC_ProcessBeaconFrame%156
                0x0000329c      0x1cc
 .text.MAC_ProcessBeaconFrame
                0x0000329c      0x1cc build/default/production/_ext/1655452824/mac_process_beacon_frame.o
                0x0000329c                MAC_ProcessBeaconFrame

.text.__aeabi_dadd%157
                0x00003468      0x1c8
 .text.__aeabi_dadd
                0x00003468      0x1c8 c:/program files/microchip/xc32/v4.35/bin/bin/../../lib/gcc/pic32c/8.3.1/../../../../pic32c/lib/thumb/v6-m/nofp\libm-fast-emfloat.a(__aeabi_dadd.o)
                0x00003468                __aeabi_dadd
                0x0000346e                .L__aeabi_dadd_fast_entry

.text.Handle_ButtonInterrupt%158
                0x00003630      0x1b4
 .text.Handle_ButtonInterrupt
                0x00003630      0x1b4 build/default/production/_ext/85628700/demo_app_ffd.o
                0x00003630                Handle_ButtonInterrupt

.text.MAC_BuildAndTxBeacon%159
                0x000037e4      0x1a8
 .text.MAC_BuildAndTxBeacon
                0x000037e4      0x1a8 build/default/production/_ext/1655452824/mac_beacon.o
                0x000037e4                MAC_BuildAndTxBeacon

.text.MAC_MLME_Set%160
                0x0000398c      0x1a4
 .text.MAC_MLME_Set
                0x0000398c      0x1a4 build/default/production/_ext/1655452824/mac_pib.o
                0x0000398c                MAC_MLME_Set

.text.prvTimerTask%161
                0x00003b30      0x19c
 .text.prvTimerTask
                0x00003b30      0x19c build/default/production/_ext/404212886/timers.o

.text.MAC_MLME_AssociateRequest%162
                0x00003ccc      0x18c
 .text.MAC_MLME_AssociateRequest
                0x00003ccc      0x18c build/default/production/_ext/1655452824/mac_associate.o
                0x00003ccc                MAC_MLME_AssociateRequest

.text.ScanProceed%163
                0x00003e58      0x18c
 .text.ScanProceed
                0x00003e58      0x18c build/default/production/_ext/1655452824/mac_scan.o

.text.__aeabi_dmul_aux%164
                0x00003fe4      0x18a
 .text.__aeabi_dmul_aux
                0x00003fe4      0x18a c:/program files/microchip/xc32/v4.35/bin/bin/../../lib/gcc/pic32c/8.3.1/../../../../pic32c/lib/thumb/v6-m/nofp\libm-fast-emfloat.a(__aeabi_dmul_aux.o)
                0x00003fe4                __aeabi_dmul_aux
                0x0000401c                __aeabi_dmul

.text.MAC_PrepDisassocConf%165
                0x00004170      0x17c
 .text.MAC_PrepDisassocConf
                0x00004170      0x17c build/default/production/_ext/1655452824/mac_disassociate.o
                0x00004170                MAC_PrepDisassocConf

.text.SERCOM4_SPI_WriteRead%166
                0x000042ec      0x178
 .text.SERCOM4_SPI_WriteRead
                0x000042ec      0x178 build/default/production/_ext/17022449/plib_sercom4_spi_master.o
                0x000042ec                SERCOM4_SPI_WriteRead

.text.MAC_ProcessDataFrame%167
                0x00004464      0x168
 .text.MAC_ProcessDataFrame
                0x00004464      0x168 build/default/production/_ext/1655452824/mac_mcps_data.o
                0x00004464                MAC_ProcessDataFrame

.text.PHY_Init%168
                0x000045cc      0x15c
 .text.PHY_Init
                0x000045cc      0x15c build/default/production/_ext/559172130/phy_init.o
                0x000045cc                PHY_Init

.text.MAC_HandleTxNullDataFrame%169
                0x00004728      0x15c
 .text.MAC_HandleTxNullDataFrame
                0x00004728      0x15c build/default/production/_ext/1655452824/mac_data_req.o
                0x00004728                MAC_HandleTxNullDataFrame

.text.SERCOM4_SPI_InterruptHandler%170
                0x00004884      0x154
 .text.SERCOM4_SPI_InterruptHandler
                0x00004884      0x154 build/default/production/_ext/17022449/plib_sercom4_spi_master.o
                0x00004884                SERCOM4_SPI_InterruptHandler

.text.MAC_TxCoordRealignmentCommand%171
                0x000049d8      0x14c
 .text.MAC_TxCoordRealignmentCommand
                0x000049d8      0x14c build/default/production/_ext/1655452824/mac_tx_coord_realignment_command.o
                0x000049d8                MAC_TxCoordRealignmentCommand

.text.xQueueGenericSend%172
                0x00004b24      0x138
 .text.xQueueGenericSend
                0x00004b24      0x138 build/default/production/_ext/404212886/queue.o
                0x00004b24                xQueueGenericSend

.text.xQueueSemaphoreTake%173
                0x00004c5c      0x136
 .text.xQueueSemaphoreTake
                0x00004c5c      0x136 build/default/production/_ext/404212886/queue.o
                0x00004c5c                xQueueSemaphoreTake

.text.xTaskIncrementTick%174
                0x00004d94      0x134
 .text.xTaskIncrementTick
                0x00004d94      0x134 build/default/production/_ext/404212886/FreeRTOS_tasks.o
                0x00004d94                xTaskIncrementTick

.text.__fmt_x%175
                0x00004ec8      0x132
 .text.__fmt_x  0x00004ec8      0x132 c:/program files/microchip/xc32/v4.35/bin/bin/../../lib/gcc/pic32c/8.3.1/../../../../pic32c/lib/thumb/v6-m/nofp\libc-musl.a(__fmt_x.o)
                0x00004ec8                __fmt_x_needed
                0x00004ec8                __fmt_x

.text.pvPortMalloc%176
                0x00004ffc      0x128
 .text.pvPortMalloc
                0x00004ffc      0x128 build/default/production/_ext/1665200909/heap_4.o
                0x00004ffc                pvPortMalloc

.text.MAC_MLME_StartRequest%177
                0x00005124      0x124
 .text.MAC_MLME_StartRequest
                0x00005124      0x124 build/default/production/_ext/1655452824/mac_start.o
                0x00005124                MAC_MLME_StartRequest

.text.PHY_PibGet%178
                0x00005248      0x11c
 .text.PHY_PibGet
                0x00005248      0x11c build/default/production/_ext/559172130/phy_pib.o
                0x00005248                PHY_PibGet

.text.CheckForPanIdConflictNonPc%179
                0x00005364      0x118
 .text.CheckForPanIdConflictNonPc
                0x00005364      0x118 build/default/production/_ext/1655452824/mac_data_ind.o

.text.SYS_Initialize%180
                0x0000547c      0x110
 .text.SYS_Initialize
                0x0000547c      0x110 build/default/production/_ext/1171490990/initialization.o
                0x0000547c                SYS_Initialize

.text.MAC_MLME_AssociateResponse%181
                0x0000558c      0x108
 .text.MAC_MLME_AssociateResponse
                0x0000558c      0x108 build/default/production/_ext/1655452824/mac_associate.o
                0x0000558c                MAC_MLME_AssociateResponse

.text.SERCOM0_USART_Write%182
                0x00005694      0x104
 .text.SERCOM0_USART_Write
                0x00005694      0x104 build/default/production/_ext/504274921/plib_sercom0_usart.o
                0x00005694                SERCOM0_USART_Write

.text.xQueueReceive%183
                0x00005798       0xf8
 .text.xQueueReceive
                0x00005798       0xf8 build/default/production/_ext/404212886/queue.o
                0x00005798                xQueueReceive

.text.MAC_ExtractMhrAddrInfo%184
                0x00005890       0xec
 .text.MAC_ExtractMhrAddrInfo
                0x00005890       0xec build/default/production/_ext/1655452824/mac_data_extract_mhr.o
                0x00005890                MAC_ExtractMhrAddrInfo

.text.SERCOM0_USART_ISR_RX_Handler%185
                0x0000597c       0xec
 .text.SERCOM0_USART_ISR_RX_Handler
                0x0000597c       0xec build/default/production/_ext/504274921/plib_sercom0_usart.o

.text.xTaskResumeAll%186
                0x00005a68       0xe8
 .text.xTaskResumeAll
                0x00005a68       0xe8 build/default/production/_ext/404212886/FreeRTOS_tasks.o
                0x00005a68                xTaskResumeAll

.text.SYS_TIME_PLIBCallback%187
                0x00005b50       0xe8
 .text.SYS_TIME_PLIBCallback
                0x00005b50       0xe8 build/default/production/_ext/101884895/sys_time.o

.text%188       0x00005c38       0xe2
 .text          0x00005c38       0xe2 c:/program files/microchip/xc32/v4.35/bin/bin/../../lib/gcc/pic32c/8.3.1/thumb/v6-m/nofp\libgcc.a(_udivmoddi4.o)
                0x00005c38                __udivmoddi4

.text.SERCOM0_USART_ISR_TX_Handler%189
                0x00005d1c       0xe0
 .text.SERCOM0_USART_ISR_TX_Handler
                0x00005d1c       0xe0 build/default/production/_ext/504274921/plib_sercom0_usart.o

.text.SYS_TIME_AddToList%190
                0x00005dfc       0xdc
 .text.SYS_TIME_AddToList
                0x00005dfc       0xdc build/default/production/_ext/101884895/sys_time.o

.text.Handle_AssociateInd%191
                0x00005ed8       0xdc
 .text.Handle_AssociateInd
                0x00005ed8       0xdc build/default/production/_ext/85628700/demo_app_ffd.o
                0x00005ed8                Handle_AssociateInd

.text.send_frame%192
                0x00005fb4       0xd8
 .text.send_frame
                0x00005fb4       0xd8 build/default/production/_ext/559172130/phy_tx.o
                0x00005fb4                send_frame

.text.vTaskSwitchContext%193
                0x0000608c       0xc4
 .text.vTaskSwitchContext
                0x0000608c       0xc4 build/default/production/_ext/404212886/FreeRTOS_tasks.o
                0x0000608c                vTaskSwitchContext

.text.SYS_TIME_Initialize%194
                0x00006150       0xc4
 .text.SYS_TIME_Initialize
                0x00006150       0xc4 build/default/production/_ext/101884895/sys_time.o
                0x00006150                SYS_TIME_Initialize

.text.__aeabi_ddiv%195
                0x00006214       0xc4
 .text.__aeabi_ddiv
                0x00006214       0xc4 c:/program files/microchip/xc32/v4.35/bin/bin/../../lib/gcc/pic32c/8.3.1/../../../../pic32c/lib/thumb/v6-m/nofp\libm-fast-emfloat.a(__aeabi_ddiv.o)
                0x00006214                __aeabi_ddiv

.text.SYS_TIME_TimerObjectCreate%196
                0x000062d8       0xc0
 .text.SYS_TIME_TimerObjectCreate
                0x000062d8       0xc0 build/default/production/_ext/101884895/sys_time.o

.text.MAC_SoftReset%197
                0x00006398       0xc0
 .text.MAC_SoftReset
                0x00006398       0xc0 build/default/production/_ext/1655452824/mac_misc.o

.text.__pop_int%198
                0x00006458       0xbe
 .text.__pop_int
                0x00006458       0xbe c:/program files/microchip/xc32/v4.35/bin/bin/../../lib/gcc/pic32c/8.3.1/../../../../pic32c/lib/thumb/v6-m/nofp\libc-musl.a(__pop_int.o)
                0x00006458                __pop_int_needed
                0x00006458                __pop_int

.text.SYS_TIME_HwTimerCompareUpdate%199
                0x00006518       0xbc
 .text.SYS_TIME_HwTimerCompareUpdate
                0x00006518       0xbc build/default/production/_ext/101884895/sys_time.o

.rodata.set_trx_state%200
                0x000065d4       0xb4
 .rodata.set_trx_state
                0x000065d4       0xb4 build/default/production/_ext/559172130/phy.o

.text.SendScanCmd%201
                0x00006688       0xb4
 .text.SendScanCmd
                0x00006688       0xb4 build/default/production/_ext/1655452824/mac_scan.o

.text.MAC_ProcessOrphanRealign%202
                0x0000673c       0xb4
 .text.MAC_ProcessOrphanRealign
                0x0000673c       0xb4 build/default/production/_ext/1655452824/mac_scan.o
                0x0000673c                MAC_ProcessOrphanRealign

.text.Handle_DataConf%203
                0x000067f0       0xb4
 .text.Handle_DataConf
                0x000067f0       0xb4 build/default/production/_ext/85628700/demo_app_ffd.o
                0x000067f0                Handle_DataConf

.text.floor%204
                0x000068a4       0xb4
 .text.floor    0x000068a4       0xb4 c:/program files/microchip/xc32/v4.35/bin/bin/../../lib/gcc/pic32c/8.3.1/../../../../pic32c/lib/thumb/v6-m/nofp\libm-fast-emfloat.a(floor.o)
                0x000068a4                floor

.text.__fmt_d%205
                0x00006958       0xb2
 .text.__fmt_d  0x00006958       0xb2 c:/program files/microchip/xc32/v4.35/bin/bin/../../lib/gcc/pic32c/8.3.1/../../../../pic32c/lib/thumb/v6-m/nofp\libc-musl.a(__fmt_d.o)
                0x00006958                __fmt_d
                0x00006958                __fmt_d_needed

.text.MAC_SyncLoss%206
                0x00006a0c       0xb0
 .text.MAC_SyncLoss
                0x00006a0c       0xb0 build/default/production/_ext/1655452824/mac_sync.o
                0x00006a0c                MAC_SyncLoss

.text.MAC_ProcessDataRequest%207
                0x00006abc       0xb0
 .text.MAC_ProcessDataRequest
                0x00006abc       0xb0 build/default/production/_ext/1655452824/mac_data_req.o
                0x00006abc                MAC_ProcessDataRequest

.text.MAC_MLME_RxEnableRequest%208
                0x00006b6c       0xb0
 .text.MAC_MLME_RxEnableRequest
                0x00006b6c       0xb0 build/default/production/_ext/1655452824/mac_rx_enable.o
                0x00006b6c                MAC_MLME_RxEnableRequest

.text.prvSampleTimeNow%209
                0x00006c1c       0xb0
 .text.prvSampleTimeNow
                0x00006c1c       0xb0 build/default/production/_ext/404212886/timers.o

.text.PHY_EdStart%210
                0x00006ccc       0xa8
 .text.PHY_EdStart
                0x00006ccc       0xa8 build/default/production/_ext/559172130/phy_ed.o
                0x00006ccc                PHY_EdStart

.text%211       0x00006d74       0xa8
 .text          0x00006d74       0xa8 c:/program files/microchip/xc32/v4.35/bin/bin/../../lib/gcc/pic32c/8.3.1/thumb/v6-m/nofp\libgcc.a(_divsi3.o)
                0x00006d74                __divsi3
                0x00006d74                __aeabi_idiv
                0x00006e08                __aeabi_idivmod

.text.CLOCK_Initialize%212
                0x00006e1c       0xa4
 .text.CLOCK_Initialize
                0x00006e1c       0xa4 build/default/production/_ext/1984496892/plib_clock.o
                0x00006e1c                CLOCK_Initialize

.text.bmm_buffer_init%213
                0x00006ec0       0xa4
 .text.bmm_buffer_init
                0x00006ec0       0xa4 build/default/production/_ext/1374435801/bmm.o
                0x00006ec0                bmm_buffer_init

.text.switch_pll_on%214
                0x00006f64       0xa0
 .text.switch_pll_on
                0x00006f64       0xa0 build/default/production/_ext/559172130/phy.o

.text.xQueueGenericSendFromISR%215
                0x00007004       0x9e
 .text.xQueueGenericSendFromISR
                0x00007004       0x9e build/default/production/_ext/404212886/queue.o
                0x00007004                xQueueGenericSendFromISR

.text.MAC_ProcessAssociateResponse%216
                0x000070a4       0x9c
 .text.MAC_ProcessAssociateResponse
                0x000070a4       0x9c build/default/production/_ext/1655452824/mac_associate.o
                0x000070a4                MAC_ProcessAssociateResponse

.text.ScanSetComplete%217
                0x00007140       0x9c
 .text.ScanSetComplete
                0x00007140       0x9c build/default/production/_ext/1655452824/mac_scan.o

.text.prvUnlockQueue%218
                0x000071dc       0x98
 .text.prvUnlockQueue
                0x000071dc       0x98 build/default/production/_ext/404212886/queue.o

.text.SERCOM0_USART_Read%219
                0x00007274       0x94
 .text.SERCOM0_USART_Read
                0x00007274       0x94 build/default/production/_ext/504274921/plib_sercom0_usart.o
                0x00007274                SERCOM0_USART_Read

.text.MAC_ScanSendComplete%220
                0x00007308       0x94
 .text.MAC_ScanSendComplete
                0x00007308       0x94 build/default/production/_ext/1655452824/mac_scan.o
                0x00007308                MAC_ScanSendComplete

.text.Handle_SetConf%221
                0x0000739c       0x94
 .text.Handle_SetConf
                0x0000739c       0x94 build/default/production/_ext/85628700/demo_app_ffd.o
                0x0000739c                Handle_SetConf

.text.xTaskPriorityInherit%222
                0x00007430       0x90
 .text.xTaskPriorityInherit
                0x00007430       0x90 build/default/production/_ext/404212886/FreeRTOS_tasks.o
                0x00007430                xTaskPriorityInherit

.rodata.dispatch_Table%223
                0x000074c0       0x90
 .rodata.dispatch_Table
                0x000074c0       0x90 build/default/production/_ext/1655452824/mac_dispatcher.o

.text.write_all_tal_pib_to_trx%224
                0x00007550       0x90
 .text.write_all_tal_pib_to_trx
                0x00007550       0x90 build/default/production/_ext/559172130/phy_pib.o
                0x00007550                write_all_tal_pib_to_trx

.text.WPAN_MCPS_Datareq%225
                0x000075e0       0x90
 .text.WPAN_MCPS_Datareq
                0x000075e0       0x90 build/default/production/_ext/1655452824/mac_api.o
                0x000075e0                WPAN_MCPS_Datareq

.text.handle_tx_end_irq%226
                0x00007670       0x8c
 .text.handle_tx_end_irq
                0x00007670       0x8c build/default/production/_ext/559172130/phy_tx.o
                0x00007670                handle_tx_end_irq

.rodata.MAC_ProcessPhyDataInd%227
                0x000076fc       0x8c
 .rodata.MAC_ProcessPhyDataInd
                0x000076fc       0x8c build/default/production/_ext/1655452824/mac_data_ind.o

.text.Handle_DataInd%228
                0x00007788       0x8c
 .text.Handle_DataInd
                0x00007788       0x8c build/default/production/_ext/85628700/demo_app_ffd.o
                0x00007788                Handle_DataInd

.text.Handle_GetConf%229
                0x00007814       0x8c
 .text.Handle_GetConf
                0x00007814       0x8c build/default/production/_ext/85628700/demo_app_ffd.o
                0x00007814                Handle_GetConf

.text%230       0x000078a0       0x8c
 .text          0x000078a0       0x8c c:/program files/microchip/xc32/v4.35/bin/bin/../../lib/gcc/pic32c/8.3.1/thumb/v6-m/nofp\libgcc.a(_udivsi3.o)
                0x000078a0                __aeabi_uidiv
                0x000078a0                __udivsi3
                0x00007918                __aeabi_uidivmod

.text.internal_tal_reset%231
                0x0000792c       0x88
 .text.internal_tal_reset
                0x0000792c       0x88 build/default/production/_ext/559172130/phy_init.o

.text.SERCOM0_USART_Initialize%232
                0x000079b4       0x88
 .text.SERCOM0_USART_Initialize
                0x000079b4       0x88 build/default/production/_ext/504274921/plib_sercom0_usart.o
                0x000079b4                SERCOM0_USART_Initialize

.text.prvAddCurrentTaskToDelayedList%233
                0x00007a3c       0x84
 .text.prvAddCurrentTaskToDelayedList
                0x00007a3c       0x84 build/default/production/_ext/404212886/FreeRTOS_tasks.o

.text.tal_generate_rand_seed%234
                0x00007ac0       0x80
 .text.tal_generate_rand_seed
                0x00007ac0       0x80 build/default/production/_ext/559172130/phy_init.o
                0x00007ac0                tal_generate_rand_seed

.text.PHY_TaskHandler%235
                0x00007b40       0x80
 .text.PHY_TaskHandler
                0x00007b40       0x80 build/default/production/_ext/559172130/phy.o
                0x00007b40                PHY_TaskHandler

.text.PAL_TimerStart%236
                0x00007bc0       0x80
 .text.PAL_TimerStart
                0x00007bc0       0x80 build/default/production/_ext/745501718/pal.o
                0x00007bc0                PAL_TimerStart

.text.WPAN_Tasks%237
                0x00007c40       0x7c
 .text.WPAN_Tasks
                0x00007c40       0x7c build/default/production/_ext/1655452824/mac_task.o
                0x00007c40                WPAN_Tasks

.text.EIC_Initialize%238
                0x00007cbc       0x7c
 .text.EIC_Initialize
                0x00007cbc       0x7c build/default/production/_ext/60167341/plib_eic.o
                0x00007cbc                EIC_Initialize

.text.handle_received_frame_irq%239
                0x00007d38       0x7c
 .text.handle_received_frame_irq
                0x00007d38       0x7c build/default/production/_ext/559172130/phy_rx.o
                0x00007d38                handle_received_frame_irq

.text.xQueueGiveFromISR%240
                0x00007db4       0x7a
 .text.xQueueGiveFromISR
                0x00007db4       0x7a build/default/production/_ext/404212886/queue.o
                0x00007db4                xQueueGiveFromISR

.text.__pad%241
                0x00007e2e       0x7a
 .text.__pad    0x00007e2e       0x7a c:/program files/microchip/xc32/v4.35/bin/bin/../../lib/gcc/pic32c/8.3.1/../../../../pic32c/lib/thumb/v6-m/nofp\libc-musl.a(__printf_core.o)
                0x00007e2e                __pad

.text.xTaskRemoveFromEventList%242
                0x00007ea8       0x78
 .text.xTaskRemoveFromEventList
                0x00007ea8       0x78 build/default/production/_ext/404212886/FreeRTOS_tasks.o
                0x00007ea8                xTaskRemoveFromEventList

.text.WPAN_MLME_StartReq%243
                0x00007f20       0x78
 .text.WPAN_MLME_StartReq
                0x00007f20       0x78 build/default/production/_ext/1655452824/mac_api.o
                0x00007f20                WPAN_MLME_StartReq

.text.MAC_MLME_PollRequest%244
                0x00007f98       0x78
 .text.MAC_MLME_PollRequest
                0x00007f98       0x78 build/default/production/_ext/1655452824/mac_poll.o
                0x00007f98                MAC_MLME_PollRequest

.text.prvCopyDataToQueue%245
                0x00008010       0x76
 .text.prvCopyDataToQueue
                0x00008010       0x76 build/default/production/_ext/404212886/queue.o

.text.__cvt_u%246
                0x00008086       0x76
 .text.__cvt_u  0x00008086       0x76 c:/program files/microchip/xc32/v4.35/bin/bin/../../lib/gcc/pic32c/8.3.1/../../../../pic32c/lib/thumb/v6-m/nofp\libc-musl.a(__cvt_u.o)
                0x00008086                __cvt_u

.text.xTaskCheckForTimeOut%247
                0x000080fc       0x74
 .text.xTaskCheckForTimeOut
                0x000080fc       0x74 build/default/production/_ext/404212886/FreeRTOS_tasks.o
                0x000080fc                xTaskCheckForTimeOut

.text.MAC_Timer_PersistenceCb%248
                0x00008170       0x74
 .text.MAC_Timer_PersistenceCb
                0x00008170       0x74 build/default/production/_ext/1655452824/mac_mcps_data.o

.text.NVIC_Initialize%249
                0x000081e4       0x70
 .text.NVIC_Initialize
                0x000081e4       0x70 build/default/production/_ext/1865468468/plib_nvic.o
                0x000081e4                NVIC_Initialize

.text.PORT_Initialize%250
                0x00008254       0x70
 .text.PORT_Initialize
                0x00008254       0x70 build/default/production/_ext/1865521619/plib_port.o
                0x00008254                PORT_Initialize

.text.SYS_CONSOLE_Initialize%251
                0x000082c4       0x70
 .text.SYS_CONSOLE_Initialize
                0x000082c4       0x70 build/default/production/_ext/1832805299/sys_console.o
                0x000082c4                SYS_CONSOLE_Initialize

.text.SYS_CONSOLE_Print%252
                0x00008334       0x70
 .text.SYS_CONSOLE_Print
                0x00008334       0x70 build/default/production/_ext/1832805299/sys_console.o
                0x00008334                SYS_CONSOLE_Print

.text.SYS_Tasks%253
                0x000083a4       0x70
 .text.SYS_Tasks
                0x000083a4       0x70 build/default/production/_ext/1171490990/tasks.o
                0x000083a4                SYS_Tasks

.text.__fmt_o%254
                0x00008414       0x6e
 .text.__fmt_o  0x00008414       0x6e c:/program files/microchip/xc32/v4.35/bin/bin/../../lib/gcc/pic32c/8.3.1/../../../../pic32c/lib/thumb/v6-m/nofp\libc-musl.a(__fmt_o.o)
                0x00008414                __fmt_o
                0x00008414                __fmt_o_needed

.text.MAC_ProcessCoordRealign%255
                0x00008484       0x6c
 .text.MAC_ProcessCoordRealign
                0x00008484       0x6c build/default/production/_ext/1655452824/mac_sync.o
                0x00008484                MAC_ProcessCoordRealign

.text.trx_config%256
                0x000084f0       0x6c
 .text.trx_config
                0x000084f0       0x6c build/default/production/_ext/559172130/phy_init.o
                0x000084f0                trx_config

.text.prvIdleTask%257
                0x0000855c       0x6c
 .text.prvIdleTask
                0x0000855c       0x6c build/default/production/_ext/404212886/FreeRTOS_tasks.o

.text.vTaskPriorityDisinheritAfterTimeout%258
                0x000085c8       0x6c
 .text.vTaskPriorityDisinheritAfterTimeout
                0x000085c8       0x6c build/default/production/_ext/404212886/FreeRTOS_tasks.o
                0x000085c8                vTaskPriorityDisinheritAfterTimeout

.text.trx_reg_read%259
                0x00008634       0x6c
 .text.trx_reg_read
                0x00008634       0x6c build/default/production/_ext/559172130/phy_trx_reg_access.o
                0x00008634                trx_reg_read

.text.qmm_queue_remove%260
                0x000086a0       0x6a
 .text.qmm_queue_remove
                0x000086a0       0x6a build/default/production/_ext/874725666/qmm.o
                0x000086a0                qmm_queue_remove

.text.MAC_MLME_CommStatus%261
                0x0000870c       0x68
 .text.MAC_MLME_CommStatus
                0x0000870c       0x68 build/default/production/_ext/1655452824/mac_misc.o
                0x0000870c                MAC_MLME_CommStatus

.text.trx_reg_write%262
                0x00008774       0x68
 .text.trx_reg_write
                0x00008774       0x68 build/default/production/_ext/559172130/phy_trx_reg_access.o
                0x00008774                trx_reg_write

.text.__pop_ptr%263
                0x000087dc       0x68
 .text.__pop_ptr
                0x000087dc       0x68 c:/program files/microchip/xc32/v4.35/bin/bin/../../lib/gcc/pic32c/8.3.1/../../../../pic32c/lib/thumb/v6-m/nofp\libc-musl.a(__pop_ptr.o)
                0x000087dc                __pop_ptr
                0x000087dc                __pop_ptr_needed

.text.MAC_MLME_ResetRequest%264
                0x00008844       0x64
 .text.MAC_MLME_ResetRequest
                0x00008844       0x64 build/default/production/_ext/1655452824/mac_misc.o
                0x00008844                MAC_MLME_ResetRequest

.text.MAC_ProcessDataResponse%265
                0x000088a8       0x64
 .text.MAC_ProcessDataResponse
                0x000088a8       0x64 build/default/production/_ext/1655452824/mac_poll.o
                0x000088a8                MAC_ProcessDataResponse

.text.xQueueGenericReset%266
                0x0000890c       0x62
 .text.xQueueGenericReset
                0x0000890c       0x62 build/default/production/_ext/404212886/queue.o
                0x0000890c                xQueueGenericReset

.text.PHY_Reset%267
                0x00008970       0x60
 .text.PHY_Reset
                0x00008970       0x60 build/default/production/_ext/559172130/phy_init.o
                0x00008970                PHY_Reset

.text.EIC_InterruptHandler%268
                0x000089d0       0x60
 .text.EIC_InterruptHandler
                0x000089d0       0x60 build/default/production/_ext/60167341/plib_eic.o
                0x000089d0                EIC_InterruptHandler

.text.xTaskPriorityDisinherit%269
                0x00008a30       0x60
 .text.xTaskPriorityDisinherit
                0x00008a30       0x60 build/default/production/_ext/404212886/FreeRTOS_tasks.o
                0x00008a30                xTaskPriorityDisinherit

.text.SYS_TIME_RemoveFromList%270
                0x00008a90       0x60
 .text.SYS_TIME_RemoveFromList
                0x00008a90       0x60 build/default/production/_ext/101884895/sys_time.o

.text.SYS_TIME_TimerStart%271
                0x00008af0       0x60
 .text.SYS_TIME_TimerStart
                0x00008af0       0x60 build/default/production/_ext/101884895/sys_time.o
                0x00008af0                SYS_TIME_TimerStart

.text.MAC_Timer_ResponseWaitCb%272
                0x00008b50       0x60
 .text.MAC_Timer_ResponseWaitCb
                0x00008b50       0x60 build/default/production/_ext/1655452824/mac_associate.o
                0x00008b50                MAC_Timer_ResponseWaitCb

.text.trx_frame_write%273
                0x00008bb0       0x60
 .text.trx_frame_write
                0x00008bb0       0x60 build/default/production/_ext/559172130/phy_trx_reg_access.o
                0x00008bb0                trx_frame_write

.text.trx_frame_read%274
                0x00008c10       0x60
 .text.trx_frame_read
                0x00008c10       0x60 build/default/production/_ext/559172130/phy_trx_reg_access.o
                0x00008c10                trx_frame_read

.text.MAC_FFDDemoInit%275
                0x00008c70       0x60
 .text.MAC_FFDDemoInit
                0x00008c70       0x60 build/default/production/_ext/85628700/demo_app_ffd.o
                0x00008c70                MAC_FFDDemoInit

.text.vsnprintf%276
                0x00008cd0       0x60
 .text.vsnprintf
                0x00008cd0       0x60 c:/program files/microchip/xc32/v4.35/bin/bin/../../lib/gcc/pic32c/8.3.1/../../../../pic32c/lib/thumb/v6-m/nofp\libc-musl.a(vsnprintf.o)
                0x00008cd0                vsnprintf

.text.vTaskStartScheduler%277
                0x00008d30       0x5c
 .text.vTaskStartScheduler
                0x00008d30       0x5c build/default/production/_ext/404212886/FreeRTOS_tasks.o
                0x00008d30                vTaskStartScheduler

.text.MAC_Init%278
                0x00008d8c       0x5c
 .text.MAC_Init
                0x00008d8c       0x5c build/default/production/_ext/1655452824/mac_misc.o
                0x00008d8c                MAC_Init

.text.palTimerCallback%279
                0x00008de8       0x5c
 .text.palTimerCallback
                0x00008de8       0x5c build/default/production/_ext/745501718/pal.o

.text.__libc_start_init%280
                0x00008e44       0x5c
 .text.__libc_start_init
                0x00008e44       0x5c c:/program files/microchip/xc32/v4.35/bin/bin/../../lib/gcc/pic32c/8.3.1/../../../../pic32c/lib/thumb/v6-m/nofp\libc-musl.a(__libc_start_main.o)
                0x00008e44                __libc_init_array

.text.OSAL_SEM_Create%281
                0x00008ea0       0x5a
 .text.OSAL_SEM_Create
                0x00008ea0       0x5a build/default/production/_ext/1529399856/osal_freertos.o
                0x00008ea0                OSAL_SEM_Create

.text.PHY_RxEnable%282
                0x00008efc       0x58
 .text.PHY_RxEnable
                0x00008efc       0x58 build/default/production/_ext/559172130/phy_rx_enable.o
                0x00008efc                PHY_RxEnable

.text.SYS_TIME_TimerAdd%283
                0x00008f54       0x58
 .text.SYS_TIME_TimerAdd
                0x00008f54       0x58 build/default/production/_ext/101884895/sys_time.o

.text.MAC_Timer_RxOffCb%284
                0x00008fac       0x58
 .text.MAC_Timer_RxOffCb
                0x00008fac       0x58 build/default/production/_ext/1655452824/mac_rx_enable.o

.text.MAC_MCPS_DataInd%285
                0x00009004       0x58
 .text.MAC_MCPS_DataInd
                0x00009004       0x58 build/default/production/_ext/1655452824/mac_callback_wrapper.o
                0x00009004                MAC_MCPS_DataInd

.text.WPAN_MLME_SetReq%286
                0x0000905c       0x58
 .text.WPAN_MLME_SetReq
                0x0000905c       0x58 build/default/production/_ext/1655452824/mac_api.o
                0x0000905c                WPAN_MLME_SetReq

.text.xTimerGenericCommand%287
                0x000090b4       0x58
 .text.xTimerGenericCommand
                0x000090b4       0x58 build/default/production/_ext/404212886/timers.o
                0x000090b4                xTimerGenericCommand

.text.vPortFree%288
                0x0000910c       0x58
 .text.vPortFree
                0x0000910c       0x58 build/default/production/_ext/1665200909/heap_4.o
                0x0000910c                vPortFree

.text.__fmt_u%289
                0x00009164       0x56
 .text.__fmt_u  0x00009164       0x56 c:/program files/microchip/xc32/v4.35/bin/bin/../../lib/gcc/pic32c/8.3.1/../../../../pic32c/lib/thumb/v6-m/nofp\libc-musl.a(__fmt_u.o)
                0x00009164                __fmt_u_needed
                0x00009164                __fmt_u

.text.SYS_TIME_DelayUS%290
                0x000091bc       0x54
 .text.SYS_TIME_DelayUS
                0x000091bc       0x54 build/default/production/_ext/101884895/sys_time.o
                0x000091bc                SYS_TIME_DelayUS

.text.MAC_TaskHandler%291
                0x00009210       0x54
 .text.MAC_TaskHandler
                0x00009210       0x54 build/default/production/_ext/1655452824/mac.o
                0x00009210                MAC_TaskHandler

.text.init_tal_pib%292
                0x00009264       0x54
 .text.init_tal_pib
                0x00009264       0x54 build/default/production/_ext/559172130/phy_pib.o
                0x00009264                init_tal_pib

.text.MAC_TimersStop%293
                0x000092b8       0x54
 .text.MAC_TimersStop
                0x000092b8       0x54 build/default/production/_ext/1655452824/mac_misc.o
                0x000092b8                MAC_TimersStop

.text.SERCOM0_USART_InterruptHandler%294
                0x0000930c       0x54
 .text.SERCOM0_USART_InterruptHandler
                0x0000930c       0x54 build/default/production/_ext/504274921/plib_sercom0_usart.o
                0x0000930c                SERCOM0_USART_InterruptHandler

.text.trx_irq_handler_cb%295
                0x00009360       0x54
 .text.trx_irq_handler_cb
                0x00009360       0x54 build/default/production/_ext/559172130/phy_irq_handler.o
                0x00009360                trx_irq_handler_cb

.text.prvInsertBlockIntoFreeList%296
                0x000093b4       0x54
 .text.prvInsertBlockIntoFreeList
                0x000093b4       0x54 build/default/production/_ext/1665200909/heap_4.o

.text.WPAN_MLME_AssociateResp%297
                0x00009408       0x50
 .text.WPAN_MLME_AssociateResp
                0x00009408       0x50 build/default/production/_ext/1655452824/mac_api.o
                0x00009408                WPAN_MLME_AssociateResp

.text.WPAN_MLME_ScanReq%298
                0x00009458       0x50
 .text.WPAN_MLME_ScanReq
                0x00009458       0x50 build/default/production/_ext/1655452824/mac_api.o
                0x00009458                WPAN_MLME_ScanReq

.text.MAC_MCPS_PurgeRequest%299
                0x000094a8       0x50
 .text.MAC_MCPS_PurgeRequest
                0x000094a8       0x50 build/default/production/_ext/1655452824/mac_mcps_data.o
                0x000094a8                MAC_MCPS_PurgeRequest

.text.prvCheckForValidListAndQueue%300
                0x000094f8       0x50
 .text.prvCheckForValidListAndQueue
                0x000094f8       0x50 build/default/production/_ext/404212886/timers.o

.text.vQueueWaitForMessageRestricted%301
                0x00009548       0x50
 .text.vQueueWaitForMessageRestricted
                0x00009548       0x50 build/default/production/_ext/404212886/queue.o
                0x00009548                vQueueWaitForMessageRestricted

.text.ScanCleanUp%302
                0x00009598       0x50
 .text.ScanCleanUp
                0x00009598       0x50 build/default/production/_ext/1655452824/mac_scan.o

.text.ed_scan_done%303
                0x000095e8       0x50
 .text.ed_scan_done
                0x000095e8       0x50 build/default/production/_ext/559172130/phy_ed.o
                0x000095e8                ed_scan_done

.text.Handle_MACMessages%304
                0x00009638       0x50
 .text.Handle_MACMessages
                0x00009638       0x50 build/default/production/_ext/85628700/demo_app_ffd.o
                0x00009638                Handle_MACMessages

.text.__fmt_s%305
                0x00009688       0x50
 .text.__fmt_s  0x00009688       0x50 c:/program files/microchip/xc32/v4.35/bin/bin/../../lib/gcc/pic32c/8.3.1/../../../../pic32c/lib/thumb/v6-m/nofp\libc-musl.a(__fmt_s.o)
                0x00009688                __fmt_s
                0x00009688                __fmt_0_needed
                0x00009688                __fmt_s_needed

.text.findLongBuffer%306
                0x000096d8       0x4e
 .text.findLongBuffer
                0x000096d8       0x4e build/default/production/_ext/1655452824/mac_data_req.o

.text.prvNotifyQueueSetContainer%307
                0x00009726       0x4e
 .text.prvNotifyQueueSetContainer
                0x00009726       0x4e build/default/production/_ext/404212886/queue.o

.text.MAC_Timer_AssocresponsetimeCb%308
                0x00009774       0x4c
 .text.MAC_Timer_AssocresponsetimeCb
                0x00009774       0x4c build/default/production/_ext/1655452824/mac_associate.o
                0x00009774                MAC_Timer_AssocresponsetimeCb

.text.convert_phyTransmitPower_to_reg_value%309
                0x000097c0       0x4c
 .text.convert_phyTransmitPower_to_reg_value
                0x000097c0       0x4c build/default/production/_ext/559172130/phy_pib.o
                0x000097c0                convert_phyTransmitPower_to_reg_value

.text.MAC_TimersInit%310
                0x0000980c       0x4c
 .text.MAC_TimersInit
                0x0000980c       0x4c build/default/production/_ext/1655452824/mac_misc.o
                0x0000980c                MAC_TimersInit

.text.SERCOM0_USART_ISR_ERR_Handler%311
                0x00009858       0x4c
 .text.SERCOM0_USART_ISR_ERR_Handler
                0x00009858       0x4c build/default/production/_ext/504274921/plib_sercom0_usart.o

.text.PHY_RxFrameCallback%312
                0x000098a4       0x4c
 .text.PHY_RxFrameCallback
                0x000098a4       0x4c build/default/production/_ext/1655452824/mac_data_ind.o
                0x000098a4                PHY_RxFrameCallback

.rodata.Handle_SetConf%313
                0x000098f0       0x4c
 .rodata.Handle_SetConf
                0x000098f0       0x4c build/default/production/_ext/85628700/demo_app_ffd.o

.text.__pic32c_data_initialization%314
                0x0000993c       0x4c
 .text.__pic32c_data_initialization
                0x0000993c       0x4c c:/program files/microchip/xc32/v4.35/bin/bin/../../lib/gcc/pic32c/8.3.1/../../../../pic32c/lib/thumb/v6-m/nofp\libpic32c.a(data_init.o)
                0x0000993c                __pic32c_data_initialization

.text%315       0x00009988       0x48
 .text          0x00009988       0x48 c:/program files/microchip/xc32/v4.35/bin/bin/../../lib/gcc/pic32c/8.3.1/thumb/v6-m/nofp/crtbegin.o

.text.Reset_Handler%316
                0x000099d0       0x48
 .text.Reset_Handler
                0x000099d0       0x48 build/default/production/_ext/1171490990/startup_xc32.o
                0x000099d0                Reset_Handler

.text.prvInsertTimerInActiveList%317
                0x00009a18       0x48
 .text.prvInsertTimerInActiveList
                0x00009a18       0x48 build/default/production/_ext/404212886/timers.o

.text.CheckForPanIdConflictAsPc%318
                0x00009a60       0x48
 .text.CheckForPanIdConflictAsPc
                0x00009a60       0x48 build/default/production/_ext/1655452824/mac_data_ind.o

.text.PAL_GetRandomNumber%319
                0x00009aa8       0x48
 .text.PAL_GetRandomNumber
                0x00009aa8       0x48 build/default/production/_ext/745501718/pal.o
                0x00009aa8                PAL_GetRandomNumber

.text.MAC_CoordRealignmentCommandTxSuccess%320
                0x00009af0       0x48
 .text.MAC_CoordRealignmentCommandTxSuccess
                0x00009af0       0x48 build/default/production/_ext/1655452824/mac_start.o
                0x00009af0                MAC_CoordRealignmentCommandTxSuccess

.text.Handle_StartConf%321
                0x00009b38       0x48
 .text.Handle_StartConf
                0x00009b38       0x48 build/default/production/_ext/85628700/demo_app_ffd.o
                0x00009b38                Handle_StartConf

.text.MAC_MLME_OrphanResponse%322
                0x00009b80       0x46
 .text.MAC_MLME_OrphanResponse
                0x00009b80       0x46 build/default/production/_ext/1655452824/mac_orphan.o
                0x00009b80                MAC_MLME_OrphanResponse

.text.xTimerCreate%323
                0x00009bc6       0x46
 .text.xTimerCreate
                0x00009bc6       0x46 build/default/production/_ext/404212886/timers.o
                0x00009bc6                xTimerCreate

.text.PHY_TrxSleep%324
                0x00009c0c       0x44
 .text.PHY_TrxSleep
                0x00009c0c       0x44 build/default/production/_ext/559172130/phy_pwr_mgmt.o
                0x00009c0c                PHY_TrxSleep

.text.tx_done_handling%325
                0x00009c50       0x44
 .text.tx_done_handling
                0x00009c50       0x44 build/default/production/_ext/559172130/phy_tx.o
                0x00009c50                tx_done_handling

.text.MAC_ProcessDisassociateNotification%326
                0x00009c94       0x44
 .text.MAC_ProcessDisassociateNotification
                0x00009c94       0x44 build/default/production/_ext/1655452824/mac_disassociate.o
                0x00009c94                MAC_ProcessDisassociateNotification

.text.xPortPendSVHandler%327
                0x00009ce0       0x44
 .text.xPortPendSVHandler
                0x00009ce0       0x44 build/default/production/_ext/1624415188/port.o
                0x00009ce0                xPortPendSVHandler

.text.trx_ed_irq_handler_cb%328
                0x00009d24       0x44
 .text.trx_ed_irq_handler_cb
                0x00009d24       0x44 build/default/production/_ext/559172130/phy_ed.o
                0x00009d24                trx_ed_irq_handler_cb

.text.PAL_Init%329
                0x00009d68       0x44
 .text.PAL_Init
                0x00009d68       0x44 build/default/production/_ext/745501718/pal.o
                0x00009d68                PAL_Init

.text.process_incoming_frame%330
                0x00009dac       0x44
 .text.process_incoming_frame
                0x00009dac       0x44 build/default/production/_ext/559172130/phy_rx.o
                0x00009dac                process_incoming_frame

.text.USR_MCPS_DataInd%331
                0x00009df0       0x44
 .text.USR_MCPS_DataInd
                0x00009df0       0x44 build/default/production/_ext/85628700/usr_mac_callbacks.o
                0x00009df0                USR_MCPS_DataInd

.text.__aeabi_dcmple%332
                0x00009e34       0x44
 .text.__aeabi_dcmple
                0x00009e34       0x44 c:/program files/microchip/xc32/v4.35/bin/bin/../../lib/gcc/pic32c/8.3.1/../../../../pic32c/lib/thumb/v6-m/nofp\libm-fast-emfloat.a(__aeabi_dcmple.o)
                0x00009e34                __aeabi_dcmple

.text%333       0x00009e78       0x44
 .text          0x00009e78       0x44 c:/program files/microchip/xc32/v4.35/bin/bin/../../lib/gcc/pic32c/8.3.1/thumb/v6-m/nofp\libgcc.a(_muldi3.o)
                0x00009e78                __muldi3
                0x00009e78                __aeabi_lmul

.text.findShortBuffer%334
                0x00009ebc       0x40
 .text.findShortBuffer
                0x00009ebc       0x40 build/default/production/_ext/1655452824/mac_data_req.o

.text.TC3_TimerInitialize%335
                0x00009efc       0x40
 .text.TC3_TimerInitialize
                0x00009efc       0x40 build/default/production/_ext/829342655/plib_tc3.o
                0x00009efc                TC3_TimerInitialize

.text.SYS_TIME_GetTimerObject%336
                0x00009f3c       0x40
 .text.SYS_TIME_GetTimerObject
                0x00009f3c       0x40 build/default/production/_ext/101884895/sys_time.o

.text.SYS_TIME_TimerDestroy%337
                0x00009f7c       0x40
 .text.SYS_TIME_TimerDestroy
                0x00009f7c       0x40 build/default/production/_ext/101884895/sys_time.o
                0x00009f7c                SYS_TIME_TimerDestroy

.text.MAC_ProcessAssociateRequest%338
                0x00009fbc       0x40
 .text.MAC_ProcessAssociateRequest
                0x00009fbc       0x40 build/default/production/_ext/1655452824/mac_associate.o
                0x00009fbc                MAC_ProcessAssociateRequest

.text.MAC_GetPibAttributeSize%339
                0x00009ffc       0x40
 .text.MAC_GetPibAttributeSize
                0x00009ffc       0x40 build/default/production/_ext/1655452824/mac_pib.o
                0x00009ffc                MAC_GetPibAttributeSize

.text.APP_Tasks%340
                0x0000a03c       0x40
 .text.APP_Tasks
                0x0000a03c       0x40 build/default/production/_ext/1360937237/app.o
                0x0000a03c                APP_Tasks

.text.MAC_Gen_MLME_DisassociateConf%341
                0x0000a07c       0x40
 .text.MAC_Gen_MLME_DisassociateConf
                0x0000a07c       0x40 build/default/production/_ext/1655452824/mac_disassociate.o

.text.Console_UART_Read%342
                0x0000a0bc       0x40
 .text.Console_UART_Read
                0x0000a0bc       0x40 build/default/production/_ext/1832805299/sys_console_uart.o
                0x0000a0bc                Console_UART_Read

.text.Console_UART_Write%343
                0x0000a0fc       0x40
 .text.Console_UART_Write
                0x0000a0fc       0x40 build/default/production/_ext/1832805299/sys_console_uart.o
                0x0000a0fc                Console_UART_Write

.text.MAC_MLME_CommStatusInd%344
                0x0000a13c       0x40
 .text.MAC_MLME_CommStatusInd
                0x0000a13c       0x40 build/default/production/_ext/1655452824/mac_callback_wrapper.o
                0x0000a13c                MAC_MLME_CommStatusInd

.text.MAC_Timer_ScanDurationCb%345
                0x0000a17c       0x40
 .text.MAC_Timer_ScanDurationCb
                0x0000a17c       0x40 build/default/production/_ext/1655452824/mac_scan.o

.text.USR_MLME_AssociateInd%346
                0x0000a1bc       0x40
 .text.USR_MLME_AssociateInd
                0x0000a1bc       0x40 build/default/production/_ext/85628700/usr_mac_callbacks.o
                0x0000a1bc                USR_MLME_AssociateInd

.text.atoi%347  0x0000a1fc       0x40
 .text.atoi     0x0000a1fc       0x40 c:/program files/microchip/xc32/v4.35/bin/bin/../../lib/gcc/pic32c/8.3.1/../../../../pic32c/lib/thumb/v6-m/nofp\libc-musl.a(atoi.o)
                0x0000a1fc                atoi

.text%348       0x0000a23c       0x40
 .text          0x0000a23c       0x40 c:/program files/microchip/xc32/v4.35/bin/bin/../../lib/gcc/pic32c/8.3.1/thumb/v6-m/nofp\libgcc.a(_aeabi_uldivmod.o)
                0x0000a23c                __aeabi_uldivmod

.text.__aeabi_dcmpgt%349
                0x0000a27c       0x3e
 .text.__aeabi_dcmpgt
                0x0000a27c       0x3e c:/program files/microchip/xc32/v4.35/bin/bin/../../lib/gcc/pic32c/8.3.1/../../../../pic32c/lib/thumb/v6-m/nofp\libm-fast-emfloat.a(__aeabi_dcmpgt.o)
                0x0000a27c                __aeabi_dcmpgt

.text.__aeabi_dcmplt%350
                0x0000a2ba       0x3e
 .text.__aeabi_dcmplt
                0x0000a2ba       0x3e c:/program files/microchip/xc32/v4.35/bin/bin/../../lib/gcc/pic32c/8.3.1/../../../../pic32c/lib/thumb/v6-m/nofp\libm-fast-emfloat.a(__aeabi_dcmplt.o)
                0x0000a2ba                __aeabi_dcmplt

.text.SYS_INT_SourceDisable%351
                0x0000a2f8       0x3c
 .text.SYS_INT_SourceDisable
                0x0000a2f8       0x3c build/default/production/_ext/1881668453/sys_int.o
                0x0000a2f8                SYS_INT_SourceDisable

.text.SYS_TIME_ResourceLock%352
                0x0000a334       0x3c
 .text.SYS_TIME_ResourceLock
                0x0000a334       0x3c build/default/production/_ext/101884895/sys_time.o

.text.SYS_TIME_CountToUS%353
                0x0000a370       0x3c
 .text.SYS_TIME_CountToUS
                0x0000a370       0x3c build/default/production/_ext/101884895/sys_time.o
                0x0000a370                SYS_TIME_CountToUS

.text.PHY_TxFrame%354
                0x0000a3ac       0x3c
 .text.PHY_TxFrame
                0x0000a3ac       0x3c build/default/production/_ext/559172130/phy_tx.o
                0x0000a3ac                PHY_TxFrame

.text.SERCOM4_SPI_Initialize%355
                0x0000a3e8       0x3c
 .text.SERCOM4_SPI_Initialize
                0x0000a3e8       0x3c build/default/production/_ext/17022449/plib_sercom4_spi_master.o
                0x0000a3e8                SERCOM4_SPI_Initialize

.text.AddPendingShortAddressCb%356
                0x0000a424       0x3c
 .text.AddPendingShortAddressCb
                0x0000a424       0x3c build/default/production/_ext/1655452824/mac_beacon.o

.text.AddPendingExtendedAddressCb%357
                0x0000a460       0x3c
 .text.AddPendingExtendedAddressCb
                0x0000a460       0x3c build/default/production/_ext/1655452824/mac_beacon.o

.rodata.PHY_TxDoneCallback%358
                0x0000a49c       0x3c
 .rodata.PHY_TxDoneCallback
                0x0000a49c       0x3c build/default/production/_ext/1655452824/mac_process_phy_tx_frame_status.o

.text.WPAN_MLME_ResetReq%359
                0x0000a4d8       0x3c
 .text.WPAN_MLME_ResetReq
                0x0000a4d8       0x3c build/default/production/_ext/1655452824/mac_api.o
                0x0000a4d8                WPAN_MLME_ResetReq

.text.WPAN_MLME_GetReq%360
                0x0000a514       0x3c
 .text.WPAN_MLME_GetReq
                0x0000a514       0x3c build/default/production/_ext/1655452824/mac_api.o
                0x0000a514                WPAN_MLME_GetReq

.text.xTimerCreateTimerTask%361
                0x0000a550       0x3c
 .text.xTimerCreateTimerTask
                0x0000a550       0x3c build/default/production/_ext/404212886/timers.o
                0x0000a550                xTimerCreateTimerTask

.text.PHY_EdEndCallback%362
                0x0000a58c       0x3c
 .text.PHY_EdEndCallback
                0x0000a58c       0x3c build/default/production/_ext/1655452824/mac_scan.o
                0x0000a58c                PHY_EdEndCallback

.text.xPortStartScheduler%363
                0x0000a5c8       0x3c
 .text.xPortStartScheduler
                0x0000a5c8       0x3c build/default/production/_ext/1624415188/port.o
                0x0000a5c8                xPortStartScheduler

.rodata.Handle_MACMessages%364
                0x0000a604       0x3c
 .rodata.Handle_MACMessages
                0x0000a604       0x3c build/default/production/_ext/85628700/demo_app_ffd.o

.text.USR_MLME_BeaconNotifyInd%365
                0x0000a640       0x3c
 .text.USR_MLME_BeaconNotifyInd
                0x0000a640       0x3c build/default/production/_ext/85628700/usr_mac_callbacks.o
                0x0000a640                USR_MLME_BeaconNotifyInd

.text.USR_MLME_ScanConf%366
                0x0000a67c       0x3c
 .text.USR_MLME_ScanConf
                0x0000a67c       0x3c build/default/production/_ext/85628700/usr_mac_callbacks.o
                0x0000a67c                USR_MLME_ScanConf

.text%367       0x0000a6b8       0x3c
 .text          0x0000a6b8       0x3c c:/program files/microchip/xc32/v4.35/bin/bin/../../lib/gcc/pic32c/8.3.1/thumb/v6-m/nofp\libgcc.a(_clzsi2.o)
                0x0000a6b8                __clzsi2

.text.SYS_TIME_UpdateTimerList%368
                0x0000a6f4       0x38
 .text.SYS_TIME_UpdateTimerList
                0x0000a6f4       0x38 build/default/production/_ext/101884895/sys_time.o

.text.Console_UART_WriteCountGet%369
                0x0000a72c       0x38
 .text.Console_UART_WriteCountGet
                0x0000a72c       0x38 build/default/production/_ext/1832805299/sys_console_uart.o
                0x0000a72c                Console_UART_WriteCountGet

.text.Console_UART_WriteFreeBufferCountGet%370
                0x0000a764       0x38
 .text.Console_UART_WriteFreeBufferCountGet
                0x0000a764       0x38 build/default/production/_ext/1832805299/sys_console_uart.o
                0x0000a764                Console_UART_WriteFreeBufferCountGet

.text.Console_UART_ReadFreeBufferCountGet%371
                0x0000a79c       0x38
 .text.Console_UART_ReadFreeBufferCountGet
                0x0000a79c       0x38 build/default/production/_ext/1832805299/sys_console_uart.o
                0x0000a79c                Console_UART_ReadFreeBufferCountGet

.text.Console_UART_ReadCountGet%372
                0x0000a7d4       0x38
 .text.Console_UART_ReadCountGet
                0x0000a7d4       0x38 build/default/production/_ext/1832805299/sys_console_uart.o
                0x0000a7d4                Console_UART_ReadCountGet

.text.bmm_buffer_alloc%373
                0x0000a80c       0x38
 .text.bmm_buffer_alloc
                0x0000a80c       0x38 build/default/production/_ext/1374435801/bmm.o
                0x0000a80c                bmm_buffer_alloc

.text.OSAL_QUEUE_SendISR%374
                0x0000a844       0x34
 .text.OSAL_QUEUE_SendISR
                0x0000a844       0x34 build/default/production/_ext/1529399856/osal_freertos_extend.o
                0x0000a844                OSAL_QUEUE_SendISR

.text.SYS_CONSOLE_Message%375
                0x0000a878       0x34
 .text.SYS_CONSOLE_Message
                0x0000a878       0x34 build/default/production/_ext/1832805299/sys_console.o
                0x0000a878                SYS_CONSOLE_Message

.text.OSAL_SEM_PostISR%376
                0x0000a8ac       0x34
 .text.OSAL_SEM_PostISR
                0x0000a8ac       0x34 build/default/production/_ext/1529399856/osal_freertos.o
                0x0000a8ac                OSAL_SEM_PostISR

.text.MAC_StartPersistenceTimer%377
                0x0000a8e0       0x34
 .text.MAC_StartPersistenceTimer
                0x0000a8e0       0x34 build/default/production/_ext/1655452824/mac_mcps_data.o
                0x0000a8e0                MAC_StartPersistenceTimer

.text.vPortStartFirstTask%378
                0x0000a920       0x34
 .text.vPortStartFirstTask
                0x0000a920       0x34 build/default/production/_ext/1624415188/port.o

.text.__fmt_state%379
                0x0000a954       0x34
 .text.__fmt_state
                0x0000a954       0x34 c:/program files/microchip/xc32/v4.35/bin/bin/../../lib/gcc/pic32c/8.3.1/../../../../pic32c/lib/thumb/v6-m/nofp\libc-musl.a(__printf_core.o)
                0x0000a954                __fmt_state

.text.__aeabi_d2iz%380
                0x0000a988       0x34
 .text.__aeabi_d2iz
                0x0000a988       0x34 c:/program files/microchip/xc32/v4.35/bin/bin/../../lib/gcc/pic32c/8.3.1/../../../../pic32c/lib/thumb/v6-m/nofp\libm-fast-emfloat.a(__aeabi_d2iz.o)
                0x0000a988                __aeabi_d2iz

.text.MAC_IdleTrans%381
                0x0000a9bc       0x32
 .text.MAC_IdleTrans
                0x0000a9bc       0x32 build/default/production/_ext/1655452824/mac_misc.o
                0x0000a9bc                MAC_IdleTrans

.text.xQueueGenericCreate%382
                0x0000a9ee       0x32
 .text.xQueueGenericCreate
                0x0000a9ee       0x32 build/default/production/_ext/404212886/queue.o
                0x0000a9ee                xQueueGenericCreate

.text.SYS_TIME_Counter64Get%383
                0x0000aa20       0x30
 .text.SYS_TIME_Counter64Get
                0x0000aa20       0x30 build/default/production/_ext/101884895/sys_time.o
                0x0000aa20                SYS_TIME_Counter64Get

.text.MAC_MLME_SetRequest%384
                0x0000aa50       0x30
 .text.MAC_MLME_SetRequest
                0x0000aa50       0x30 build/default/production/_ext/1655452824/mac_pib.o
                0x0000aa50                MAC_MLME_SetRequest

.text.SetPhyPibInternal%385
                0x0000aa80       0x30
 .text.SetPhyPibInternal
                0x0000aa80       0x30 build/default/production/_ext/1655452824/mac_pib.o
                0x0000aa80                SetPhyPibInternal

.text.bmm_buffer_free%386
                0x0000aab0       0x30
 .text.bmm_buffer_free
                0x0000aab0       0x30 build/default/production/_ext/1374435801/bmm.o
                0x0000aab0                bmm_buffer_free

.text.MAC_Timer_PollWaitTimeCb%387
                0x0000aae0       0x30
 .text.MAC_Timer_PollWaitTimeCb
                0x0000aae0       0x30 build/default/production/_ext/1655452824/mac_poll.o
                0x0000aae0                MAC_Timer_PollWaitTimeCb

.text.Handle_ScanConf%388
                0x0000ab10       0x30
 .text.Handle_ScanConf
                0x0000ab10       0x30 build/default/production/_ext/85628700/demo_app_ffd.o
                0x0000ab10                Handle_ScanConf

.text.USR_MCPS_DataConf%389
                0x0000ab40       0x30
 .text.USR_MCPS_DataConf
                0x0000ab40       0x30 build/default/production/_ext/85628700/usr_mac_callbacks.o
                0x0000ab40                USR_MCPS_DataConf

.text.USR_MLME_AssociateConf%390
                0x0000ab70       0x30
 .text.USR_MLME_AssociateConf
                0x0000ab70       0x30 build/default/production/_ext/85628700/usr_mac_callbacks.o
                0x0000ab70                USR_MLME_AssociateConf

.text.USR_MLME_CommStatusInd%391
                0x0000aba0       0x30
 .text.USR_MLME_CommStatusInd
                0x0000aba0       0x30 build/default/production/_ext/85628700/usr_mac_callbacks.o
                0x0000aba0                USR_MLME_CommStatusInd

.text.USR_MLME_GetConf%392
                0x0000abd0       0x30
 .text.USR_MLME_GetConf
                0x0000abd0       0x30 build/default/production/_ext/85628700/usr_mac_callbacks.o
                0x0000abd0                USR_MLME_GetConf

.text.vListInsert%393
                0x0000ac00       0x2e
 .text.vListInsert
                0x0000ac00       0x2e build/default/production/_ext/404212886/list.o
                0x0000ac00                vListInsert

.text.qmm_queue_read%394
                0x0000ac2e       0x2e
 .text.qmm_queue_read
                0x0000ac2e       0x2e build/default/production/_ext/874725666/qmm.o
                0x0000ac2e                qmm_queue_read

.text.__aeabi_dcmpeq%395
                0x0000ac5c       0x2e
 .text.__aeabi_dcmpeq
                0x0000ac5c       0x2e c:/program files/microchip/xc32/v4.35/bin/bin/../../lib/gcc/pic32c/8.3.1/../../../../pic32c/lib/thumb/v6-m/nofp\libm-fast-emfloat.a(__aeabi_dcmpeq.o)
                0x0000ac5c                __aeabi_dcmpeq

.text.__aeabi_d2uiz%396
                0x0000ac8a       0x2e
 .text.__aeabi_d2uiz
                0x0000ac8a       0x2e c:/program files/microchip/xc32/v4.35/bin/bin/../../lib/gcc/pic32c/8.3.1/../../../../pic32c/lib/thumb/v6-m/nofp\libm-fast-emfloat.a(__aeabi_d2uiz.o)
                0x0000ac8a                __aeabi_d2uiz
                0x0000ac8e                .L__aeabi_d2uiz_fast_entry

.text.prvResetNextTaskUnblockTime%397
                0x0000acb8       0x2c
 .text.prvResetNextTaskUnblockTime
                0x0000acb8       0x2c build/default/production/_ext/404212886/FreeRTOS_tasks.o

.text.MAC_MLME_GetRequest%398
                0x0000ace4       0x2c
 .text.MAC_MLME_GetRequest
                0x0000ace4       0x2c build/default/production/_ext/1655452824/mac_pib.o
                0x0000ace4                MAC_MLME_GetRequest

.rodata.sysConsoleUARTDevDesc%399
                0x0000ad10       0x2c
 .rodata.sysConsoleUARTDevDesc
                0x0000ad10       0x2c build/default/production/_ext/1832805299/sys_console_uart.o
                0x0000ad10                sysConsoleUARTDevDesc

.text.MAC_MLME_BeaconNotifyInd%400
                0x0000ad3c       0x2c
 .text.MAC_MLME_BeaconNotifyInd
                0x0000ad3c       0x2c build/default/production/_ext/1655452824/mac_callback_wrapper.o
                0x0000ad3c                MAC_MLME_BeaconNotifyInd

.text.MAC_MLME_DisassociateConf%401
                0x0000ad68       0x2c
 .text.MAC_MLME_DisassociateConf
                0x0000ad68       0x2c build/default/production/_ext/1655452824/mac_callback_wrapper.o
                0x0000ad68                MAC_MLME_DisassociateConf

.text.PAL_TimerStop%402
                0x0000ad94       0x2c
 .text.PAL_TimerStop
                0x0000ad94       0x2c build/default/production/_ext/745501718/pal.o
                0x0000ad94                PAL_TimerStop

.text.button_next_state%403
                0x0000adc0       0x2c
 .text.button_next_state
                0x0000adc0       0x2c build/default/production/_ext/85628700/demo_app_ffd.o

.text.SYS_TIME_TimerPeriodHasExpired%404
                0x0000adec       0x2a
 .text.SYS_TIME_TimerPeriodHasExpired
                0x0000adec       0x2a build/default/production/_ext/101884895/sys_time.o
                0x0000adec                SYS_TIME_TimerPeriodHasExpired

.text.__pop_float%405
                0x0000ae16       0x2a
 .text.__pop_float
                0x0000ae16       0x2a c:/program files/microchip/xc32/v4.35/bin/bin/../../lib/gcc/pic32c/8.3.1/../../../../pic32c/lib/thumb/v6-m/nofp\libc-musl.a(__pop_float.o)
                0x0000ae16                __pop_float_needed
                0x0000ae16                __pop_float

.text.EIC_CallbackRegister%406
                0x0000ae40       0x28
 .text.EIC_CallbackRegister
                0x0000ae40       0x28 build/default/production/_ext/60167341/plib_eic.o
                0x0000ae40                EIC_CallbackRegister

.text.vTaskPlaceOnEventListRestricted%407
                0x0000ae68       0x28
 .text.vTaskPlaceOnEventListRestricted
                0x0000ae68       0x28 build/default/production/_ext/404212886/FreeRTOS_tasks.o
                0x0000ae68                vTaskPlaceOnEventListRestricted

.text.TC3_TimerInterruptHandler%408
                0x0000ae90       0x28
 .text.TC3_TimerInterruptHandler
                0x0000ae90       0x28 build/default/production/_ext/829342655/plib_tc3.o
                0x0000ae90                TC3_TimerInterruptHandler

.text.SYS_TIME_ResourceUnlock%409
                0x0000aeb8       0x28
 .text.SYS_TIME_ResourceUnlock
                0x0000aeb8       0x28 build/default/production/_ext/101884895/sys_time.o

.text.PHY_TrxWakeup%410
                0x0000aee0       0x28
 .text.PHY_TrxWakeup
                0x0000aee0       0x28 build/default/production/_ext/559172130/phy_pwr_mgmt.o
                0x0000aee0                PHY_TrxWakeup

.text.SERCOM4_SPI_IsBusy%411
                0x0000af08       0x28
 .text.SERCOM4_SPI_IsBusy
                0x0000af08       0x28 build/default/production/_ext/17022449/plib_sercom4_spi_master.o
                0x0000af08                SERCOM4_SPI_IsBusy

.text.PHY_PostTask%412
                0x0000af30       0x28
 .text.PHY_PostTask
                0x0000af30       0x28 build/default/production/_ext/957911548/phy_task.o
                0x0000af30                PHY_PostTask

.text.TAL_PostTask%413
                0x0000af58       0x28
 .text.TAL_PostTask
                0x0000af58       0x28 build/default/production/_ext/957911548/phy_task.o
                0x0000af58                TAL_PostTask

.text.MAC_ProcessOrphanNotification%414
                0x0000af80       0x28
 .text.MAC_ProcessOrphanNotification
                0x0000af80       0x28 build/default/production/_ext/1655452824/mac_orphan.o
                0x0000af80                MAC_ProcessOrphanNotification

.text.MAC_MLME_ScanConf%415
                0x0000afa8       0x28
 .text.MAC_MLME_ScanConf
                0x0000afa8       0x28 build/default/production/_ext/1655452824/mac_callback_wrapper.o
                0x0000afa8                MAC_MLME_ScanConf

.rodata.prvTimerTask%416
                0x0000afd0       0x28
 .rodata.prvTimerTask
                0x0000afd0       0x28 build/default/production/_ext/404212886/timers.o

.text.vPortSetupTimerInterrupt%417
                0x0000aff8       0x28
 .text.vPortSetupTimerInterrupt
                0x0000aff8       0x28 build/default/production/_ext/1624415188/port.o
                0x0000aff8                vPortSetupTimerInterrupt

.text.Gen_MLME_PollConf%418
                0x0000b020       0x28
 .text.Gen_MLME_PollConf
                0x0000b020       0x28 build/default/production/_ext/1655452824/mac_poll.o

.text.PAL_TimerDelay%419
                0x0000b048       0x28
 .text.PAL_TimerDelay
                0x0000b048       0x28 build/default/production/_ext/745501718/pal.o
                0x0000b048                PAL_TimerDelay

.text.qmm_queue_append%420
                0x0000b070       0x28
 .text.qmm_queue_append
                0x0000b070       0x28 build/default/production/_ext/874725666/qmm.o
                0x0000b070                qmm_queue_append

.text.qmm_queue_flush%421
                0x0000b098       0x28
 .text.qmm_queue_flush
                0x0000b098       0x28 build/default/production/_ext/874725666/qmm.o
                0x0000b098                qmm_queue_flush

.text.print_stack_app_build_features%422
                0x0000b0c0       0x28
 .text.print_stack_app_build_features
                0x0000b0c0       0x28 build/default/production/_ext/85628700/demo_app_ffd.o
                0x0000b0c0                print_stack_app_build_features

.text.xQueueAddToSet%423
                0x0000b0e8       0x26
 .text.xQueueAddToSet
                0x0000b0e8       0x26 build/default/production/_ext/404212886/queue.o
                0x0000b0e8                xQueueAddToSet

.text.uxListRemove%424
                0x0000b10e       0x26
 .text.uxListRemove
                0x0000b10e       0x26 build/default/production/_ext/404212886/list.o
                0x0000b10e                uxListRemove

.text.__string_out%425
                0x0000b134       0x26
 .text.__string_out
                0x0000b134       0x26 c:/program files/microchip/xc32/v4.35/bin/bin/../../lib/gcc/pic32c/8.3.1/../../../../pic32c/lib/thumb/v6-m/nofp\libc-musl.a(__printf_core.o)
                0x0000b134                __out

.text.DispatchEvent%426
                0x0000b15c       0x24
 .text.DispatchEvent
                0x0000b15c       0x24 build/default/production/_ext/1655452824/mac_dispatcher.o
                0x0000b15c                DispatchEvent

.text.OSAL_QUEUE_Send%427
                0x0000b180       0x24
 .text.OSAL_QUEUE_Send
                0x0000b180       0x24 build/default/production/_ext/1529399856/osal_freertos_extend.o
                0x0000b180                OSAL_QUEUE_Send

.text.OSAL_QUEUE_Receive%428
                0x0000b1a4       0x24
 .text.OSAL_QUEUE_Receive
                0x0000b1a4       0x24 build/default/production/_ext/1529399856/osal_freertos_extend.o
                0x0000b1a4                OSAL_QUEUE_Receive

.text.SYS_TIME_USToCount%429
                0x0000b1c8       0x24
 .text.SYS_TIME_USToCount
                0x0000b1c8       0x24 build/default/production/_ext/101884895/sys_time.o
                0x0000b1c8                SYS_TIME_USToCount

.text.tal_trx_wakeup%430
                0x0000b1ec       0x24
 .text.tal_trx_wakeup
                0x0000b1ec       0x24 build/default/production/_ext/559172130/phy_pwr_mgmt.o
                0x0000b1ec                tal_trx_wakeup

.text.sendFrame%431
                0x0000b210       0x24
 .text.sendFrame
                0x0000b210       0x24 build/default/production/_ext/1655452824/mac.o
                0x0000b210                sendFrame

.text.OSAL_SEM_Pend%432
                0x0000b234       0x24
 .text.OSAL_SEM_Pend
                0x0000b234       0x24 build/default/production/_ext/1529399856/osal_freertos.o
                0x0000b234                OSAL_SEM_Pend

.text.OSAL_MUTEX_Lock%433
                0x0000b258       0x24
 .text.OSAL_MUTEX_Lock
                0x0000b258       0x24 build/default/production/_ext/1529399856/osal_freertos.o
                0x0000b258                OSAL_MUTEX_Lock

.text.Console_UART_Initialize%434
                0x0000b27c       0x24
 .text.Console_UART_Initialize
                0x0000b27c       0x24 build/default/production/_ext/1832805299/sys_console_uart.o
                0x0000b27c                Console_UART_Initialize

.text.RemoveFrameFromIndirectQueue%435
                0x0000b2a0       0x24
 .text.RemoveFrameFromIndirectQueue
                0x0000b2a0       0x24 build/default/production/_ext/1655452824/mac_process_phy_tx_frame_status.o

.rodata%436     0x0000b2c4       0x24
 .rodata        0x0000b2c4       0x24 build/default/production/_ext/1171490990/tasks.o

.text.WPAN_Task%437
                0x0000b2e8       0x24
 .text.WPAN_Task
                0x0000b2e8       0x24 build/default/production/_ext/1655452824/mac_api.o
                0x0000b2e8                WPAN_Task

.text.MAC_TrxInitSleep%438
                0x0000b30c       0x24
 .text.MAC_TrxInitSleep
                0x0000b30c       0x24 build/default/production/_ext/1655452824/mac_misc.o
                0x0000b30c                MAC_TrxInitSleep

.text.MAC_SleepTrans%439
                0x0000b330       0x24
 .text.MAC_SleepTrans
                0x0000b330       0x24 build/default/production/_ext/1655452824/mac_misc.o
                0x0000b330                MAC_SleepTrans

.text.prvCopyDataFromQueue%440
                0x0000b354       0x24
 .text.prvCopyDataFromQueue
                0x0000b354       0x24 build/default/production/_ext/404212886/queue.o

.text.xQueueCreateMutex%441
                0x0000b378       0x24
 .text.xQueueCreateMutex
                0x0000b378       0x24 build/default/production/_ext/404212886/queue.o
                0x0000b378                xQueueCreateMutex

.text.trx_reg_bit_write%442
                0x0000b39c       0x24
 .text.trx_reg_bit_write
                0x0000b39c       0x24 build/default/production/_ext/559172130/phy_trx_reg_access.o
                0x0000b39c                trx_reg_bit_write

.text.xPortSysTickHandler%443
                0x0000b3c0       0x24
 .text.xPortSysTickHandler
                0x0000b3c0       0x24 build/default/production/_ext/1624415188/port.o
                0x0000b3c0                xPortSysTickHandler

.text.PAL_TimerIsRunning%444
                0x0000b3e4       0x24
 .text.PAL_TimerIsRunning
                0x0000b3e4       0x24 build/default/production/_ext/745501718/pal.o
                0x0000b3e4                PAL_TimerIsRunning

.text.xTaskGetSchedulerState%445
                0x0000b408       0x20
 .text.xTaskGetSchedulerState
                0x0000b408       0x20 build/default/production/_ext/404212886/FreeRTOS_tasks.o
                0x0000b408                xTaskGetSchedulerState

.text.TC3_Timer16bitCounterGet%446
                0x0000b428       0x20
 .text.TC3_Timer16bitCounterGet
                0x0000b428       0x20 build/default/production/_ext/829342655/plib_tc3.o
                0x0000b428                TC3_Timer16bitCounterGet

.text.SYS_TIME_TimerCreate%447
                0x0000b448       0x20
 .text.SYS_TIME_TimerCreate
                0x0000b448       0x20 build/default/production/_ext/101884895/sys_time.o
                0x0000b448                SYS_TIME_TimerCreate

.rodata.tx_done_handling%448
                0x0000b468       0x20
 .rodata.tx_done_handling
                0x0000b468       0x20 build/default/production/_ext/559172130/phy_tx.o

.text.MAC_GenMLMEAssociateConf%449
                0x0000b488       0x20
 .text.MAC_GenMLMEAssociateConf
                0x0000b488       0x20 build/default/production/_ext/1655452824/mac_associate.o
                0x0000b488                MAC_GenMLMEAssociateConf

.rodata.mac_PibSize%450
                0x0000b4a8       0x20
 .rodata.mac_PibSize
                0x0000b4a8       0x20 build/default/production/_ext/1655452824/mac_pib.o

.text.TAL_Tasks%451
                0x0000b4c8       0x20
 .text.TAL_Tasks
                0x0000b4c8       0x20 build/default/production/_ext/957911548/phy_task.o
                0x0000b4c8                TAL_Tasks

.text.MAC_TrxWakeup%452
                0x0000b4e8       0x20
 .text.MAC_TrxWakeup
                0x0000b4e8       0x20 build/default/production/_ext/1655452824/mac_misc.o
                0x0000b4e8                MAC_TrxWakeup

.text.MAC_GenMCPSDataConf%453
                0x0000b508       0x20
 .text.MAC_GenMCPSDataConf
                0x0000b508       0x20 build/default/production/_ext/1655452824/mac_mcps_data.o
                0x0000b508                MAC_GenMCPSDataConf

.text.pxPortInitialiseStack%454
                0x0000b528       0x20
 .text.pxPortInitialiseStack
                0x0000b528       0x20 build/default/production/_ext/1624415188/port.o
                0x0000b528                pxPortInitialiseStack

.rodata.Dispaly_Result_Frame%455
                0x0000b548       0x20
 .rodata.Dispaly_Result_Frame
                0x0000b548       0x20 build/default/production/_ext/85628700/demo_app_ffd.o

.text.USR_MLME_PollConf%456
                0x0000b568       0x20
 .text.USR_MLME_PollConf
                0x0000b568       0x20 build/default/production/_ext/85628700/usr_mac_callbacks.o
                0x0000b568                USR_MLME_PollConf

.text.USR_MLME_ResetConf%457
                0x0000b588       0x20
 .text.USR_MLME_ResetConf
                0x0000b588       0x20 build/default/production/_ext/85628700/usr_mac_callbacks.o
                0x0000b588                USR_MLME_ResetConf

.text.USR_MLME_SetConf%458
                0x0000b5a8       0x20
 .text.USR_MLME_SetConf
                0x0000b5a8       0x20 build/default/production/_ext/85628700/usr_mac_callbacks.o
                0x0000b5a8                USR_MLME_SetConf

.text.USR_MLME_StartConf%459
                0x0000b5c8       0x20
 .text.USR_MLME_StartConf
                0x0000b5c8       0x20 build/default/production/_ext/85628700/usr_mac_callbacks.o
                0x0000b5c8                USR_MLME_StartConf

.rodata%460     0x0000b5e8       0x1e
 .rodata        0x0000b5e8       0x1e c:/program files/microchip/xc32/v4.35/bin/bin/../../lib/gcc/pic32c/8.3.1/../../../../pic32c/lib/thumb/v6-m/nofp\libc-musl.a(__printf_core.o)

.text.__dinit_copy%461
                0x0000b606       0x1e
 .text.__dinit_copy
                0x0000b606       0x1e c:/program files/microchip/xc32/v4.35/bin/bin/../../lib/gcc/pic32c/8.3.1/../../../../pic32c/lib/thumb/v6-m/nofp\libpic32c.a(pic32_data_init_copy.o)
                0x0000b606                __dinit_copy_needed
                0x0000b606                __dinit_copy

.text.WPAN_PostTask%462
                0x0000b624       0x1c
 .text.WPAN_PostTask
                0x0000b624       0x1c build/default/production/_ext/1655452824/mac_task.o
                0x0000b624                WPAN_PostTask

.text.vTaskPlaceOnEventList%463
                0x0000b640       0x1c
 .text.vTaskPlaceOnEventList
                0x0000b640       0x1c build/default/production/_ext/404212886/FreeRTOS_tasks.o
                0x0000b640                vTaskPlaceOnEventList

.text.pvTaskIncrementMutexHeldCount%464
                0x0000b65c       0x1c
 .text.pvTaskIncrementMutexHeldCount
                0x0000b65c       0x1c build/default/production/_ext/404212886/FreeRTOS_tasks.o
                0x0000b65c                pvTaskIncrementMutexHeldCount

.text.SYS_INT_SourceRestore%465
                0x0000b678       0x1c
 .text.SYS_INT_SourceRestore
                0x0000b678       0x1c build/default/production/_ext/1881668453/sys_int.o
                0x0000b678                SYS_INT_SourceRestore

.text.SYS_TIME_GetElapsedCount%466
                0x0000b694       0x1c
 .text.SYS_TIME_GetElapsedCount
                0x0000b694       0x1c build/default/production/_ext/101884895/sys_time.o

.text.APP_Initialize%467
                0x0000b6b0       0x1c
 .text.APP_Initialize
                0x0000b6b0       0x1c build/default/production/_ext/1360937237/app.o
                0x0000b6b0                APP_Initialize

.text.GenRxEnableConf%468
                0x0000b6cc       0x1c
 .text.GenRxEnableConf
                0x0000b6cc       0x1c build/default/production/_ext/1655452824/mac_rx_enable.o

.rodata.sysTimePlibAPI%469
                0x0000b6e8       0x1c
 .rodata.sysTimePlibAPI
                0x0000b6e8       0x1c build/default/production/_ext/1171490990/initialization.o

.text.tal_get_trx_status%470
                0x0000b704       0x1c
 .text.tal_get_trx_status
                0x0000b704       0x1c build/default/production/_ext/559172130/phy_helper.o
                0x0000b704                tal_get_trx_status

.text.SERCOM0_USART_WritePendingBytesGet%471
                0x0000b720       0x1c
 .text.SERCOM0_USART_WritePendingBytesGet
                0x0000b720       0x1c build/default/production/_ext/504274921/plib_sercom0_usart.o

.text.SERCOM0_USART_ReadCountGet%472
                0x0000b73c       0x1c
 .text.SERCOM0_USART_ReadCountGet
                0x0000b73c       0x1c build/default/production/_ext/504274921/plib_sercom0_usart.o
                0x0000b73c                SERCOM0_USART_ReadCountGet

.text.PAL_TimerGetId%473
                0x0000b758       0x1c
 .text.PAL_TimerGetId
                0x0000b758       0x1c build/default/production/_ext/745501718/pal.o
                0x0000b758                PAL_TimerGetId

.text.Gen_MLME_StartConf%474
                0x0000b774       0x1c
 .text.Gen_MLME_StartConf
                0x0000b774       0x1c build/default/production/_ext/1655452824/mac_start.o

.text.OSAL_CRIT_Enter%475
                0x0000b790       0x1a
 .text.OSAL_CRIT_Enter
                0x0000b790       0x1a build/default/production/_ext/1529399856/osal_freertos.o
                0x0000b790                OSAL_CRIT_Enter

.text.OSAL_MUTEX_Create%476
                0x0000b7aa       0x1a
 .text.OSAL_MUTEX_Create
                0x0000b7aa       0x1a build/default/production/_ext/1529399856/osal_freertos.o
                0x0000b7aa                OSAL_MUTEX_Create

.text.MAC_MLME_GetConf%477
                0x0000b7c4       0x1a
 .text.MAC_MLME_GetConf
                0x0000b7c4       0x1a build/default/production/_ext/1655452824/mac_callback_wrapper.o
                0x0000b7c4                MAC_MLME_GetConf

.text.vTaskInternalSetTimeOutState%478
                0x0000b7e0       0x18
 .text.vTaskInternalSetTimeOutState
                0x0000b7e0       0x18 build/default/production/_ext/404212886/FreeRTOS_tasks.o
                0x0000b7e0                vTaskInternalSetTimeOutState

.text.TC3_TimerStart%479
                0x0000b7f8       0x18
 .text.TC3_TimerStart
                0x0000b7f8       0x18 build/default/production/_ext/829342655/plib_tc3.o
                0x0000b7f8                TC3_TimerStart

.text.TC3_TimerStop%480
                0x0000b810       0x18
 .text.TC3_TimerStop
                0x0000b810       0x18 build/default/production/_ext/829342655/plib_tc3.o
                0x0000b810                TC3_TimerStop

.text.OSAL_QUEUE_Create%481
                0x0000b828       0x18
 .text.OSAL_QUEUE_Create
                0x0000b828       0x18 build/default/production/_ext/1529399856/osal_freertos_extend.o
                0x0000b828                OSAL_QUEUE_Create

.text.SYS_TIME_DelayIsComplete%482
                0x0000b840       0x18
 .text.SYS_TIME_DelayIsComplete
                0x0000b840       0x18 build/default/production/_ext/101884895/sys_time.o
                0x0000b840                SYS_TIME_DelayIsComplete

.text.OSAL_CRIT_Leave%483
                0x0000b858       0x18
 .text.OSAL_CRIT_Leave
                0x0000b858       0x18 build/default/production/_ext/1529399856/osal_freertos.o
                0x0000b858                OSAL_CRIT_Leave

.text.OSAL_SEM_Post%484
                0x0000b870       0x18
 .text.OSAL_SEM_Post
                0x0000b870       0x18 build/default/production/_ext/1529399856/osal_freertos.o
                0x0000b870                OSAL_SEM_Post

.text.OSAL_MUTEX_Unlock%485
                0x0000b888       0x18
 .text.OSAL_MUTEX_Unlock
                0x0000b888       0x18 build/default/production/_ext/1529399856/osal_freertos.o
                0x0000b888                OSAL_MUTEX_Unlock

.text.Console_UART_ResourceLock%486
                0x0000b8a0       0x18
 .text.Console_UART_ResourceLock
                0x0000b8a0       0x18 build/default/production/_ext/1832805299/sys_console_uart.o

.text.trx_delay_micros%487
                0x0000b8b8       0x18
 .text.trx_delay_micros
                0x0000b8b8       0x18 build/default/production/_ext/559172130/phy.o
                0x0000b8b8                trx_delay_micros

.rodata.sysConsole0UARTPlibAPI%488
                0x0000b8d0       0x18
 .rodata.sysConsole0UARTPlibAPI
                0x0000b8d0       0x18 build/default/production/_ext/1171490990/initialization.o

.text.MAC_MCPS_DataConf%489
                0x0000b8e8       0x18
 .text.MAC_MCPS_DataConf
                0x0000b8e8       0x18 build/default/production/_ext/1655452824/mac_callback_wrapper.o
                0x0000b8e8                MAC_MCPS_DataConf

.text.MAC_MLME_AssociateInd%490
                0x0000b900       0x18
 .text.MAC_MLME_AssociateInd
                0x0000b900       0x18 build/default/production/_ext/1655452824/mac_callback_wrapper.o
                0x0000b900                MAC_MLME_AssociateInd

.text.MAC_MLME_DisassociateInd%491
                0x0000b918       0x18
 .text.MAC_MLME_DisassociateInd
                0x0000b918       0x18 build/default/production/_ext/1655452824/mac_callback_wrapper.o
                0x0000b918                MAC_MLME_DisassociateInd

.text.trx_irq_awake_handler_cb%492
                0x0000b930       0x18
 .text.trx_irq_awake_handler_cb
                0x0000b930       0x18 build/default/production/_ext/559172130/phy_irq_handler.o
                0x0000b930                trx_irq_awake_handler_cb

.text.xTimerIsTimerActive%493
                0x0000b948       0x18
 .text.xTimerIsTimerActive
                0x0000b948       0x18 build/default/production/_ext/404212886/timers.o
                0x0000b948                xTimerIsTimerActive

.text.vPortYield%494
                0x0000b960       0x18
 .text.vPortYield
                0x0000b960       0x18 build/default/production/_ext/1624415188/port.o
                0x0000b960                vPortYield

.text.vPortEnterCritical%495
                0x0000b978       0x18
 .text.vPortEnterCritical
                0x0000b978       0x18 build/default/production/_ext/1624415188/port.o
                0x0000b978                vPortEnterCritical

.text.Handle_ResetConf%496
                0x0000b990       0x18
 .text.Handle_ResetConf
                0x0000b990       0x18 build/default/production/_ext/85628700/demo_app_ffd.o
                0x0000b990                Handle_ResetConf

.rodata.Display_Associated_Device%497
                0x0000b9a8       0x18
 .rodata.Display_Associated_Device
                0x0000b9a8       0x18 build/default/production/_ext/85628700/demo_app_ffd.o

.text.rand%498  0x0000b9c0       0x18
 .text.rand     0x0000b9c0       0x18 c:/program files/microchip/xc32/v4.35/bin/bin/../../lib/gcc/pic32c/8.3.1/../../../../pic32c/lib/thumb/v6-m/nofp\libc-musl.a(rand.o)
                0x0000b9c0                rand

.text.strlen%499
                0x0000b9d8       0x18
 .text.strlen   0x0000b9d8       0x18 c:/program files/microchip/xc32/v4.35/bin/bin/../../lib/gcc/pic32c/8.3.1/../../../../pic32c/lib/thumb/v6-m/nofp\libc-musl.a(strlen.o)
                0x0000b9d8                strlen

.text.vfprintf%500
                0x0000b9f0       0x18
 .text.vfprintf
                0x0000b9f0       0x18 c:/program files/microchip/xc32/v4.35/bin/bin/../../lib/gcc/pic32c/8.3.1/../../../../pic32c/lib/thumb/v6-m/nofp\libc-musl.a(vfprintf.o)
                0x0000b9f0                vfprintf

.text%501       0x0000ba08       0x18
 .text          0x0000ba08       0x18 c:/program files/microchip/xc32/v4.35/bin/bin/../../lib/gcc/pic32c/8.3.1/thumb/v6-m/nofp\libgcc.a(_lshrdi3.o)
                0x0000ba08                __lshrdi3
                0x0000ba08                __aeabi_llsr

.text%502       0x0000ba20       0x18
 .text          0x0000ba20       0x18 c:/program files/microchip/xc32/v4.35/bin/bin/../../lib/gcc/pic32c/8.3.1/thumb/v6-m/nofp\libgcc.a(_ashldi3.o)
                0x0000ba20                __aeabi_llsl
                0x0000ba20                __ashldi3

.text%503       0x0000ba38       0x18
 .text          0x0000ba38       0x18 c:/program files/microchip/xc32/v4.35/bin/bin/../../lib/gcc/pic32c/8.3.1/thumb/v6-m/nofp\libgcc.a(_clzdi2.o)
                0x0000ba38                __clzdi2

.text.OSAL_QUEUE_SelectFromSet%504
                0x0000ba50       0x16
 .text.OSAL_QUEUE_SelectFromSet
                0x0000ba50       0x16 build/default/production/_ext/1529399856/osal_freertos_extend.o
                0x0000ba50                OSAL_QUEUE_SelectFromSet

.text.MAC_MCPS_PurgeConf%505
                0x0000ba66       0x16
 .text.MAC_MCPS_PurgeConf
                0x0000ba66       0x16 build/default/production/_ext/1655452824/mac_callback_wrapper.o
                0x0000ba66                MAC_MCPS_PurgeConf

.text.MAC_MLME_AssociateConf%506
                0x0000ba7c       0x16
 .text.MAC_MLME_AssociateConf
                0x0000ba7c       0x16 build/default/production/_ext/1655452824/mac_callback_wrapper.o
                0x0000ba7c                MAC_MLME_AssociateConf

.text.MAC_MLME_OrphanInd%507
                0x0000ba92       0x16
 .text.MAC_MLME_OrphanInd
                0x0000ba92       0x16 build/default/production/_ext/1655452824/mac_callback_wrapper.o
                0x0000ba92                MAC_MLME_OrphanInd

.text.MAC_MLME_SetConf%508
                0x0000baa8       0x16
 .text.MAC_MLME_SetConf
                0x0000baa8       0x16 build/default/production/_ext/1655452824/mac_callback_wrapper.o
                0x0000baa8                MAC_MLME_SetConf

.text.xQueueSelectFromSet%509
                0x0000babe       0x16
 .text.xQueueSelectFromSet
                0x0000babe       0x16 build/default/production/_ext/404212886/queue.o
                0x0000babe                xQueueSelectFromSet

.text.vListInitialise%510
                0x0000bad4       0x16
 .text.vListInitialise
                0x0000bad4       0x16 build/default/production/_ext/404212886/list.o
                0x0000bad4                vListInitialise

.text.vListInsertEnd%511
                0x0000baea       0x16
 .text.vListInsertEnd
                0x0000baea       0x16 build/default/production/_ext/404212886/list.o
                0x0000baea                vListInsertEnd

.text.NVIC_INT_Restore%512
                0x0000bb00       0x14
 .text.NVIC_INT_Restore
                0x0000bb00       0x14 build/default/production/_ext/1865468468/plib_nvic.o
                0x0000bb00                NVIC_INT_Restore

.text.TC3_Timer16bitPeriodSet%513
                0x0000bb14       0x14
 .text.TC3_Timer16bitPeriodSet
                0x0000bb14       0x14 build/default/production/_ext/829342655/plib_tc3.o
                0x0000bb14                TC3_Timer16bitPeriodSet

.text.TC3_Timer16bitCompareSet%514
                0x0000bb28       0x14
 .text.TC3_Timer16bitCompareSet
                0x0000bb28       0x14 build/default/production/_ext/829342655/plib_tc3.o
                0x0000bb28                TC3_Timer16bitCompareSet

.text.OSAL_QUEUE_CreateSet%515
                0x0000bb3c       0x14
 .text.OSAL_QUEUE_CreateSet
                0x0000bb3c       0x14 build/default/production/_ext/1529399856/osal_freertos_extend.o
                0x0000bb3c                OSAL_QUEUE_CreateSet

.text.OSAL_QUEUE_AddToSet%516
                0x0000bb50       0x14
 .text.OSAL_QUEUE_AddToSet
                0x0000bb50       0x14 build/default/production/_ext/1529399856/osal_freertos_extend.o
                0x0000bb50                OSAL_QUEUE_AddToSet

.text.Console_UART_Status%517
                0x0000bb64       0x14
 .text.Console_UART_Status
                0x0000bb64       0x14 build/default/production/_ext/1832805299/sys_console_uart.o
                0x0000bb64                Console_UART_Status

.text.MAC_MLME_PollConf%518
                0x0000bb78       0x14
 .text.MAC_MLME_PollConf
                0x0000bb78       0x14 build/default/production/_ext/1655452824/mac_callback_wrapper.o
                0x0000bb78                MAC_MLME_PollConf

.text.MAC_MLME_ResetConf%519
                0x0000bb8c       0x14
 .text.MAC_MLME_ResetConf
                0x0000bb8c       0x14 build/default/production/_ext/1655452824/mac_callback_wrapper.o
                0x0000bb8c                MAC_MLME_ResetConf

.text.MAC_MLME_RxEnableConf%520
                0x0000bba0       0x14
 .text.MAC_MLME_RxEnableConf
                0x0000bba0       0x14 build/default/production/_ext/1655452824/mac_callback_wrapper.o
                0x0000bba0                MAC_MLME_RxEnableConf

.text.MAC_MLME_StartConf%521
                0x0000bbb4       0x14
 .text.MAC_MLME_StartConf
                0x0000bbb4       0x14 build/default/production/_ext/1655452824/mac_callback_wrapper.o
                0x0000bbb4                MAC_MLME_StartConf

.text.WPAN_Init%522
                0x0000bbc8       0x14
 .text.WPAN_Init
                0x0000bbc8       0x14 build/default/production/_ext/1655452824/mac_api.o
                0x0000bbc8                WPAN_Init

.text.SERCOM0_USART_ReadFreeBufferCountGet%523
                0x0000bbdc       0x14
 .text.SERCOM0_USART_ReadFreeBufferCountGet
                0x0000bbdc       0x14 build/default/production/_ext/504274921/plib_sercom0_usart.o
                0x0000bbdc                SERCOM0_USART_ReadFreeBufferCountGet

.text.SERCOM0_USART_WriteFreeBufferCountGet%524
                0x0000bbf0       0x14
 .text.SERCOM0_USART_WriteFreeBufferCountGet
                0x0000bbf0       0x14 build/default/production/_ext/504274921/plib_sercom0_usart.o
                0x0000bbf0                SERCOM0_USART_WriteFreeBufferCountGet

.text.CheckPersistenceTimeZero%525
                0x0000bc04       0x14
 .text.CheckPersistenceTimeZero
                0x0000bc04       0x14 build/default/production/_ext/1655452824/mac_mcps_data.o

.text.prvIsQueueEmpty%526
                0x0000bc18       0x14
 .text.prvIsQueueEmpty
                0x0000bc18       0x14 build/default/production/_ext/404212886/queue.o

.text.xQueueCreateCountingSemaphore%527
                0x0000bc2c       0x14
 .text.xQueueCreateCountingSemaphore
                0x0000bc2c       0x14 build/default/production/_ext/404212886/queue.o
                0x0000bc2c                xQueueCreateCountingSemaphore

.text.vPortExitCritical%528
                0x0000bc40       0x14
 .text.vPortExitCritical
                0x0000bc40       0x14 build/default/production/_ext/1624415188/port.o
                0x0000bc40                vPortExitCritical

.text.Handle_Default%529
                0x0000bc54       0x14
 .text.Handle_Default
                0x0000bc54       0x14 build/default/production/_ext/85628700/demo_app_ffd.o
                0x0000bc54                Handle_Default

.rodata.Display_MSDU_Handle%530
                0x0000bc68       0x14
 .rodata.Display_MSDU_Handle
                0x0000bc68       0x14 build/default/production/_ext/85628700/demo_app_ffd.o

.rodata.Display_Rx_Frame_Address%531
                0x0000bc7c       0x14
 .rodata.Display_Rx_Frame_Address
                0x0000bc7c       0x14 build/default/production/_ext/85628700/demo_app_ffd.o

.rodata%532     0x0000bc90       0x14
 .rodata        0x0000bc90       0x14 c:/program files/microchip/xc32/v4.35/bin/bin/../../lib/gcc/pic32c/8.3.1/../../../../pic32c/lib/thumb/v6-m/nofp\libpic32c.a(data_init.o)

.text.memcpy%533
                0x0000bca4       0x14
 .text.memcpy   0x0000bca4       0x14 c:/program files/microchip/xc32/v4.35/bin/bin/../../lib/gcc/pic32c/8.3.1/../../../../pic32c/lib/thumb/v6-m/nofp\libc-musl.a(memcpy.o)
                0x0000bca4                memcpy

.text.memset%534
                0x0000bcb8       0x14
 .text.memset   0x0000bcb8       0x14 c:/program files/microchip/xc32/v4.35/bin/bin/../../lib/gcc/pic32c/8.3.1/../../../../pic32c/lib/thumb/v6-m/nofp\libc-musl.a(memset.o)
                0x0000bcb8                memset

.text.stpcpy%535
                0x0000bccc       0x14
 .text.stpcpy   0x0000bccc       0x14 c:/program files/microchip/xc32/v4.35/bin/bin/../../lib/gcc/pic32c/8.3.1/../../../../pic32c/lib/thumb/v6-m/nofp\libc-musl.a(stpcpy.o)
                0x0000bccc                __stpcpy
                0x0000bccc                stpcpy

.text.NVIC_INT_Disable%536
                0x0000bce0       0x12
 .text.NVIC_INT_Disable
                0x0000bce0       0x12 build/default/production/_ext/1865468468/plib_nvic.o
                0x0000bce0                NVIC_INT_Disable

.text.OSAL_QUEUE_IsFullISR%537
                0x0000bcf2       0x12
 .text.OSAL_QUEUE_IsFullISR
                0x0000bcf2       0x12 build/default/production/_ext/1529399856/osal_freertos_extend.o
                0x0000bcf2                OSAL_QUEUE_IsFullISR

.text.OSAL_SEM_GetCount%538
                0x0000bd04       0x12
 .text.OSAL_SEM_GetCount
                0x0000bd04       0x12 build/default/production/_ext/1529399856/osal_freertos.o
                0x0000bd04                OSAL_SEM_GetCount

.text.MAC_MLME_SyncLossInd%539
                0x0000bd16       0x12
 .text.MAC_MLME_SyncLossInd
                0x0000bd16       0x12 build/default/production/_ext/1655452824/mac_callback_wrapper.o
                0x0000bd16                MAC_MLME_SyncLossInd

.text.uxQueueMessagesWaiting%540
                0x0000bd28       0x12
 .text.uxQueueMessagesWaiting
                0x0000bd28       0x12 build/default/production/_ext/404212886/queue.o
                0x0000bd28                uxQueueMessagesWaiting

.text.trx_reg_bit_read%541
                0x0000bd3a       0x12
 .text.trx_reg_bit_read
                0x0000bd3a       0x12 build/default/production/_ext/559172130/phy_trx_reg_access.o
                0x0000bd3a                trx_reg_bit_read

.text.prvTaskExitError%542
                0x0000bd4c       0x12
 .text.prvTaskExitError
                0x0000bd4c       0x12 build/default/production/_ext/1624415188/port.o

.text.__dinit_clear%543
                0x0000bd5e       0x12
 .text.__dinit_clear
                0x0000bd5e       0x12 c:/program files/microchip/xc32/v4.35/bin/bin/../../lib/gcc/pic32c/8.3.1/../../../../pic32c/lib/thumb/v6-m/nofp\libpic32c.a(pic32_data_init_clear.o)
                0x0000bd5e                __dinit_clear
                0x0000bd5e                __dinit_clear_needed

.text.EIC_InterruptEnable%544
                0x0000bd70       0x10
 .text.EIC_InterruptEnable
                0x0000bd70       0x10 build/default/production/_ext/60167341/plib_eic.o
                0x0000bd70                EIC_InterruptEnable

.text.EIC_InterruptDisable%545
                0x0000bd80       0x10
 .text.EIC_InterruptDisable
                0x0000bd80       0x10 build/default/production/_ext/60167341/plib_eic.o
                0x0000bd80                EIC_InterruptDisable

.text.vTaskSuspendAll%546
                0x0000bd90       0x10
 .text.vTaskSuspendAll
                0x0000bd90       0x10 build/default/production/_ext/404212886/FreeRTOS_tasks.o
                0x0000bd90                vTaskSuspendAll

.text.SERCOM4_SPI_Read%547
                0x0000bda0       0x10
 .text.SERCOM4_SPI_Read
                0x0000bda0       0x10 build/default/production/_ext/17022449/plib_sercom4_spi_master.o
                0x0000bda0                SERCOM4_SPI_Read

.rodata.tx_pwr_table%548
                0x0000bdb0       0x10
 .rodata.tx_pwr_table
                0x0000bdb0       0x10 build/default/production/_ext/559172130/phy_pib.o
                0x0000bdb0                tx_pwr_table

.text.DecrementPersistenceTime%549
                0x0000bdc0       0x10
 .text.DecrementPersistenceTime
                0x0000bdc0       0x10 build/default/production/_ext/1655452824/mac_mcps_data.o

.rodata%550     0x0000bdd0       0x10
 .rodata        0x0000bdd0       0x10 c:/program files/microchip/xc32/v4.35/bin/bin/../../lib/gcc/pic32c/8.3.1/../../../../pic32c/lib/thumb/v6-m/nofp\libc-musl.a(__fmt_a.o)

.rodata%551     0x0000bde0       0x10
 .rodata        0x0000bde0       0x10 c:/program files/microchip/xc32/v4.35/bin/bin/../../lib/gcc/pic32c/8.3.1/../../../../pic32c/lib/thumb/v6-m/nofp\libc-musl.a(__fmt_fp.o)

.text.fma%552   0x0000bdf0       0x10
 .text.fma      0x0000bdf0       0x10 c:/program files/microchip/xc32/v4.35/bin/bin/../../lib/gcc/pic32c/8.3.1/../../../../pic32c/lib/thumb/v6-m/nofp\libm-fast-emfloat.a(fma.o)
                0x0000bdf0                fma

.text.__aeabi_dsub%553
                0x0000be00       0x10
 .text.__aeabi_dsub
                0x0000be00       0x10 c:/program files/microchip/xc32/v4.35/bin/bin/../../lib/gcc/pic32c/8.3.1/../../../../pic32c/lib/thumb/v6-m/nofp\libm-fast-emfloat.a(__aeabi_dsub.o)
                0x0000be00                __aeabi_dsub

.text.main%554  0x0000be10        0xe
 .text.main     0x0000be10        0xe build/default/production/_ext/1360937237/main.o
                0x0000be10                main

.text.CheckMsduHandleCb%555
                0x0000be1e        0xe
 .text.CheckMsduHandleCb
                0x0000be1e        0xe build/default/production/_ext/1655452824/mac_mcps_data.o

.text.tolower%556
                0x0000be2c        0xe
 .text.tolower  0x0000be2c        0xe c:/program files/microchip/xc32/v4.35/bin/bin/../../lib/gcc/pic32c/8.3.1/../../../../pic32c/lib/thumb/v6-m/nofp\libc-musl.a(tolower.o)
                0x0000be2c                tolower

.text.toupper%557
                0x0000be3a        0xe
 .text.toupper  0x0000be3a        0xe c:/program files/microchip/xc32/v4.35/bin/bin/../../lib/gcc/pic32c/8.3.1/../../../../pic32c/lib/thumb/v6-m/nofp\libc-musl.a(toupper.o)
                0x0000be3a                toupper

.text.xTaskGetTickCount%558
                0x0000a914        0xc
 .text.xTaskGetTickCount
                0x0000a914        0xc build/default/production/_ext/404212886/FreeRTOS_tasks.o
                0x0000a914                xTaskGetTickCount

.text.vTaskMissedYield%559
                0x0000be48        0xc
 .text.vTaskMissedYield
                0x0000be48        0xc build/default/production/_ext/404212886/FreeRTOS_tasks.o
                0x0000be48                vTaskMissedYield

.text.TC3_TimerCallbackRegister%560
                0x0000be54        0xc
 .text.TC3_TimerCallbackRegister
                0x0000be54        0xc build/default/production/_ext/829342655/plib_tc3.o
                0x0000be54                TC3_TimerCallbackRegister

.text.SERCOM4_SPI_Write%561
                0x0000be60        0xc
 .text.SERCOM4_SPI_Write
                0x0000be60        0xc build/default/production/_ext/17022449/plib_sercom4_spi_master.o
                0x0000be60                SERCOM4_SPI_Write

.text.MAC_ProcessBeaconRequest%562
                0x0000be6c        0xc
 .text.MAC_ProcessBeaconRequest
                0x0000be6c        0xc build/default/production/_ext/1655452824/mac_beacon.o
                0x0000be6c                MAC_ProcessBeaconRequest

.text.NVMCTRL_Initialize%563
                0x0000be78        0xc
 .text.NVMCTRL_Initialize
                0x0000be78        0xc build/default/production/_ext/1593096446/plib_nvmctrl.o
                0x0000be78                NVMCTRL_Initialize

.text.FindBufferCb%564
                0x0000be84        0xc
 .text.FindBufferCb
                0x0000be84        0xc build/default/production/_ext/1655452824/mac_process_phy_tx_frame_status.o

.rodata.sysConsole0Init%565
                0x0000be90        0xc
 .rodata.sysConsole0Init
                0x0000be90        0xc build/default/production/_ext/1171490990/initialization.o

.text.xQueueIsQueueFullFromISR%566
                0x0000be9c        0xc
 .text.xQueueIsQueueFullFromISR
                0x0000be9c        0xc build/default/production/_ext/404212886/queue.o
                0x0000be9c                xQueueIsQueueFullFromISR

.text.xQueueCreateSet%567
                0x0000bea8        0xc
 .text.xQueueCreateSet
                0x0000bea8        0xc build/default/production/_ext/404212886/queue.o
                0x0000bea8                xQueueCreateSet

.text.PAL_GetCurrentTime%568
                0x0000beb4        0xc
 .text.PAL_GetCurrentTime
                0x0000beb4        0xc build/default/production/_ext/745501718/pal.o
                0x0000beb4                PAL_GetCurrentTime

.text.qmm_queue_init%569
                0x0000bec0        0xc
 .text.qmm_queue_init
                0x0000bec0        0xc build/default/production/_ext/874725666/qmm.o
                0x0000bec0                qmm_queue_init

.text.srand%570
                0x0000becc        0xc
 .text.srand    0x0000becc        0xc c:/program files/microchip/xc32/v4.35/bin/bin/../../lib/gcc/pic32c/8.3.1/../../../../pic32c/lib/thumb/v6-m/nofp\libc-musl.a(rand.o)
                0x0000becc                srand

.text.strcpy%571
                0x0000bed8        0xc
 .text.strcpy   0x0000bed8        0xc c:/program files/microchip/xc32/v4.35/bin/bin/../../lib/gcc/pic32c/8.3.1/../../../../pic32c/lib/thumb/v6-m/nofp\libc-musl.a(strcpy.o)
                0x0000bed8                strcpy

.text.EIC_interrupt_cb%572
                0x0000bee4        0xa
 .text.EIC_interrupt_cb
                0x0000bee4        0xa build/default/production/_ext/559172130/phy_irq_handler.o
                0x0000bee4                EIC_interrupt_cb

.rodata%573     0x00009cd8        0x8
 .rodata        0x00009cd8        0x8 build/default/production/_ext/404212886/FreeRTOS_tasks.o

.text.TC3_TimerFrequencyGet%574
                0x0000bef0        0x8
 .text.TC3_TimerFrequencyGet
                0x0000bef0        0x8 build/default/production/_ext/829342655/plib_tc3.o
                0x0000bef0                TC3_TimerFrequencyGet

.text.SYS_INT_Disable%575
                0x0000bef8        0x8
 .text.SYS_INT_Disable
                0x0000bef8        0x8 build/default/production/_ext/1881668453/sys_int.o
                0x0000bef8                SYS_INT_Disable

.text.SYS_INT_Restore%576
                0x0000bf00        0x8
 .text.SYS_INT_Restore
                0x0000bf00        0x8 build/default/production/_ext/1881668453/sys_int.o
                0x0000bf00                SYS_INT_Restore

.text.SYS_TIME_CounterGet%577
                0x0000bf08        0x8
 .text.SYS_TIME_CounterGet
                0x0000bf08        0x8 build/default/production/_ext/101884895/sys_time.o
                0x0000bf08                SYS_TIME_CounterGet

.rodata.phy_PibSize%578
                0x0000bf10        0x8
 .rodata.phy_PibSize
                0x0000bf10        0x8 build/default/production/_ext/1655452824/mac_pib.o

.text.OSAL_Malloc%579
                0x0000bf18        0x8
 .text.OSAL_Malloc
                0x0000bf18        0x8 build/default/production/_ext/1529399856/osal_freertos.o
                0x0000bf18                OSAL_Malloc

.text.OSAL_Free%580
                0x0000bf20        0x8
 .text.OSAL_Free
                0x0000bf20        0x8 build/default/production/_ext/1529399856/osal_freertos.o
                0x0000bf20                OSAL_Free

.text.TAL_TaskHandler%581
                0x0000bf28        0x8
 .text.TAL_TaskHandler
                0x0000bf28        0x8 build/default/production/_ext/559172130/phy.o
                0x0000bf28                TAL_TaskHandler

.rodata.sysTimeInitData%582
                0x0000bf30        0x8
 .rodata.sysTimeInitData
                0x0000bf30        0x8 build/default/production/_ext/1171490990/initialization.o

.text.lAPP_Tasks%583
                0x0000bf38        0x8
 .text.lAPP_Tasks
                0x0000bf38        0x8 build/default/production/_ext/1171490990/tasks.o

.text._TAL_Tasks%584
                0x0000bf40        0x8
 .text._TAL_Tasks
                0x0000bf40        0x8 build/default/production/_ext/1171490990/tasks.o

.text._WPAN_Tasks%585
                0x0000bf48        0x8
 .text._WPAN_Tasks
                0x0000bf48        0x8 build/default/production/_ext/1171490990/tasks.o

.text.SERCOM0_USART_WriteCountGet%586
                0x0000bf50        0x8
 .text.SERCOM0_USART_WriteCountGet
                0x0000bf50        0x8 build/default/production/_ext/504274921/plib_sercom0_usart.o
                0x0000bf50                SERCOM0_USART_WriteCountGet

.rodata%587     0x0000bf58        0x8
 .rodata        0x0000bf58        0x8 build/default/production/_ext/404212886/timers.o

.text.ulSetInterruptMaskFromISR%588
                0x0000bf60        0x8
 .text.ulSetInterruptMaskFromISR
                0x0000bf60        0x8 build/default/production/_ext/1624415188/port.o
                0x0000bf60                ulSetInterruptMaskFromISR

.rodata%589     0x0000bf68        0x7
 .rodata        0x0000bf68        0x7 c:/program files/microchip/xc32/v4.35/bin/bin/../../lib/gcc/pic32c/8.3.1/../../../../pic32c/lib/thumb/v6-m/nofp\libc-musl.a(__fmt_s.o)

.text.trx_delay_loop%590
                0x0000bf70        0x6
 .text.trx_delay_loop
                0x0000bf70        0x6 build/default/production/_ext/559172130/phy.o
                0x0000bf70                trx_delay_loop

.text.vClearInterruptMaskFromISR%591
                0x0000bf76        0x6
 .text.vClearInterruptMaskFromISR
                0x0000bf76        0x6 build/default/production/_ext/1624415188/port.o
                0x0000bf76                vClearInterruptMaskFromISR

.text.vListInitialiseItem%592
                0x0000bf7c        0x6
 .text.vListInitialiseItem
                0x0000bf7c        0x6 build/default/production/_ext/404212886/list.o
                0x0000bf7c                vListInitialiseItem

.text.vApplicationStackOverflowHook%593
                0x0000bf82        0x4
 .text.vApplicationStackOverflowHook
                0x0000bf82        0x4 build/default/production/_ext/1171490990/freertos_hooks.o
                0x0000bf82                vApplicationStackOverflowHook

.text.vApplicationMallocFailedHook%594
                0x0000bf86        0x4
 .text.vApplicationMallocFailedHook
                0x0000bf86        0x4 build/default/production/_ext/1171490990/freertos_hooks.o
                0x0000bf86                vApplicationMallocFailedHook

.text.Console_UART_Flush%595
                0x0000bf8a        0x4
 .text.Console_UART_Flush
                0x0000bf8a        0x4 build/default/production/_ext/1832805299/sys_console_uart.o
                0x0000bf8a                Console_UART_Flush

.rodata.sysConsole0UARTInitData%596
                0x0000bf90        0x4
 .rodata.sysConsole0UARTInitData
                0x0000bf90        0x4 build/default/production/_ext/1171490990/initialization.o

.text.__dummy_decompress%597
                0x0000bf94        0x4
 .text.__dummy_decompress
                0x0000bf94        0x4 c:/program files/microchip/xc32/v4.35/bin/bin/../../lib/gcc/pic32c/8.3.1/../../../../pic32c/lib/thumb/v6-m/nofp\libpic32c.a(data_init.o)
                0x0000bf94                __dinit_decompress
                0x0000bf94                __dinit_copy_val_data
                0x0000bf94                __dinit_copy_emb

.text%598       0x0000bf98        0x4
 .text          0x0000bf98        0x4 c:/program files/microchip/xc32/v4.35/bin/bin/../../lib/gcc/pic32c/8.3.1/thumb/v6-m/nofp\libgcc.a(_dvmd_tls.o)
                0x0000bf98                __aeabi_idiv0
                0x0000bf98                __aeabi_ldiv0

.text.NonMaskableInt_Handler%599
                0x0000416e        0x2
 .text.NonMaskableInt_Handler
                0x0000416e        0x2 build/default/production/_ext/1171490990/exceptions.o
                0x0000416e                NonMaskableInt_Handler

.text.HardFault_Handler%600
                0x00004d92        0x2
 .text.HardFault_Handler
                0x00004d92        0x2 build/default/production/_ext/1171490990/exceptions.o
                0x00004d92                HardFault_Handler

.text.vApplicationIdleHook%601
                0x00004ffa        0x2
 .text.vApplicationIdleHook
                0x00004ffa        0x2 build/default/production/_ext/1171490990/freertos_hooks.o
                0x00004ffa                vApplicationIdleHook

.text.vApplicationTickHook%602
                0x00005d1a        0x2
 .text.vApplicationTickHook
                0x00005d1a        0x2 build/default/production/_ext/1171490990/freertos_hooks.o
                0x00005d1a                vApplicationTickHook

.text.Dummy_Handler%603
                0x00006516        0x2
 .text.Dummy_Handler
                0x00006516        0x2 build/default/production/_ext/1171490990/interrupts.o
                0x00006516                DMAC_Handler
                0x00006516                AC_Handler
                0x00006516                SERCOM1_Handler
                0x00006516                ADC_Handler
                0x00006516                TCC1_Handler
                0x00006516                SERCOM2_Handler
                0x00006516                TCC0_Handler
                0x00006516                RTC_Handler
                0x00006516                WDT_Handler
                0x00006516                TC4_Handler
                0x00006516                USB_Handler
                0x00006516                Dummy_Handler
                0x00006516                PM_Handler
                0x00006516                SERCOM5_Handler
                0x00006516                TCC2_Handler
                0x00006516                EVSYS_Handler
                0x00006516                SERCOM3_Handler
                0x00006516                NVMCTRL_Handler
                0x00006516                PTC_Handler
                0x00006516                TC5_Handler
                0x00006516                SYSCTRL_Handler

.text.USR_MLME_SyncLossInd%604
                0x00006a0a        0x2
 .text.USR_MLME_SyncLossInd
                0x00006a0a        0x2 build/default/production/_ext/1655452824/usr_mlme_sync_loss_ind.o
                0x00006a0a                USR_MLME_SyncLossInd

.text.Dummy_App_Func%605
                0x000070a2        0x2
 .text.Dummy_App_Func
                0x000070a2        0x2 build/default/production/_ext/1171490990/startup_xc32.o
                0x000070a2                _on_reset
                0x000070a2                _on_bootstrap
                0x000070a2                __xc32_on_reset
                0x000070a2                Dummy_App_Func
                0x000070a2                __xc32_on_bootstrap

.text.Console_UART_Tasks%606
                0x00008482        0x2
 .text.Console_UART_Tasks
                0x00008482        0x2 build/default/production/_ext/1832805299/sys_console_uart.o
                0x00008482                Console_UART_Tasks

.text.vPortSVCHandler%607
                0x0000870a        0x2
 .text.vPortSVCHandler
                0x0000870a        0x2 build/default/production/_ext/1624415188/port.o
                0x0000870a                vPortSVCHandler

.text.Data_Ind_LED_Timer_Callback%608
                0x0000896e        0x2
 .text.Data_Ind_LED_Timer_Callback
                0x0000896e        0x2 build/default/production/_ext/85628700/demo_app_ffd.o

.text.Data_Conf_LED_Timer_Callback%609
                0x00008efa        0x2
 .text.Data_Conf_LED_Timer_Callback
                0x00008efa        0x2 build/default/production/_ext/85628700/demo_app_ffd.o

.text.USR_MCPS_PurgeConf%610
                0x000091ba        0x2
 .text.USR_MCPS_PurgeConf
                0x000091ba        0x2 build/default/production/_ext/85628700/usr_mac_callbacks.o
                0x000091ba                USR_MCPS_PurgeConf

.text.USR_MLME_DisassociateConf%611
                0x0000b15a        0x2
 .text.USR_MLME_DisassociateConf
                0x0000b15a        0x2 build/default/production/_ext/85628700/usr_mac_callbacks.o
                0x0000b15a                USR_MLME_DisassociateConf

.text.USR_MLME_DisassociateInd%612
                0x0000b7de        0x2
 .text.USR_MLME_DisassociateInd
                0x0000b7de        0x2 build/default/production/_ext/85628700/usr_mac_callbacks.o
                0x0000b7de                USR_MLME_DisassociateInd

.text.USR_MLME_OrphanInd%613
                0x0000beee        0x2
 .text.USR_MLME_OrphanInd
                0x0000beee        0x2 build/default/production/_ext/85628700/usr_mac_callbacks.o
                0x0000beee                USR_MLME_OrphanInd

.text.USR_MLME_RxEnableConf%614
                0x0000bf8e        0x2
 .text.USR_MLME_RxEnableConf
                0x0000bf8e        0x2 build/default/production/_ext/85628700/usr_mac_callbacks.o
                0x0000bf8e                USR_MLME_RxEnableConf

.text.__dummy%615
                0x0000bf9c        0x2
 .text.__dummy  0x0000bf9c        0x2 c:/program files/microchip/xc32/v4.35/bin/bin/../../lib/gcc/pic32c/8.3.1/../../../../pic32c/lib/thumb/v6-m/nofp\libc-musl.a(__libc_start_main.o)
                0x0000bf9c                __init_stdio
                0x0000bf9c                __init_host
