Archive member included to satisfy reference by file (symbol)

c:/program files/microchip/xc32/v4.35/bin/bin/../../lib/gcc/pic32c/8.3.1/../../../../pic32c/lib/thumb/v6-m/nofp\libpic32c.a(data_init.o)
                              build/default/debug/_ext/1171490990/startup_xc32.o (__pic32c_data_initialization)
c:/program files/microchip/xc32/v4.35/bin/bin/../../lib/gcc/pic32c/8.3.1/../../../../pic32c/lib/thumb/v6-m/nofp\libm-fast-emfloat.a(__aeabi_fadd.o)
                              build/default/debug/_ext/559172130/phy_helper.o (__aeabi_fadd)
c:/program files/microchip/xc32/v4.35/bin/bin/../../lib/gcc/pic32c/8.3.1/../../../../pic32c/lib/thumb/v6-m/nofp\libm-fast-emfloat.a(__aeabi_dadd.o)
                              build/default/debug/_ext/559172130/phy_helper.o (__aeabi_dadd)
c:/program files/microchip/xc32/v4.35/bin/bin/../../lib/gcc/pic32c/8.3.1/../../../../pic32c/lib/thumb/v6-m/nofp\libm-fast-emfloat.a(__aeabi_fsub.o)
                              build/default/debug/_ext/559172130/phy_helper.o (__aeabi_fsub)
c:/program files/microchip/xc32/v4.35/bin/bin/../../lib/gcc/pic32c/8.3.1/../../../../pic32c/lib/thumb/v6-m/nofp\libm-fast-emfloat.a(__aeabi_dmul_aux.o)
                              build/default/debug/_ext/559172130/phy_helper.o (__aeabi_dmul)
c:/program files/microchip/xc32/v4.35/bin/bin/../../lib/gcc/pic32c/8.3.1/../../../../pic32c/lib/thumb/v6-m/nofp\libm-fast-emfloat.a(__aeabi_fcmpgt.o)
                              build/default/debug/_ext/559172130/phy_helper.o (__aeabi_fcmpgt)
c:/program files/microchip/xc32/v4.35/bin/bin/../../lib/gcc/pic32c/8.3.1/../../../../pic32c/lib/thumb/v6-m/nofp\libm-fast-emfloat.a(__aeabi_fcmplt.o)
                              build/default/debug/_ext/559172130/phy_helper.o (__aeabi_fcmplt)
c:/program files/microchip/xc32/v4.35/bin/bin/../../lib/gcc/pic32c/8.3.1/../../../../pic32c/lib/thumb/v6-m/nofp\libm-fast-emfloat.a(__aeabi_f2iz.o)
                              build/default/debug/_ext/559172130/phy_helper.o (__aeabi_f2iz)
c:/program files/microchip/xc32/v4.35/bin/bin/../../lib/gcc/pic32c/8.3.1/../../../../pic32c/lib/thumb/v6-m/nofp\libm-fast-emfloat.a(__aeabi_f2uiz.o)
                              build/default/debug/_ext/559172130/phy_helper.o (__aeabi_f2uiz)
c:/program files/microchip/xc32/v4.35/bin/bin/../../lib/gcc/pic32c/8.3.1/../../../../pic32c/lib/thumb/v6-m/nofp\libm-fast-emfloat.a(__aeabi_ui2f.o)
                              build/default/debug/_ext/559172130/phy_helper.o (__aeabi_ui2f)
c:/program files/microchip/xc32/v4.35/bin/bin/../../lib/gcc/pic32c/8.3.1/../../../../pic32c/lib/thumb/v6-m/nofp\libm-fast-emfloat.a(__aeabi_f2d.o)
                              build/default/debug/_ext/559172130/phy_helper.o (__aeabi_f2d)
c:/program files/microchip/xc32/v4.35/bin/bin/../../lib/gcc/pic32c/8.3.1/../../../../pic32c/lib/thumb/v6-m/nofp\libm-fast-emfloat.a(__aeabi_d2f.o)
                              build/default/debug/_ext/559172130/phy_helper.o (__aeabi_d2f)
c:/program files/microchip/xc32/v4.35/bin/bin/../../lib/gcc/pic32c/8.3.1/../../../../pic32c/lib/thumb/v6-m/nofp\libg-musl.a(__libc_start_main.o)
                              build/default/debug/_ext/1171490990/startup_xc32.o (__libc_init_array)
c:/program files/microchip/xc32/v4.35/bin/bin/../../lib/gcc/pic32c/8.3.1/../../../../pic32c/lib/thumb/v6-m/nofp\libg-musl.a(libc.o)
                              c:/program files/microchip/xc32/v4.35/bin/bin/../../lib/gcc/pic32c/8.3.1/../../../../pic32c/lib/thumb/v6-m/nofp\libg-musl.a(__libc_start_main.o) (__progname_full)
c:/program files/microchip/xc32/v4.35/bin/bin/../../lib/gcc/pic32c/8.3.1/../../../../pic32c/lib/thumb/v6-m/nofp\libg-musl.a(rand.o)
                              build/default/debug/_ext/559172130/phy_init.o (srand)
c:/program files/microchip/xc32/v4.35/bin/bin/../../lib/gcc/pic32c/8.3.1/../../../../pic32c/lib/thumb/v6-m/nofp\libg-musl.a(vsnprintf.o)
                              build/default/debug/_ext/1832805299/sys_console.o (vsnprintf)
c:/program files/microchip/xc32/v4.35/bin/bin/../../lib/gcc/pic32c/8.3.1/../../../../pic32c/lib/thumb/v6-m/nofp\libg-musl.a(memcpy.o)
                              build/default/debug/_ext/1655452824/mac_process_beacon_frame.o (memcpy)
c:/program files/microchip/xc32/v4.35/bin/bin/../../lib/gcc/pic32c/8.3.1/../../../../pic32c/lib/thumb/v6-m/nofp\libg-musl.a(memset.o)
                              build/default/debug/_ext/101884895/sys_time.o (memset)
c:/program files/microchip/xc32/v4.35/bin/bin/../../lib/gcc/pic32c/8.3.1/../../../../pic32c/lib/thumb/v6-m/nofp\libg-musl.a(strlen.o)
                              build/default/debug/_ext/1832805299/sys_console.o (strlen)
c:/program files/microchip/xc32/v4.35/bin/bin/../../lib/gcc/pic32c/8.3.1/../../../../pic32c/lib/thumb/v6-m/nofp\libg-musl.a(__environ.o)
                              c:/program files/microchip/xc32/v4.35/bin/bin/../../lib/gcc/pic32c/8.3.1/../../../../pic32c/lib/thumb/v6-m/nofp\libg-musl.a(__libc_start_main.o) (__environ)
c:/program files/microchip/xc32/v4.35/bin/bin/../../lib/gcc/pic32c/8.3.1/../../../../pic32c/lib/thumb/v6-m/nofp\libg-musl.a(__errno_location.o)
                              c:/program files/microchip/xc32/v4.35/bin/bin/../../lib/gcc/pic32c/8.3.1/../../../../pic32c/lib/thumb/v6-m/nofp\libg-musl.a(vsnprintf.o) (__errno_val)
c:/program files/microchip/xc32/v4.35/bin/bin/../../lib/gcc/pic32c/8.3.1/../../../../pic32c/lib/thumb/v6-m/nofp\libg-musl.a(vfprintf.o)
                              c:/program files/microchip/xc32/v4.35/bin/bin/../../lib/gcc/pic32c/8.3.1/../../../../pic32c/lib/thumb/v6-m/nofp\libg-musl.a(vsnprintf.o) (vfprintf)
c:/program files/microchip/xc32/v4.35/bin/bin/../../lib/gcc/pic32c/8.3.1/../../../../pic32c/lib/thumb/v6-m/nofp\libg-musl.a(__io_fmt_needed.o)
                              c:/program files/microchip/xc32/v4.35/bin/bin/../../lib/gcc/pic32c/8.3.1/../../../../pic32c/lib/thumb/v6-m/nofp\libg-musl.a(vfprintf.o) (__io_fmt_needed)
c:/program files/microchip/xc32/v4.35/bin/bin/../../lib/gcc/pic32c/8.3.1/../../../../pic32c/lib/thumb/v6-m/nofp\libg-musl.a(__pop_float.o)
                              c:/program files/microchip/xc32/v4.35/bin/bin/../../lib/gcc/pic32c/8.3.1/../../../../pic32c/lib/thumb/v6-m/nofp\libg-musl.a(__io_fmt_needed.o) (__pop_float_needed)
c:/program files/microchip/xc32/v4.35/bin/bin/../../lib/gcc/pic32c/8.3.1/../../../../pic32c/lib/thumb/v6-m/nofp\libg-musl.a(__pop_int.o)
                              c:/program files/microchip/xc32/v4.35/bin/bin/../../lib/gcc/pic32c/8.3.1/../../../../pic32c/lib/thumb/v6-m/nofp\libg-musl.a(__io_fmt_needed.o) (__pop_int_needed)
c:/program files/microchip/xc32/v4.35/bin/bin/../../lib/gcc/pic32c/8.3.1/../../../../pic32c/lib/thumb/v6-m/nofp\libg-musl.a(__pop_ptr.o)
                              c:/program files/microchip/xc32/v4.35/bin/bin/../../lib/gcc/pic32c/8.3.1/../../../../pic32c/lib/thumb/v6-m/nofp\libg-musl.a(__io_fmt_needed.o) (__pop_ptr_needed)
c:/program files/microchip/xc32/v4.35/bin/bin/../../lib/gcc/pic32c/8.3.1/../../../../pic32c/lib/thumb/v6-m/nofp\libg-musl.a(__printf_core.o)
                              c:/program files/microchip/xc32/v4.35/bin/bin/../../lib/gcc/pic32c/8.3.1/../../../../pic32c/lib/thumb/v6-m/nofp\libg-musl.a(vfprintf.o) (__printf_core)
c:/program files/microchip/xc32/v4.35/bin/bin/../../lib/gcc/pic32c/8.3.1/../../../../pic32c/lib/thumb/v6-m/nofp\libg-musl.a(atoi.o)
                              c:/program files/microchip/xc32/v4.35/bin/bin/../../lib/gcc/pic32c/8.3.1/../../../../pic32c/lib/thumb/v6-m/nofp\libg-musl.a(__printf_core.o) (atoi)
c:/program files/microchip/xc32/v4.35/bin/bin/../../lib/gcc/pic32c/8.3.1/../../../../pic32c/lib/thumb/v6-m/nofp\libg-musl.a(tolower.o)
                              c:/program files/microchip/xc32/v4.35/bin/bin/../../lib/gcc/pic32c/8.3.1/../../../../pic32c/lib/thumb/v6-m/nofp\libg-musl.a(__printf_core.o) (tolower)
c:/program files/microchip/xc32/v4.35/bin/bin/../../lib/gcc/pic32c/8.3.1/../../../../pic32c/lib/thumb/v6-m/nofp\libg-musl.a(__fmt_a.o)
                              c:/program files/microchip/xc32/v4.35/bin/bin/../../lib/gcc/pic32c/8.3.1/../../../../pic32c/lib/thumb/v6-m/nofp\libg-musl.a(__io_fmt_needed.o) (__fmt_a_needed)
c:/program files/microchip/xc32/v4.35/bin/bin/../../lib/gcc/pic32c/8.3.1/../../../../pic32c/lib/thumb/v6-m/nofp\libg-musl.a(__fmt_d.o)
                              c:/program files/microchip/xc32/v4.35/bin/bin/../../lib/gcc/pic32c/8.3.1/../../../../pic32c/lib/thumb/v6-m/nofp\libg-musl.a(__io_fmt_needed.o) (__fmt_d_needed)
c:/program files/microchip/xc32/v4.35/bin/bin/../../lib/gcc/pic32c/8.3.1/../../../../pic32c/lib/thumb/v6-m/nofp\libg-musl.a(__fmt_fp.o)
                              c:/program files/microchip/xc32/v4.35/bin/bin/../../lib/gcc/pic32c/8.3.1/../../../../pic32c/lib/thumb/v6-m/nofp\libg-musl.a(__io_fmt_needed.o) (__fmt_f_needed)
c:/program files/microchip/xc32/v4.35/bin/bin/../../lib/gcc/pic32c/8.3.1/../../../../pic32c/lib/thumb/v6-m/nofp\libg-musl.a(__fmt_o.o)
                              c:/program files/microchip/xc32/v4.35/bin/bin/../../lib/gcc/pic32c/8.3.1/../../../../pic32c/lib/thumb/v6-m/nofp\libg-musl.a(__io_fmt_needed.o) (__fmt_o_needed)
c:/program files/microchip/xc32/v4.35/bin/bin/../../lib/gcc/pic32c/8.3.1/../../../../pic32c/lib/thumb/v6-m/nofp\libg-musl.a(__fmt_s.o)
                              c:/program files/microchip/xc32/v4.35/bin/bin/../../lib/gcc/pic32c/8.3.1/../../../../pic32c/lib/thumb/v6-m/nofp\libg-musl.a(__io_fmt_needed.o) (__fmt_s_needed)
c:/program files/microchip/xc32/v4.35/bin/bin/../../lib/gcc/pic32c/8.3.1/../../../../pic32c/lib/thumb/v6-m/nofp\libg-musl.a(__fmt_u.o)
                              c:/program files/microchip/xc32/v4.35/bin/bin/../../lib/gcc/pic32c/8.3.1/../../../../pic32c/lib/thumb/v6-m/nofp\libg-musl.a(__io_fmt_needed.o) (__fmt_u_needed)
c:/program files/microchip/xc32/v4.35/bin/bin/../../lib/gcc/pic32c/8.3.1/../../../../pic32c/lib/thumb/v6-m/nofp\libg-musl.a(__fmt_x.o)
                              c:/program files/microchip/xc32/v4.35/bin/bin/../../lib/gcc/pic32c/8.3.1/../../../../pic32c/lib/thumb/v6-m/nofp\libg-musl.a(__io_fmt_needed.o) (__fmt_x_needed)
c:/program files/microchip/xc32/v4.35/bin/bin/../../lib/gcc/pic32c/8.3.1/../../../../pic32c/lib/thumb/v6-m/nofp\libg-musl.a(strcpy.o)
                              c:/program files/microchip/xc32/v4.35/bin/bin/../../lib/gcc/pic32c/8.3.1/../../../../pic32c/lib/thumb/v6-m/nofp\libg-musl.a(__fmt_a.o) (strcpy)
c:/program files/microchip/xc32/v4.35/bin/bin/../../lib/gcc/pic32c/8.3.1/../../../../pic32c/lib/thumb/v6-m/nofp\libg-musl.a(toupper.o)
                              c:/program files/microchip/xc32/v4.35/bin/bin/../../lib/gcc/pic32c/8.3.1/../../../../pic32c/lib/thumb/v6-m/nofp\libg-musl.a(__fmt_a.o) (toupper)
c:/program files/microchip/xc32/v4.35/bin/bin/../../lib/gcc/pic32c/8.3.1/../../../../pic32c/lib/thumb/v6-m/nofp\libg-musl.a(__cvt_u.o)
                              c:/program files/microchip/xc32/v4.35/bin/bin/../../lib/gcc/pic32c/8.3.1/../../../../pic32c/lib/thumb/v6-m/nofp\libg-musl.a(__fmt_d.o) (__cvt_u)
c:/program files/microchip/xc32/v4.35/bin/bin/../../lib/gcc/pic32c/8.3.1/../../../../pic32c/lib/thumb/v6-m/nofp\libg-musl.a(stpcpy.o)
                              c:/program files/microchip/xc32/v4.35/bin/bin/../../lib/gcc/pic32c/8.3.1/../../../../pic32c/lib/thumb/v6-m/nofp\libg-musl.a(strcpy.o) (__stpcpy)
c:/program files/microchip/xc32/v4.35/bin/bin/../../lib/gcc/pic32c/8.3.1/../../../../pic32c/lib/thumb/v6-m/nofp\libm-fast-emfloat.a(fma.o)
                              c:/program files/microchip/xc32/v4.35/bin/bin/../../lib/gcc/pic32c/8.3.1/../../../../pic32c/lib/thumb/v6-m/nofp\libg-musl.a(__fmt_fp.o) (fma)
c:/program files/microchip/xc32/v4.35/bin/bin/../../lib/gcc/pic32c/8.3.1/../../../../pic32c/lib/thumb/v6-m/nofp\libm-fast-emfloat.a(floor.o)
                              c:/program files/microchip/xc32/v4.35/bin/bin/../../lib/gcc/pic32c/8.3.1/../../../../pic32c/lib/thumb/v6-m/nofp\libg-musl.a(__fmt_a.o) (floor)
c:/program files/microchip/xc32/v4.35/bin/bin/../../lib/gcc/pic32c/8.3.1/../../../../pic32c/lib/thumb/v6-m/nofp\libm-fast-emfloat.a(__aeabi_dsub.o)
                              c:/program files/microchip/xc32/v4.35/bin/bin/../../lib/gcc/pic32c/8.3.1/../../../../pic32c/lib/thumb/v6-m/nofp\libg-musl.a(__fmt_a.o) (__aeabi_dsub)
c:/program files/microchip/xc32/v4.35/bin/bin/../../lib/gcc/pic32c/8.3.1/../../../../pic32c/lib/thumb/v6-m/nofp\libm-fast-emfloat.a(__aeabi_ddiv.o)
                              c:/program files/microchip/xc32/v4.35/bin/bin/../../lib/gcc/pic32c/8.3.1/../../../../pic32c/lib/thumb/v6-m/nofp\libg-musl.a(__fmt_a.o) (__aeabi_ddiv)
c:/program files/microchip/xc32/v4.35/bin/bin/../../lib/gcc/pic32c/8.3.1/../../../../pic32c/lib/thumb/v6-m/nofp\libm-fast-emfloat.a(__aeabi_dcmple.o)
                              c:/program files/microchip/xc32/v4.35/bin/bin/../../lib/gcc/pic32c/8.3.1/../../../../pic32c/lib/thumb/v6-m/nofp\libg-musl.a(__fmt_fp.o) (__aeabi_dcmple)
c:/program files/microchip/xc32/v4.35/bin/bin/../../lib/gcc/pic32c/8.3.1/../../../../pic32c/lib/thumb/v6-m/nofp\libm-fast-emfloat.a(__aeabi_dcmpeq.o)
                              c:/program files/microchip/xc32/v4.35/bin/bin/../../lib/gcc/pic32c/8.3.1/../../../../pic32c/lib/thumb/v6-m/nofp\libg-musl.a(__fmt_a.o) (__aeabi_dcmpeq)
c:/program files/microchip/xc32/v4.35/bin/bin/../../lib/gcc/pic32c/8.3.1/../../../../pic32c/lib/thumb/v6-m/nofp\libm-fast-emfloat.a(__aeabi_dcmpgt.o)
                              c:/program files/microchip/xc32/v4.35/bin/bin/../../lib/gcc/pic32c/8.3.1/../../../../pic32c/lib/thumb/v6-m/nofp\libg-musl.a(__fmt_fp.o) (__aeabi_dcmpgt)
c:/program files/microchip/xc32/v4.35/bin/bin/../../lib/gcc/pic32c/8.3.1/../../../../pic32c/lib/thumb/v6-m/nofp\libm-fast-emfloat.a(__aeabi_dcmplt.o)
                              c:/program files/microchip/xc32/v4.35/bin/bin/../../lib/gcc/pic32c/8.3.1/../../../../pic32c/lib/thumb/v6-m/nofp\libg-musl.a(__fmt_a.o) (__aeabi_dcmplt)
c:/program files/microchip/xc32/v4.35/bin/bin/../../lib/gcc/pic32c/8.3.1/../../../../pic32c/lib/thumb/v6-m/nofp\libm-fast-emfloat.a(__aeabi_d2iz.o)
                              c:/program files/microchip/xc32/v4.35/bin/bin/../../lib/gcc/pic32c/8.3.1/../../../../pic32c/lib/thumb/v6-m/nofp\libg-musl.a(__fmt_a.o) (__aeabi_d2iz)
c:/program files/microchip/xc32/v4.35/bin/bin/../../lib/gcc/pic32c/8.3.1/../../../../pic32c/lib/thumb/v6-m/nofp\libm-fast-emfloat.a(__aeabi_d2uiz.o)
                              c:/program files/microchip/xc32/v4.35/bin/bin/../../lib/gcc/pic32c/8.3.1/../../../../pic32c/lib/thumb/v6-m/nofp\libm-fast-emfloat.a(__aeabi_d2iz.o) (.L__aeabi_d2uiz_fast_entry)
c:/program files/microchip/xc32/v4.35/bin/bin/../../lib/gcc/pic32c/8.3.1/thumb/v6-m/nofp\libgcc.a(_udivsi3.o)
                              build/default/debug/_ext/559172130/phy.o (__aeabi_uidiv)
c:/program files/microchip/xc32/v4.35/bin/bin/../../lib/gcc/pic32c/8.3.1/thumb/v6-m/nofp\libgcc.a(_divsi3.o)
                              build/default/debug/_ext/559172130/tfa.o (__aeabi_idiv)
c:/program files/microchip/xc32/v4.35/bin/bin/../../lib/gcc/pic32c/8.3.1/thumb/v6-m/nofp\libgcc.a(_dvmd_tls.o)
                              c:/program files/microchip/xc32/v4.35/bin/bin/../../lib/gcc/pic32c/8.3.1/thumb/v6-m/nofp\libgcc.a(_udivsi3.o) (__aeabi_idiv0)
c:/program files/microchip/xc32/v4.35/bin/bin/../../lib/gcc/pic32c/8.3.1/thumb/v6-m/nofp\libgcc.a(_aeabi_uldivmod.o)
                              build/default/debug/_ext/504274921/plib_sercom0_usart.o (__aeabi_uldivmod)
c:/program files/microchip/xc32/v4.35/bin/bin/../../lib/gcc/pic32c/8.3.1/thumb/v6-m/nofp\libgcc.a(_muldi3.o)
                              build/default/debug/_ext/101884895/sys_time.o (__aeabi_lmul)
c:/program files/microchip/xc32/v4.35/bin/bin/../../lib/gcc/pic32c/8.3.1/thumb/v6-m/nofp\libgcc.a(_udivmoddi4.o)
                              c:/program files/microchip/xc32/v4.35/bin/bin/../../lib/gcc/pic32c/8.3.1/thumb/v6-m/nofp\libgcc.a(_aeabi_uldivmod.o) (__udivmoddi4)
c:/program files/microchip/xc32/v4.35/bin/bin/../../lib/gcc/pic32c/8.3.1/thumb/v6-m/nofp\libgcc.a(_lshrdi3.o)
                              c:/program files/microchip/xc32/v4.35/bin/bin/../../lib/gcc/pic32c/8.3.1/thumb/v6-m/nofp\libgcc.a(_udivmoddi4.o) (__aeabi_llsr)
c:/program files/microchip/xc32/v4.35/bin/bin/../../lib/gcc/pic32c/8.3.1/thumb/v6-m/nofp\libgcc.a(_ashldi3.o)
                              c:/program files/microchip/xc32/v4.35/bin/bin/../../lib/gcc/pic32c/8.3.1/thumb/v6-m/nofp\libgcc.a(_udivmoddi4.o) (__aeabi_llsl)
c:/program files/microchip/xc32/v4.35/bin/bin/../../lib/gcc/pic32c/8.3.1/thumb/v6-m/nofp\libgcc.a(_clzdi2.o)
                              c:/program files/microchip/xc32/v4.35/bin/bin/../../lib/gcc/pic32c/8.3.1/thumb/v6-m/nofp\libgcc.a(_udivmoddi4.o) (__clzdi2)
c:/program files/microchip/xc32/v4.35/bin/bin/../../lib/gcc/pic32c/8.3.1/thumb/v6-m/nofp\libgcc.a(_clzsi2.o)
                              c:/program files/microchip/xc32/v4.35/bin/bin/../../lib/gcc/pic32c/8.3.1/thumb/v6-m/nofp\libgcc.a(_clzdi2.o) (__clzsi2)
c:/program files/microchip/xc32/v4.35/bin/bin/../../lib/gcc/pic32c/8.3.1/../../../../pic32c/lib/thumb/v6-m/nofp\libpic32c.a(pic32_data_init_clear.o)
                              (__dinit_clear_needed)
c:/program files/microchip/xc32/v4.35/bin/bin/../../lib/gcc/pic32c/8.3.1/../../../../pic32c/lib/thumb/v6-m/nofp\libpic32c.a(pic32_data_init_copy.o)
                              (__dinit_copy_needed)

Microchip PIC32 Memory-Usage Report

ROM Program-Memory Usage
section                    address  length [bytes]      (dec)  Description
-------                 ----------  -------------------------  -----------
.vectors                         0           0xac         172   
.text                         0xac           0x20          32  App's exec code 
.ARM.exidx                    0xcc            0x8           8   
.text.__fmt_fp                0xd4          0x4bc        1212   
.text.__fmt_a                0x590          0x488        1160   
.rodata.MAC_MLME_Get         0xa18          0x3c4         964   
.dinit                       0xddc          0x3c0         960   
.text.__printf_core         0x119c          0x340         832   
.text.MAC_ProcessPhyDat     0x14dc          0x334         820   
.text.MAC_MCPS_DataRequ     0x1810          0x278         632   
.text.MAC_BuildAndTxDat     0x1a88          0x230         560   
.text.PHY_PibSet            0x1cb8          0x210         528   
.text.set_trx_state         0x1ec8          0x208         520   
.text.xTaskCreate           0x20d0          0x1d8         472   
.text.ScanProceed           0x22a8          0x1d4         468   
.text.MAC_MLME_ScanRequ     0x247c          0x1d4         468   
.text.MAC_ProcessBeacon     0x2650          0x1cc         460   
.text.__aeabi_dadd          0x281c          0x1c8         456   
.text.MAC_MLME_Set          0x29e4          0x1bc         444   
.text.MAC_MLME_Get          0x2ba0          0x1bc         444   
.text.PHY_TxDoneCallbac     0x2d5c          0x1ac         428   
.text.prvTimerTask          0x2f08          0x19c         412   
.text.MAC_MLME_Associat     0x30a4          0x18c         396   
.text.__aeabi_dmul_aux      0x3230          0x18a         394   
.text.USR_MLME_SyncLoss     0x33ba            0x2           2   
.rodata                     0x33bc          0x188         392  Read-only const 
.text.SERCOM4_SPI_Write     0x3544          0x178         376   
.text.MAC_ProcessDataFr     0x36bc          0x15c         348   
.text.PHY_Init              0x3818          0x15c         348   
.text.SERCOM4_SPI_Inter     0x3974          0x154         340   
.text.MAC_MLME_Disassoc     0x3ac8          0x138         312   
.text.xQueueGenericSend     0x3c00          0x138         312   
.text.xQueueSemaphoreTa     0x3d38          0x136         310   
.text.PHY_EdEndCallback     0x3e6e            0x2           2   
.text.xTaskIncrementTic     0x3e70          0x134         308   
.text.__fmt_x               0x3fa4          0x132         306   
.text.Console_UART_Task     0x40d6            0x2           2   
.text.pvPortMalloc          0x40d8          0x128         296   
.text.PHY_PibGet            0x4200          0x11c         284   
.text.CheckForPanIdConf     0x431c          0x118         280   
.text.SYS_Initialize        0x4434          0x110         272   
.text.Handle_BeaconNoti     0x4544          0x110         272   
.text.SERCOM0_USART_Wri     0x4654          0x104         260   
.text.xQueueReceive         0x4758           0xf8         248   
.text.MAC_ExtractMhrAdd     0x4850           0xec         236   
.text.SERCOM0_USART_ISR     0x493c           0xec         236   
.text.ScanSetComplete       0x4a28           0xe8         232   
.text.SYS_TIME_PLIBCall     0x4b10           0xe8         232   
.text.xTaskResumeAll        0x4bf8           0xe8         232   
.text                       0x4ce0           0xe2         226  App's exec code 
.text.vApplicationIdleH     0x4dc2            0x2           2   
.text.SERCOM0_USART_ISR     0x4dc4           0xe0         224   
.text.Handle_ScanConf       0x4ea4           0xe0         224   
.text.SYS_TIME_AddToLis     0x4f84           0xdc         220   
.text.send_frame            0x5060           0xd8         216   
.text.SYS_TIME_Initiali     0x5138           0xc4         196   
.text.vTaskSwitchContex     0x51fc           0xc4         196   
.text.Handle_GetConf        0x52c0           0xc4         196   
.text.__aeabi_ddiv          0x5384           0xc4         196   
.text.SYS_TIME_TimerObj     0x5448           0xc0         192   
.text.__pop_int             0x5508           0xbe         190   
.text.vApplicationTickH     0x55c6            0x2           2   
.text.SYS_TIME_HwTimerC     0x55c8           0xbc         188   
.text.Handle_AssociateC     0x5684           0xb8         184   
.text.SendScanCmd           0x573c           0xb4         180   
.text.MAC_ProcessOrphan     0x57f0           0xb4         180   
.rodata.set_trx_state       0x58a4           0xb4         180   
.text.floor                 0x5958           0xb4         180   
.text.__fmt_d               0x5a0c           0xb2         178   
.text.Dummy_Handler         0x5abe            0x2           2   
.text.MAC_SyncLoss          0x5ac0           0xb0         176   
.text.MAC_MLME_RxEnable     0x5b70           0xb0         176   
.text.prvSampleTimeNow      0x5c20           0xb0         176   
.text.MAC_SoftReset         0x5cd0           0xac         172   
.text                       0x5d7c           0xa8         168  App's exec code 
.text.CLOCK_Initialize      0x5e24           0xa4         164   
.text.switch_pll_on         0x5ec8           0xa0         160   
.text.bmm_buffer_init       0x5f68           0xa0         160   
.text.xQueueGenericSend     0x6008           0x9e         158   
.text.Dummy_App_Func        0x60a6            0x2           2   
.text.MAC_ProcessAssoci     0x60a8           0x9c         156   
.text.prvUnlockQueue        0x6144           0x98         152   
.text.MAC_ScanSendCompl     0x61dc           0x94         148   
.text.SERCOM0_USART_Rea     0x6270           0x94         148   
.rodata.dispatch_Table      0x6304           0x90         144   
.text.WPAN_MCPS_Datareq     0x6394           0x90         144   
.text.write_all_tal_pib     0x6424           0x90         144   
.text.xTaskPriorityInhe     0x64b4           0x90         144   
.text.handle_tx_end_irq     0x6544           0x8c         140   
.text                       0x65d0           0x8c         140  App's exec code 
.text.internal_tal_rese     0x665c           0x88         136   
.text.SERCOM0_USART_Ini     0x66e4           0x88         136   
.text.prvAddCurrentTask     0x676c           0x84         132   
.text.PAL_TimerStart        0x67f0           0x80         128   
.text.tal_generate_rand     0x6870           0x80         128   
.text.PHY_TaskHandler       0x68f0           0x80         128   
.text.WPAN_Tasks            0x6970           0x7c         124   
.text.handle_received_f     0x69ec           0x7c         124   
.text.EIC_Initialize        0x6a68           0x7c         124   
.text.xQueueGiveFromISR     0x6ae4           0x7a         122   
.text.__pad                 0x6b5e           0x7a         122   
.text.xTaskRemoveFromEv     0x6bd8           0x78         120   
.text.prvCopyDataToQueu     0x6c50           0x76         118   
.text.__cvt_u               0x6cc6           0x76         118   
.text.xTaskCheckForTime     0x6d3c           0x74         116   
.text.NVIC_Initialize       0x6db0           0x70         112   
.text.PORT_Initialize       0x6e20           0x70         112   
.text.SYS_CONSOLE_Initi     0x6e90           0x70         112   
.text.SYS_CONSOLE_Print     0x6f00           0x70         112   
.text.SYS_Tasks             0x6f70           0x70         112   
.text.__fmt_o               0x6fe0           0x6e         110   
.text.vPortSVCHandler       0x704e            0x2           2   
.text.MAC_ProcessCoordR     0x7050           0x6c         108   
.text.trx_config            0x70bc           0x6c         108   
.text.trx_reg_read          0x7128           0x6c         108   
.text.prvIdleTask           0x7194           0x6c         108   
.text.vTaskPriorityDisi     0x7200           0x6c         108   
.text.qmm_queue_remove      0x726c           0x6a         106   
.text.Timer_Callback        0x72d6            0x2           2   
.text.MAC_MLME_PollRequ     0x72d8           0x68         104   
.text.trx_reg_write         0x7340           0x68         104   
.text.__pop_ptr             0x73a8           0x68         104   
.text.MAC_ProcessDataRe     0x7410           0x64         100   
.text.MAC_RFDDemoInit       0x7474           0x64         100   
.text.xQueueGenericRese     0x74d8           0x62          98   
.text.USR_MLME_Disassoc     0x753a            0x2           2   
.text.MAC_Timer_Respons     0x753c           0x60          96   
.text.PHY_Reset             0x759c           0x60          96   
.text.trx_frame_write       0x75fc           0x60          96   
.text.trx_frame_read        0x765c           0x60          96   
.text.EIC_InterruptHand     0x76bc           0x60          96   
.text.SYS_TIME_RemoveFr     0x771c           0x60          96   
.text.SYS_TIME_TimerSta     0x777c           0x60          96   
.text.xTaskPriorityDisi     0x77dc           0x60          96   
.text.vsnprintf             0x783c           0x60          96   
.text.WPAN_MLME_Associa     0x789c           0x5c          92   
.text.MAC_MLME_ResetReq     0x78f8           0x5c          92   
.text.palTimerCallback      0x7954           0x5c          92   
.text.vTaskStartSchedul     0x79b0           0x5c          92   
.text.__libc_start_init     0x7a0c           0x5c          92   
.text.OSAL_SEM_Create       0x7a68           0x5a          90   
.text.USR_MLME_Disassoc     0x7ac2            0x2           2   
.text.MAC_Timer_RxOffCb     0x7ac4           0x58          88   
.text.MAC_MCPS_DataInd      0x7b1c           0x58          88   
.text.WPAN_MLME_SetReq      0x7b74           0x58          88   
.text.WPAN_MLME_PollReq     0x7bcc           0x58          88   
.text.PHY_RxEnable          0x7c24           0x58          88   
.text.SYS_TIME_TimerAdd     0x7c7c           0x58          88   
.text.vPortFree             0x7cd4           0x58          88   
.text.xTimerGenericComm     0x7d2c           0x58          88   
.text.MAC_PrepDisassocC     0x7d84           0x56          86   
.text.__fmt_u               0x7dda           0x56          86   
.text.MAC_TaskHandler       0x7e30           0x54          84   
.text.init_tal_pib          0x7e84           0x54          84   
.text.trx_irq_handler_c     0x7ed8           0x54          84   
.text.SERCOM0_USART_Int     0x7f2c           0x54          84   
.text.SYS_TIME_DelayUS      0x7f80           0x54          84   
.text.prvInsertBlockInt     0x7fd4           0x54          84   
.text.WPAN_MLME_ScanReq     0x8028           0x50          80   
.text.MAC_Init              0x8078           0x50          80   
.text.ScanCleanUp           0x80c8           0x50          80   
.text.ed_scan_done          0x8118           0x50          80   
.text.prvCheckForValidL     0x8168           0x50          80   
.text.vQueueWaitForMess     0x81b8           0x50          80   
.text.__fmt_s               0x8208           0x50          80   
.text.prvNotifyQueueSet     0x8258           0x4e          78   
.text.USR_MLME_RxEnable     0x82a6            0x2           2   
.text.MAC_Timer_Assocre     0x82a8           0x4c          76   
.text.PHY_RxFrameCallba     0x82f4           0x4c          76   
.text.convert_phyTransm     0x8340           0x4c          76   
.text.SERCOM0_USART_ISR     0x838c           0x4c          76   
.text.IRTx_Push_data_Ti     0x83d8           0x4c          76   
.text.push_data             0x8424           0x4c          76   
.text.__pic32c_data_ini     0x8470           0x4c          76   
.text                       0x84bc           0x48          72  App's exec code 
.text.PAL_GetRandomNumb     0x8504           0x48          72   
.text.Reset_Handler         0x854c           0x48          72   
.text.prvInsertTimerInA     0x8594           0x48          72   
.text.xTimerCreate          0x85dc           0x46          70   
.text.__dummy               0x8622            0x2           2   
.text.MAC_ProcessDisass     0x8624           0x44          68   
.text.PAL_Init              0x8668           0x44          68   
.text.PHY_TrxSleep          0x86ac           0x44          68   
.text.tx_done_handling      0x86f0           0x44          68   
.text.trx_ed_irq_handle     0x8734           0x44          68   
.text.process_incoming_     0x8778           0x44          68   
.text.Console_UART_Flus     0x87bc            0x4           4   
.text.xPortPendSVHandle     0x87c0           0x44          68   
.text.Handle_MACMessage     0x8804           0x44          68   
.text.USR_MCPS_DataInd      0x8848           0x44          68   
.text.__aeabi_dcmple        0x888c           0x44          68   
.text                       0x88d0           0x44          68  App's exec code 
.text.MAC_Gen_MLME_Disa     0x8914           0x40          64   
.text.MAC_TimersStop        0x8954           0x40          64   
.text.MAC_Timer_ScanDur     0x8994           0x40          64   
.text.TC3_TimerInitiali     0x89d4           0x40          64   
.text.Console_UART_Read     0x8a14           0x40          64   
.text.Console_UART_Writ     0x8a54           0x40          64   
.text.SYS_TIME_GetTimer     0x8a94           0x40          64   
.text.SYS_TIME_TimerDes     0x8ad4           0x40          64   
.text.APP_Tasks             0x8b14           0x40          64   
.text.atoi                  0x8b54           0x40          64   
.text                       0x8b94           0x40          64  App's exec code 
.text.__aeabi_dcmpgt        0x8bd4           0x3e          62   
.text.__aeabi_dcmplt        0x8c12           0x3e          62   
.rodata.PHY_TxDoneCallb     0x8c50           0x3c          60   
.text.WPAN_MLME_ResetRe     0x8c8c           0x3c          60   
.text.WPAN_MLME_GetReq      0x8cc8           0x3c          60   
.text.PHY_TxFrame           0x8d04           0x3c          60   
.text.SERCOM4_SPI_Initi     0x8d40           0x3c          60   
.text.SYS_INT_SourceDis     0x8d7c           0x3c          60   
.text.SYS_TIME_Resource     0x8db8           0x3c          60   
.text.SYS_TIME_CountToU     0x8df4           0x3c          60   
.text.xPortStartSchedul     0x8e30           0x3c          60   
.text.xTimerCreateTimer     0x8e6c           0x3c          60   
.text.USR_MLME_BeaconNo     0x8ea8           0x3c          60   
.text.USR_MLME_ScanConf     0x8ee4           0x3c          60   
.text                       0x8f20           0x3c          60  App's exec code 
.text.MAC_TimersInit        0x8f5c           0x38          56   
.text.bmm_buffer_alloc      0x8f94           0x38          56   
.text.Console_UART_Writ     0x8fcc           0x38          56   
.text.Console_UART_Writ     0x9004           0x38          56   
.text.Console_UART_Read     0x903c           0x38          56   
.text.Console_UART_Read     0x9074           0x38          56   
.text.SYS_TIME_UpdateTi     0x90ac           0x38          56   
.text.OSAL_QUEUE_SendIS     0x90e4           0x34          52   
.text.OSAL_SEM_PostISR      0x9118           0x34          52   
.text.SYS_CONSOLE_Messa     0x914c           0x34          52   
.text.vPortStartFirstTa     0x9180           0x34          52   
.text.Handle_SetConf        0x91b4           0x34          52   
.text.Handle_DataInd        0x91e8           0x34          52   
.text.__fmt_state           0x921c           0x34          52   
.text.__aeabi_d2iz          0x9250           0x34          52   
.text.MAC_IdleTrans         0x9284           0x32          50   
.text.xQueueGenericCrea     0x92b6           0x32          50   
.text.MAC_MLME_SetReque     0x92e8           0x30          48   
.text.SetPhyPibInternal     0x9318           0x30          48   
.text.MAC_GetPibAttribu     0x9348           0x30          48   
.text.MAC_Timer_PollWai     0x9378           0x30          48   
.text.bmm_buffer_free       0x93a8           0x30          48   
.text.SYS_TIME_Counter6     0x93d8           0x30          48   
.text.USR_MCPS_DataConf     0x9408           0x30          48   
.text.USR_MLME_Associat     0x9438           0x30          48   
.text.USR_MLME_GetConf      0x9468           0x30          48   
.text.vListInsert           0x9498           0x2e          46   
.text.__aeabi_dcmpeq        0x94c6           0x2e          46   
.text.__aeabi_d2uiz         0x94f4           0x2e          46   
.text.MAC_MLME_GetReque     0x9524           0x2c          44   
.text.MAC_MLME_BeaconNo     0x9550           0x2c          44   
.text.MAC_MLME_Disassoc     0x957c           0x2c          44   
.text.PAL_TimerStop         0x95a8           0x2c          44   
.rodata.sysConsoleUARTD     0x95d4           0x2c          44   
.text.prvResetNextTaskU     0x9600           0x2c          44   
.rodata.Handle_MACMessa     0x962c           0x2c          44   
.text.SYS_TIME_TimerPer     0x9658           0x2a          42   
.text.__pop_float           0x9682           0x2a          42   
.text.MAC_MLME_ScanConf     0x96ac           0x28          40   
.text.Gen_MLME_PollConf     0x96d4           0x28          40   
.text.PAL_TimerDelay        0x96fc           0x28          40   
.text.PHY_TrxWakeup         0x9724           0x28          40   
.text.PHY_PostTask          0x974c           0x28          40   
.text.TAL_PostTask          0x9774           0x28          40   
.text.qmm_queue_append      0x979c           0x28          40   
.text.qmm_queue_flush       0x97c4           0x28          40   
.text.EIC_CallbackRegis     0x97ec           0x28          40   
.text.SERCOM4_SPI_IsBus     0x9814           0x28          40   
.text.TC3_TimerInterrup     0x983c           0x28          40   
.text.SYS_TIME_Resource     0x9864           0x28          40   
.text.vPortSetupTimerIn     0x988c           0x28          40   
.text.vTaskPlaceOnEvent     0x98b4           0x28          40   
.rodata.prvTimerTask        0x98dc           0x28          40   
.text.print_stack_app_b     0x9904           0x28          40   
.text.xQueueAddToSet        0x992c           0x26          38   
.text.uxListRemove          0x9952           0x26          38   
.text.__string_out          0x9978           0x26          38   
.text.DispatchEvent         0x99a0           0x24          36   
.text.sendFrame             0x99c4           0x24          36   
.text.WPAN_Task             0x99e8           0x24          36   
.text.MAC_TrxInitSleep      0x9a0c           0x24          36   
.text.MAC_SleepTrans        0x9a30           0x24          36   
.rodata.MAC_ProcessPhyD     0x9a54           0x24          36   
.text.PAL_TimerIsRunnin     0x9a78           0x24          36   
.text.tal_trx_wakeup        0x9a9c           0x24          36   
.text.trx_reg_bit_write     0x9ac0           0x24          36   
.text.OSAL_QUEUE_Send       0x9ae4           0x24          36   
.text.OSAL_QUEUE_Receiv     0x9b08           0x24          36   
.text.OSAL_SEM_Pend         0x9b2c           0x24          36   
.text.OSAL_MUTEX_Lock       0x9b50           0x24          36   
.text.Console_UART_Init     0x9b74           0x24          36   
.text.SYS_TIME_USToCoun     0x9b98           0x24          36   
.rodata                     0x9bbc           0x24          36  Read-only const 
.text.xPortSysTickHandl     0x9be0           0x24          36   
.text.prvCopyDataFromQu     0x9c04           0x24          36   
.text.xQueueCreateMutex     0x9c28           0x24          36   
.text.LED_Toggle_Timer_     0x9c4c           0x24          36   
.text.Handle_ResetConf      0x9c70           0x24          36   
.text.MAC_GenMLMEAssoci     0x9c94           0x20          32   
.rodata.mac_PibSize         0x9cb4           0x20          32   
.text.MAC_TrxWakeup         0x9cd4           0x20          32   
.text.MAC_GenMCPSDataCo     0x9cf4           0x20          32   
.rodata.tx_done_handlin     0x9d14           0x20          32   
.text.TAL_Tasks             0x9d34           0x20          32   
.text.TC3_Timer16bitCou     0x9d54           0x20          32   
.text.SYS_TIME_TimerCre     0x9d74           0x20          32   
.text.pxPortInitialiseS     0x9d94           0x20          32   
.text.xTaskGetScheduler     0x9db4           0x20          32   
.text.USR_MLME_PollConf     0x9dd4           0x20          32   
.text.USR_MLME_ResetCon     0x9df4           0x20          32   
.text.USR_MLME_SetConf      0x9e14           0x20          32   
.rodata                     0x9e34           0x1e          30  Read-only const 
.text.__dinit_copy          0x9e52           0x1e          30   
.text.WPAN_PostTask         0x9e70           0x1c          28   
.text.GenRxEnableConf       0x9e8c           0x1c          28   
.text.PAL_TimerGetId        0x9ea8           0x1c          28   
.text.tal_get_trx_statu     0x9ec4           0x1c          28   
.text.SERCOM0_USART_Wri     0x9ee0           0x1c          28   
.text.SERCOM0_USART_Rea     0x9efc           0x1c          28   
.text.SYS_INT_SourceRes     0x9f18           0x1c          28   
.text.SYS_TIME_GetElaps     0x9f34           0x1c          28   
.rodata.sysTimePlibAPI      0x9f50           0x1c          28   
.text.vTaskPlaceOnEvent     0x9f6c           0x1c          28   
.text.pvTaskIncrementMu     0x9f88           0x1c          28   
.text.APP_Initialize        0x9fa4           0x1c          28   
.text.MAC_MLME_GetConf      0x9fc0           0x1a          26   
.text.OSAL_CRIT_Enter       0x9fda           0x1a          26   
.text.OSAL_MUTEX_Create     0x9ff4           0x1a          26   
.text.MAC_MCPS_DataConf     0xa00e           0x18          24   
.text.MAC_MLME_Disassoc     0xa026           0x18          24   
.text.trx_delay_micros      0xa03e           0x18          24   
.text.trx_irq_awake_han     0xa058           0x18          24   
.text.OSAL_QUEUE_Create     0xa070           0x18          24   
.text.OSAL_CRIT_Leave       0xa088           0x18          24   
.text.OSAL_SEM_Post         0xa0a0           0x18          24   
.text.OSAL_MUTEX_Unlock     0xa0b8           0x18          24   
.text.TC3_TimerStart        0xa0d0           0x18          24   
.text.TC3_TimerStop         0xa0e8           0x18          24   
.text.Console_UART_Reso     0xa100           0x18          24   
.text.SYS_TIME_DelayIsC     0xa118           0x18          24   
.rodata.sysConsole0UART     0xa130           0x18          24   
.text.vPortYield            0xa148           0x18          24   
.text.vPortEnterCritica     0xa160           0x18          24   
.text.vTaskInternalSetT     0xa178           0x18          24   
.text.rand                  0xa190           0x18          24   
.text.strlen                0xa1a8           0x18          24   
.text.vfprintf              0xa1c0           0x18          24   
.text                       0xa1d8           0x18          24  App's exec code 
.text                       0xa1f0           0x18          24  App's exec code 
.text                       0xa208           0x18          24  App's exec code 
.text.MAC_MLME_Associat     0xa220           0x16          22   
.text.MAC_MLME_SetConf      0xa236           0x16          22   
.text.OSAL_QUEUE_Select     0xa24c           0x16          22   
.text.xQueueSelectFromS     0xa262           0x16          22   
.text.vListInitialise       0xa278           0x16          22   
.text.vListInsertEnd        0xa28e           0x16          22   
.text.MAC_MLME_PollConf     0xa2a4           0x14          20   
.text.MAC_MLME_ResetCon     0xa2b8           0x14          20   
.text.MAC_MLME_RxEnable     0xa2cc           0x14          20   
.text.WPAN_Init             0xa2e0           0x14          20   
.text.OSAL_QUEUE_Create     0xa2f4           0x14          20   
.text.OSAL_QUEUE_AddToS     0xa308           0x14          20   
.text.NVIC_INT_Restore      0xa31c           0x14          20   
.text.SERCOM0_USART_Rea     0xa330           0x14          20   
.text.SERCOM0_USART_Wri     0xa344           0x14          20   
.text.TC3_Timer16bitPer     0xa358           0x14          20   
.text.TC3_Timer16bitCom     0xa36c           0x14          20   
.text.Console_UART_Stat     0xa380           0x14          20   
.text.vPortExitCritical     0xa394           0x14          20   
.text.prvIsQueueEmpty       0xa3a8           0x14          20   
.text.xQueueCreateCount     0xa3bc           0x14          20   
.rodata                     0xa3d0           0x14          20  Read-only const 
.text.memcpy                0xa3e4           0x14          20   
.text.memset                0xa3f8           0x14          20   
.text.stpcpy                0xa40c           0x14          20   
.text.MAC_MLME_SyncLoss     0xa420           0x12          18   
.text.trx_reg_bit_read      0xa432           0x12          18   
.text.OSAL_QUEUE_IsFull     0xa444           0x12          18   
.text.OSAL_SEM_GetCount     0xa456           0x12          18   
.text.NVIC_INT_Disable      0xa468           0x12          18   
.text.prvTaskExitError      0xa47a           0x12          18   
.text.uxQueueMessagesWa     0xa48c           0x12          18   
.text.__dinit_clear         0xa49e           0x12          18   
.rodata.tx_pwr_table        0xa4b0           0x10          16   
.text.EIC_InterruptEnab     0xa4c0           0x10          16   
.text.EIC_InterruptDisa     0xa4d0           0x10          16   
.text.SERCOM4_SPI_Read      0xa4e0           0x10          16   
.text.vTaskSuspendAll       0xa4f0           0x10          16   
.text.Handle_PollConf       0xa500           0x10          16   
.rodata                     0xa510           0x10          16  Read-only const 
.rodata                     0xa520           0x10          16  Read-only const 
.text.fma                   0xa530           0x10          16   
.text.__aeabi_dsub          0xa540           0x10          16   
.text.main                  0xa550            0xe          14   
.text.tolower               0xa55e            0xe          14   
.text.toupper               0xa56c            0xe          14   
.text.PAL_GetCurrentTim     0xa57a            0xc          12   
.text.qmm_queue_init        0xa586            0xc          12   
.text.NVMCTRL_Initializ     0xa594            0xc          12   
.text.SERCOM4_SPI_Write     0xa5a0            0xc          12   
.text.TC3_TimerCallback     0xa5ac            0xc          12   
.rodata.sysConsole0Init     0xa5b8            0xc          12   
.text.xTaskGetTickCount     0xa5c4            0xc          12   
.text.vTaskMissedYield      0xa5d0            0xc          12   
.text.xQueueIsQueueFull     0xa5dc            0xc          12   
.text.xQueueCreateSet       0xa5e8            0xc          12   
.text.srand                 0xa5f4            0xc          12   
.text.strcpy                0xa600            0xc          12   
.text.EIC_interrupt_cb      0xa60c            0xa          10   
.rodata.phy_PibSize         0xa618            0x8           8   
.text.TAL_TaskHandler       0xa620            0x8           8   
.text.OSAL_Malloc           0xa628            0x8           8   
.text.OSAL_Free             0xa630            0x8           8   
.text.SERCOM0_USART_Wri     0xa638            0x8           8   
.text.TC3_TimerFrequenc     0xa640            0x8           8   
.text.SYS_INT_Disable       0xa648            0x8           8   
.text.SYS_INT_Restore       0xa650            0x8           8   
.text.SYS_TIME_CounterG     0xa658            0x8           8   
.rodata.sysTimeInitData     0xa660            0x8           8   
.text.lAPP_Tasks            0xa668            0x8           8   
.text._TAL_Tasks            0xa670            0x8           8   
.text._WPAN_Tasks           0xa678            0x8           8   
.text.ulSetInterruptMas     0xa680            0x8           8   
.rodata                     0xa688            0x8           8  Read-only const 
.rodata                     0xa690            0x8           8  Read-only const 
.rodata                     0xa698            0x7           7  Read-only const 
.text.trx_delay_loop        0xa6a0            0x6           6   
.text.vClearInterruptMa     0xa6a6            0x6           6   
.text.vListInitialiseIt     0xa6ac            0x6           6   
.text.NonMaskableInt_Ha     0xa6b2            0x4           4   
.text.HardFault_Handler     0xa6b6            0x4           4   
.text.vApplicationStack     0xa6ba            0x4           4   
.text.vApplicationMallo     0xa6be            0x4           4   
.rodata.sysConsole0UART     0xa6c4            0x4           4   
.text.__dummy_decompres     0xa6c8            0x4           4   
.text                       0xa6cc            0x4           4  App's exec code 
      Total ROM used  :      0xa6c3       42691  16.3% of 0x40000
        --------------------------------------------------------------------------
         Total Program Memory used  :      0xa6c3       42691  16.3% of 0x40000
        --------------------------------------------------------------------------


RAM Data-Memory Usage
section                    address  length [bytes]      (dec)  Description
-------                 ----------  -------------------------  -----------
.bss.ucHeap             0x20000000         0x2f40       12096   
.bss.buf_pool           0x20002f40          0xf3c        3900   
.bss.buf_header         0x20003e7c           0xc8         200   
.bss.consolePrintBuffer 0x20003f44           0xc8         200   
.bss.eicCallbackObject  0x2000400c           0xc0         192   
.bss.timers             0x200040cc           0xa0         160   
.bss.SERCOM0_USART_Read 0x2000416c           0x80         128   
.bss.SERCOM0_USART_Writ 0x200041ec           0x80         128   
.bss.msdu_payload       0x2000426c           0x68         104   
.bss.pxReadyTasksLists  0x200042d4           0x64         100   
.bss.palTimers          0x20004338           0x50          80   
.bss                    0x20004388           0x50          80  Uninitialized data 
.bss.osalAPIList        0x200043d8           0x44          68   
.bss.semMacInternalHand 0x2000441c            0x4           4   
.bss.macParseData       0x20004420           0x40          64   
.bss.sercom0USARTObj    0x20004460           0x40          64   
.bss.gSystemCounterObj  0x200044a0           0x40          64   
.bss.sercom4SPIObj      0x200044e0           0x2c          44   
.bss.tal_pib            0x2000450c           0x1d          29   
.bss.trx_pib_wakeup.837 0x20004529            0x1           1   
.bss.macBusy            0x2000452a            0x1           1   
.bss.macLastDsn         0x2000452b            0x1           1   
.bss                    0x2000452c           0x1c          28  Uninitialized data 
.bss.phy_info           0x20004548           0x1c          28   
.bss.xActivatedMember   0x20004564            0x4           4   
.bss.macPib             0x20004568           0x18          24   
.bss.xDelayedTaskList1  0x20004580           0x14          20   
.bss.xDelayedTaskList2  0x20004594           0x14          20   
.bss.xPendingReadyList  0x200045a8           0x14          20   
.bss.xSuspendedTaskList 0x200045bc           0x14          20   
.bss.xTasksWaitingTermi 0x200045d0           0x14          20   
.bss.xActiveTimerList1  0x200045e4           0x14          20   
.bss.xActiveTimerList2  0x200045f8           0x14          20   
.bss.xQueueSet          0x2000460c            0x4           4   
.bss.coordAddrSpec      0x20004610           0x10          16   
.bss.MAC_SyncLossBuffer 0x20004620            0xe          14   
.bss.macScanOrigPanid   0x2000462e            0x2           2   
.bss.nhleMacQueue       0x20004630            0xc          12   
.bss.phyMacQueue        0x2000463c            0xc          12   
.bss.macNhleQueue       0x20004648            0xc          12   
.bss.tal_incoming_frame 0x20004654            0xc          12   
.bss.free_large_buffer_ 0x20004660            0xc          12   
.bss.free_small_buffer_ 0x2000466c            0xc          12   
.bss.consoleDeviceInsta 0x20004678            0xc          12   
.bss.gConsoleUartData   0x20004684            0xc          12   
.bss.macLastSrcAddr     0x20004690            0x8           8   
.bss.phyTxFrameInfo     0x20004698            0x8           8   
.bss.TC3_CallbackObject 0x200046a0            0x8           8   
.bss.sysObj             0x200046a8            0x8           8   
.bss.xStart             0x200046b0            0x8           8   
.bss.appData            0x200046b8            0x8           8   
.bss.macConfBufPtr      0x200046c0            0x4           4   
.bss.macFrameInfo       0x200046c4            0x4           4   
.bss.macScanCmdBufPtr   0x200046c8            0x4           4   
.bss.scanChannels       0x200046cc            0x4           4   
.bss.mac_frame_ptr      0x200046d0            0x4           4   
.bss.tal_frame_to_tx    0x200046d4            0x4           4   
.bss.tal_rx_buffer      0x200046d8            0x4           4   
.bss.sampler_counter    0x200046dc            0x4           4   
.bss.consolePrintBuffer 0x200046e0            0x4           4   
.bss.semPhyInternalHand 0x200046e4            0x4           4   
.bss.semTalInternalHand 0x200046e8            0x4           4   
.bss.xAPP_Tasks         0x200046ec            0x4           4   
.bss.xTAL_Tasks         0x200046f0            0x4           4   
.bss.xWPAN_Tasks        0x200046f4            0x4           4   
.bss.pxEnd              0x200046f8            0x4           4   
.bss.xBlockAllocatedBit 0x200046fc            0x4           4   
.bss.xFreeBytesRemainin 0x20004700            0x4           4   
.bss.xMinimumEverFreeBy 0x20004704            0x4           4   
.bss.xNumberOfSuccessfu 0x20004708            0x4           4   
.bss.xNumberOfSuccessfu 0x2000470c            0x4           4   
.bss.pxCurrentTCB       0x20004710            0x4           4   
.bss.pxDelayedTaskList  0x20004714            0x4           4   
.bss.pxOverflowDelayedT 0x20004718            0x4           4   
.bss.uxCurrentNumberOfT 0x2000471c            0x4           4   
.bss.uxDeletedTasksWait 0x20004720            0x4           4   
.bss.uxSchedulerSuspend 0x20004724            0x4           4   
.bss.uxTaskNumber       0x20004728            0x4           4   
.bss.uxTopReadyPriority 0x2000472c            0x4           4   
.bss.xIdleTaskHandle    0x20004730            0x4           4   
.bss.xNextTaskUnblockTi 0x20004734            0x4           4   
.bss.xNumOfOverflows    0x20004738            0x4           4   
.bss.xPendedTicks       0x2000473c            0x4           4   
.bss.xSchedulerRunning  0x20004740            0x4           4   
.bss.xTickCount         0x20004744            0x4           4   
.bss.xYieldPending      0x20004748            0x4           4   
.bss.pxCurrentTimerList 0x2000474c            0x4           4   
.bss.pxOverflowTimerLis 0x20004750            0x4           4   
.bss.xLastTime.5144     0x20004754            0x4           4   
.bss.xTimerQueue        0x20004758            0x4           4   
.bss.xTimerTaskHandle   0x2000475c            0x4           4   
.bss.IRTx_Push_data_Tim 0x20004760            0x4           4   
.bss.LED_Toggle_Timer_H 0x20004764            0x4           4   
.bss.Timer_Handle       0x20004768            0x4           4   
.bss.rx_cnt.8662        0x2000476c            0x4           4   
.bss                    0x20004770            0x4           4  Uninitialized data 
.bss                    0x20004774            0x4           4  Uninitialized data 
.bss                    0x20004778            0x4           4  Uninitialized data 
.bss                    0x2000477c            0x4           4  Uninitialized data 
.bss.macPollState       0x20004780            0x1           1   
.bss.macRadioSleepState 0x20004781            0x1           1   
.bss.macRxEnabled       0x20004782            0x1           1   
.bss.macScanOrigChannel 0x20004783            0x1           1   
.bss.macScanOrigPage    0x20004784            0x1           1   
.bss.macScanState       0x20004785            0x1           1   
.bss.macState           0x20004786            0x1           1   
.bss.macSyncState       0x20004787            0x1           1   
.bss.Timer_PollWaitTime 0x20004788            0x1           1   
.bss.Timer_RxEnable     0x20004789            0x1           1   
.bss.Timer_ScanDuration 0x2000478a            0x1           1   
.bss.scanCurrChannel    0x2000478b            0x1           1   
.bss.scanCurrPage       0x2000478c            0x1           1   
.bss.scanDuration       0x2000478d            0x1           1   
.bss.scanType           0x2000478e            0x1           1   
.bss.numOfTimers        0x2000478f            0x1           1   
.bss.palTimerInitialize 0x20004790            0x1           1   
.bss.TAL_RETRY_TIMER    0x20004791            0x1           1   
.bss.tal_sw_retry_count 0x20004792            0x1           1   
.bss.tal_sw_retry_no_cs 0x20004793            0x1           1   
.bss.trx_trac_status    0x20004794            0x1           1   
.bss.max_ed_level       0x20004795            0x1           1   
.bss.isLastByteTransfer 0x20004796            0x1           1   
.bss.isConsoleMutexCrea 0x20004797            0x1           1   
.bss.curr_msdu_handle   0x20004798            0x1           1   
.bss.current_channel    0x20004799            0x1           1   
.bss.current_channel_pa 0x2000479a            0x1           1   
.bss.device_state       0x2000479b            0x1           1   
.bss.msdu_handle.8661   0x2000479c            0x1           1   
.data.gSysTimeTokenCoun 0x2000479e            0x2           2   
.data.uxCriticalNesting 0x200047a0            0x4           4   
         Total RAM used  :      0x47a3       18339  56.0% of 0x8000
        --------------------------------------------------------------------------
            Total Data Memory used  :      0x47a3       18339  56.0% of 0x8000
        --------------------------------------------------------------------------


Dynamic Data-Memory Reservation
section                    address  length [bytes]      (dec)  Description
-------                 ----------  -------------------------  -----------
heap                    0x200047a8          0x200         512  Reserved for heap 
stack                   0x200049c0         0x3630       13872  Reserved for stack 

        --------------------------------------------------------------------------

Microchip PIC32 Memory-Usage Report By Module

        text        data         bss         dec         hex    basename                              filename
--------------------------------------------------------------------------------
         468           0       12128       12596        3134    heap_4.o                          build/default/debug/_ext/1665200909/heap_4.o
         264           0        4124        4388        1124    bmm.o                             build/default/debug/_ext/1374435801/bmm.o
        2368           0         260        2628         a44    FreeRTOS_tasks.o                  build/default/debug/_ext/404212886/FreeRTOS_tasks.o
        1954           2         224        2180         884    sys_time.o                        build/default/debug/_ext/101884895/sys_time.o
        2080           0           1        2081         821    mac_pib.o                         build/default/debug/_ext/1655452824/mac_pib.o
        1866           0         141        2007         7d7    demo_app_rfd.o                    build/default/debug/_ext/85617168/demo_app_rfd.o
        1940           0           0        1940         794    queue.o                           build/default/debug/_ext/404212886/queue.o
        1820           0           8        1828         724    mac_scan.o                        build/default/debug/_ext/1655452824/mac_scan.o
        1268           0         320        1588         634    plib_sercom0_usart.o              build/default/debug/_ext/504274921/plib_sercom0_usart.o
        1228           0           0        1228         4cc    __fmt_fp.o                        libg-musl.a
        1212           0           0        1212         4bc    mac_data_ind.o                    build/default/debug/_ext/1655452824/mac_data_ind.o
        1176           0           0        1176         498    __fmt_a.o                         libg-musl.a
        1132           0           0        1132         46c    phy_pib.o                         build/default/debug/_ext/559172130/phy_pib.o
        1026           0          81        1107         453    phy.o                             build/default/debug/_ext/559172130/phy.o
        1074           0           0        1074         432    __printf_core.o                   libg-musl.a
        1006           0          60        1066         42a    timers.o                          build/default/debug/_ext/404212886/timers.o
        1012           0           0        1012         3f4    mac_mcps_data.o                   build/default/debug/_ext/1655452824/mac_mcps_data.o
         960           0           0         960         3c0    data_init                         data_init
         844           0          45         889         379    plib_sercom4_spi_master.o         build/default/debug/_ext/17022449/plib_sercom4_spi_master.o
         816           0           1         817         331    phy_init.o                        build/default/debug/_ext/559172130/phy_init.o
         756           0           0         756         2f4    mac_associate.o                   build/default/debug/_ext/1655452824/mac_associate.o
         668           0          12         680         2a8    mac_api.o                         build/default/debug/_ext/1655452824/mac_api.o
         618           0           3         621         26d    mac_misc.o                        build/default/debug/_ext/1655452824/mac_misc.o
         520           0          82         602         25a    pal.o                             build/default/debug/_ext/745501718/pal.o
         560           0           0         560         230    mac_data_req.o                    build/default/debug/_ext/1655452824/mac_data_req.o
         530           0           0         530         212    mac_disassociate.o                build/default/debug/_ext/1655452824/mac_disassociate.o
         516           0           3         519         207    phy_tx.o                          build/default/debug/_ext/559172130/phy_tx.o
         482           0          12         494         1ee    sys_console_uart.o                build/default/debug/_ext/1832805299/sys_console_uart.o
         276           0         217         493         1ed    sys_console.o                     build/default/debug/_ext/1832805299/sys_console.o
         488           0           0         488         1e8    mac_process_phy_tx_frame_status.o build/default/debug/_ext/1655452824/mac_process_phy_tx_frame_status.o
         292           0         192         484         1e4    plib_eic.o                        build/default/debug/_ext/60167341/plib_eic.o
         460           0           0         460         1cc    mac_process_beacon_frame.o        build/default/debug/_ext/1655452824/mac_process_beacon_frame.o
         458           0           0         458         1ca    phy_trx_reg_access.o              build/default/debug/_ext/559172130/phy_trx_reg_access.o
         456           0           0         456         1c8    __aeabi_dadd.o                    libm-fast-emfloat.a
         356           0          84         440         1b8    initialization.o                  build/default/debug/_ext/1171490990/initialization.o
         434           0           0         434         1b2    usr_mac_callbacks.o               build/default/debug/_ext/85617168/usr_mac_callbacks.o
         412           0           0         412         19c    mac_callback_wrapper.o            build/default/debug/_ext/1655452824/mac_callback_wrapper.o
         394           0           0         394         18a    __aeabi_dmul_aux.o                libm-fast-emfloat.a
         390           4           0         394         18a    port.o                            build/default/debug/_ext/1624415188/port.o
         372           0           0         372         174    osal_freertos.o                   build/default/debug/_ext/1529399856/osal_freertos.o
         306           0           0         306         132    __fmt_x.o                         libg-musl.a
         284           0          14         298         12a    mac_sync.o                        build/default/debug/_ext/1655452824/mac_sync.o
         292           0           0         292         124    mac_rx_enable.o                   build/default/debug/_ext/1655452824/mac_rx_enable.o
         292           0           0         292         124    mac_poll.o                        build/default/debug/_ext/1655452824/mac_poll.o
         120           0         152         272         110    mac.o                             build/default/debug/_ext/1655452824/mac.o
         244           0           8         252          fc    plib_tc3.o                        build/default/debug/_ext/829342655/plib_tc3.o
         236           0           0         236          ec    mac_data_extract_mhr.o            build/default/debug/_ext/1655452824/mac_data_extract_mhr.o
         234           0           0         234          ea    _udivmoddi4.o                     libgcc.a
         228           0           0         228          e4    osal_freertos_extend.o            build/default/debug/_ext/1529399856/osal_freertos_extend.o
         198           0           0         198          c6    qmm.o                             build/default/debug/_ext/874725666/qmm.o
         196           0           0         196          c4    __aeabi_ddiv.o                    libm-fast-emfloat.a
         192           0           0         192          c0    phy_rx.o                          build/default/debug/_ext/559172130/phy_rx.o
         190           0           0         190          be    __pop_int.o                       libg-musl.a
         172           0          12         184          b8    tasks.o                           build/default/debug/_ext/1171490990/tasks.o
         180           0           0         180          b4    mac_dispatcher.o                  build/default/debug/_ext/1655452824/mac_dispatcher.o
         180           0           0         180          b4    floor.o                           libm-fast-emfloat.a
         178           0           0         178          b2    __fmt_d.o                         libg-musl.a
         174           0           0         174          ae    interrupts.o                      build/default/debug/_ext/1171490990/interrupts.o
         168           0           0         168          a8    _divsi3.o                         libgcc.a
         164           0           0         164          a4    plib_clock.o                      build/default/debug/_ext/1984496892/plib_clock.o
         152           0          12         164          a4    mac_task.o                        build/default/debug/_ext/1655452824/mac_task.o
         148           0           5         153          99    phy_ed.o                          build/default/debug/_ext/559172130/phy_ed.o
         150           0           0         150          96    plib_nvic.o                       build/default/debug/_ext/1865468468/plib_nvic.o
         144           0           0         144          90    phy_pwr_mgmt.o                    build/default/debug/_ext/559172130/phy_pwr_mgmt.o
         140           0           0         140          8c    _udivsi3.o                        libgcc.a
         134           0           0         134          86    list.o                            build/default/debug/_ext/404212886/list.o
         118           0           0         118          76    __cvt_u.o                         libg-musl.a
         118           0           0         118          76    phy_irq_handler.o                 build/default/debug/_ext/559172130/phy_irq_handler.o
         112           0           0         112          70    plib_port.o                       build/default/debug/_ext/1865521619/plib_port.o
         112           0           0         112          70    phy_task.o                        build/default/debug/_ext/957911548/phy_task.o
         110           0           0         110          6e    __fmt_o.o                         libg-musl.a
          80           0          28         108          6c    crtbegin.o                        c:/program files/microchip/xc32/v4.35/bin/bin/../../lib/gcc/pic32c/8.3.1/thumb/v6-m/nofp/crtbegin.o
         104           0           0         104          68    sys_int.o                         build/default/debug/_ext/1881668453/sys_int.o
         100           0           4         104          68    data_init.o                       libpic32c.a
         104           0           0         104          68    __pop_ptr.o                       libg-musl.a
          92           0           8         100          64    app.o                             build/default/debug/_ext/1360937237/app.o
          96           0           0          96          60    vsnprintf.o                       libg-musl.a
          94           0           0          94          5e    __libc_start_main.o               libg-musl.a
          88           0           0          88          58    phy_rx_enable.o                   build/default/debug/_ext/559172130/phy_rx_enable.o
          87           0           0          87          57    __fmt_s.o                         libg-musl.a
          86           0           0          86          56    __fmt_u.o                         libg-musl.a
           0           0          80          80          50    libc.o                            libg-musl.a
          74           0           0          74          4a    startup_xc32.o                    build/default/debug/_ext/1171490990/startup_xc32.o
          68           0           0          68          44    __aeabi_dcmple.o                  libm-fast-emfloat.a
          68           0           0          68          44    _muldi3.o                         libgcc.a
          64           0           0          64          40    _aeabi_uldivmod.o                 libgcc.a
          64           0           0          64          40    atoi.o                            libg-musl.a
          62           0           0          62          3e    __aeabi_dcmpgt.o                  libm-fast-emfloat.a
          62           0           0          62          3e    __aeabi_dcmplt.o                  libm-fast-emfloat.a
          60           0           0          60          3c    _clzsi2.o                         libgcc.a
          52           0           0          52          34    __aeabi_d2iz.o                    libm-fast-emfloat.a
          46           0           0          46          2e    __aeabi_dcmpeq.o                  libm-fast-emfloat.a
          46           0           0          46          2e    __aeabi_d2uiz.o                   libm-fast-emfloat.a
          42           0           0          42          2a    __pop_float.o                     libg-musl.a
          36           0           4          40          28    rand.o                            libg-musl.a
          30           0           0          30          1e    pic32_data_init_copy.o            libpic32c.a
          28           0           0          28          1c    phy_helper.o                      build/default/debug/_ext/559172130/phy_helper.o
          24           0           0          24          18    _ashldi3.o                        libgcc.a
          24           0           0          24          18    _lshrdi3.o                        libgcc.a
          24           0           0          24          18    strlen.o                          libg-musl.a
          24           0           0          24          18    vfprintf.o                        libg-musl.a
          24           0           0          24          18    _clzdi2.o                         libgcc.a
          20           0           0          20          14    memset.o                          libg-musl.a
          20           0           0          20          14    memcpy.o                          libg-musl.a
          20           0           0          20          14    stpcpy.o                          libg-musl.a
          18           0           0          18          12    pic32_data_init_clear.o           libpic32c.a
          16           0           0          16          10    crtn.o                            c:/program files/microchip/xc32/v4.35/bin/bin/../../lib/gcc/pic32c/8.3.1/thumb/v6-m/nofp/crtn.o
          16           0           0          16          10    fma.o                             libm-fast-emfloat.a
          16           0           0          16          10    __aeabi_dsub.o                    libm-fast-emfloat.a
          14           0           0          14           e    toupper.o                         libg-musl.a
          14           0           0          14           e    tolower.o                         libg-musl.a
          14           0           0          14           e    main.o                            build/default/debug/_ext/1360937237/main.o
          12           0           0          12           c    strcpy.o                          libg-musl.a
          12           0           0          12           c    freertos_hooks.o                  build/default/debug/_ext/1171490990/freertos_hooks.o
          12           0           0          12           c    plib_nvmctrl.o                    build/default/debug/_ext/1593096446/plib_nvmctrl.o
           8           0           0           8           8    crti.o                            c:/program files/microchip/xc32/v4.35/bin/bin/../../lib/gcc/pic32c/8.3.1/thumb/v6-m/nofp/crti.o
           8           0           0           8           8    exceptions.o                      build/default/debug/_ext/1171490990/exceptions.o
           0           0           4           4           4    __errno_location.o                libg-musl.a
           0           0           4           4           4    __environ.o                       libg-musl.a
           4           0           0           4           4    _dvmd_tls.o                       libgcc.a
           2           0           0           2           2    usr_mlme_sync_loss_ind.o          build/default/debug/_ext/1655452824/usr_mlme_sync_loss_ind.o
           2           0           0           2           2    phy_ed_end_cb.o                   build/default/debug/_ext/957911548/phy_ed_end_cb.o
--------------------------------------------------------------------------------
       42699           6       18333       61038        ee6e    dist/default/debug/Project.X.debug.elf


Discarded input sections

 .text          0x00000000        0x0 c:/program files/microchip/xc32/v4.35/bin/bin/../../lib/gcc/pic32c/8.3.1/thumb/v6-m/nofp/crti.o
 .data          0x00000000        0x0 c:/program files/microchip/xc32/v4.35/bin/bin/../../lib/gcc/pic32c/8.3.1/thumb/v6-m/nofp/crti.o
 .bss           0x00000000        0x0 c:/program files/microchip/xc32/v4.35/bin/bin/../../lib/gcc/pic32c/8.3.1/thumb/v6-m/nofp/crti.o
 .xc_stack_usage.hdr
                0x00000000        0xe c:/program files/microchip/xc32/v4.35/bin/bin/../../lib/gcc/pic32c/8.3.1/thumb/v6-m/nofp/crti.o
 .xc_stack_usage
                0x00000000       0x26 c:/program files/microchip/xc32/v4.35/bin/bin/../../lib/gcc/pic32c/8.3.1/thumb/v6-m/nofp/crti.o
 .data          0x00000000        0x4 c:/program files/microchip/xc32/v4.35/bin/bin/../../lib/gcc/pic32c/8.3.1/thumb/v6-m/nofp/crtbegin.o
 .xc_stack_usage
                0x00000000       0x3c c:/program files/microchip/xc32/v4.35/bin/bin/../../lib/gcc/pic32c/8.3.1/thumb/v6-m/nofp/crtbegin.o
 .xc_stack_usage.hdr
                0x00000000        0xe c:/program files/microchip/xc32/v4.35/bin/bin/../../lib/gcc/pic32c/8.3.1/thumb/v6-m/nofp/crtbegin.o
 .text          0x00000000        0x0 build/default/debug/_ext/1655452824/mac_task.o
 .data          0x00000000        0x0 build/default/debug/_ext/1655452824/mac_task.o
 .bss           0x00000000        0x0 build/default/debug/_ext/1655452824/mac_task.o
 .text          0x00000000        0x0 build/default/debug/_ext/1655452824/mac_process_beacon_frame.o
 .data          0x00000000        0x0 build/default/debug/_ext/1655452824/mac_process_beacon_frame.o
 .bss           0x00000000        0x0 build/default/debug/_ext/1655452824/mac_process_beacon_frame.o
 .text          0x00000000        0x0 build/default/debug/_ext/1655452824/usr_mcps_purge_conf.o
 .data          0x00000000        0x0 build/default/debug/_ext/1655452824/usr_mcps_purge_conf.o
 .bss           0x00000000        0x0 build/default/debug/_ext/1655452824/usr_mcps_purge_conf.o
 .debug_info    0x00000000      0x2e9 build/default/debug/_ext/1655452824/usr_mcps_purge_conf.o
 .debug_abbrev  0x00000000       0x1b build/default/debug/_ext/1655452824/usr_mcps_purge_conf.o
 .debug_aranges
                0x00000000       0x18 build/default/debug/_ext/1655452824/usr_mcps_purge_conf.o
 .debug_line    0x00000000       0x1d build/default/debug/_ext/1655452824/usr_mcps_purge_conf.o
 .debug_str     0x00000000        0x0 build/default/debug/_ext/1655452824/usr_mcps_purge_conf.o
 .comment       0x00000000       0x2c build/default/debug/_ext/1655452824/usr_mcps_purge_conf.o
 .ARM.attributes
                0x00000000       0x32 build/default/debug/_ext/1655452824/usr_mcps_purge_conf.o
 .text          0x00000000        0x0 build/default/debug/_ext/1655452824/mac_sync.o
 .data          0x00000000        0x0 build/default/debug/_ext/1655452824/mac_sync.o
 .bss           0x00000000        0x0 build/default/debug/_ext/1655452824/mac_sync.o
 .text          0x00000000        0x0 build/default/debug/_ext/1655452824/mac_data_req.o
 .data          0x00000000        0x0 build/default/debug/_ext/1655452824/mac_data_req.o
 .bss           0x00000000        0x0 build/default/debug/_ext/1655452824/mac_data_req.o
 .text          0x00000000        0x0 build/default/debug/_ext/1655452824/usr_mlme_get_conf.o
 .data          0x00000000        0x0 build/default/debug/_ext/1655452824/usr_mlme_get_conf.o
 .bss           0x00000000        0x0 build/default/debug/_ext/1655452824/usr_mlme_get_conf.o
 .text.USR_MLME_GetConf
                0x00000000        0x2 build/default/debug/_ext/1655452824/usr_mlme_get_conf.o
 .debug_info    0x00000000      0x379 build/default/debug/_ext/1655452824/usr_mlme_get_conf.o
 .debug_abbrev  0x00000000       0x76 build/default/debug/_ext/1655452824/usr_mlme_get_conf.o
 .debug_loc     0x00000000       0x4a build/default/debug/_ext/1655452824/usr_mlme_get_conf.o
 .debug_aranges
                0x00000000       0x20 build/default/debug/_ext/1655452824/usr_mlme_get_conf.o
 .debug_ranges  0x00000000       0x10 build/default/debug/_ext/1655452824/usr_mlme_get_conf.o
 .debug_line    0x00000000       0xd0 build/default/debug/_ext/1655452824/usr_mlme_get_conf.o
 .debug_str     0x00000000        0x0 build/default/debug/_ext/1655452824/usr_mlme_get_conf.o
 .comment       0x00000000       0x2c build/default/debug/_ext/1655452824/usr_mlme_get_conf.o
 .debug_frame   0x00000000       0x20 build/default/debug/_ext/1655452824/usr_mlme_get_conf.o
 .ARM.attributes
                0x00000000       0x2c build/default/debug/_ext/1655452824/usr_mlme_get_conf.o
 .text          0x00000000        0x0 build/default/debug/_ext/1655452824/usr_mlme_set_conf.o
 .data          0x00000000        0x0 build/default/debug/_ext/1655452824/usr_mlme_set_conf.o
 .bss           0x00000000        0x0 build/default/debug/_ext/1655452824/usr_mlme_set_conf.o
 .text.USR_MLME_SetConf
                0x00000000        0x2 build/default/debug/_ext/1655452824/usr_mlme_set_conf.o
 .debug_info    0x00000000      0x35b build/default/debug/_ext/1655452824/usr_mlme_set_conf.o
 .debug_abbrev  0x00000000       0x5e build/default/debug/_ext/1655452824/usr_mlme_set_conf.o
 .debug_loc     0x00000000       0x4a build/default/debug/_ext/1655452824/usr_mlme_set_conf.o
 .debug_aranges
                0x00000000       0x20 build/default/debug/_ext/1655452824/usr_mlme_set_conf.o
 .debug_ranges  0x00000000       0x10 build/default/debug/_ext/1655452824/usr_mlme_set_conf.o
 .debug_line    0x00000000       0xcf build/default/debug/_ext/1655452824/usr_mlme_set_conf.o
 .debug_str     0x00000000        0x0 build/default/debug/_ext/1655452824/usr_mlme_set_conf.o
 .comment       0x00000000       0x2c build/default/debug/_ext/1655452824/usr_mlme_set_conf.o
 .debug_frame   0x00000000       0x20 build/default/debug/_ext/1655452824/usr_mlme_set_conf.o
 .ARM.attributes
                0x00000000       0x2c build/default/debug/_ext/1655452824/usr_mlme_set_conf.o
 .text          0x00000000        0x0 build/default/debug/_ext/1655452824/mac_dispatcher.o
 .data          0x00000000        0x0 build/default/debug/_ext/1655452824/mac_dispatcher.o
 .bss           0x00000000        0x0 build/default/debug/_ext/1655452824/mac_dispatcher.o
 .text          0x00000000        0x0 build/default/debug/_ext/1655452824/mac_security.o
 .data          0x00000000        0x0 build/default/debug/_ext/1655452824/mac_security.o
 .bss           0x00000000        0x0 build/default/debug/_ext/1655452824/mac_security.o
 .debug_line    0x00000000        0x0 build/default/debug/_ext/1655452824/mac_security.o
 .debug_str     0x00000000        0x0 build/default/debug/_ext/1655452824/mac_security.o
 .comment       0x00000000       0x2c build/default/debug/_ext/1655452824/mac_security.o
 .ARM.attributes
                0x00000000       0x32 build/default/debug/_ext/1655452824/mac_security.o
 .text          0x00000000        0x0 build/default/debug/_ext/1655452824/mac_data_extract_mhr.o
 .data          0x00000000        0x0 build/default/debug/_ext/1655452824/mac_data_extract_mhr.o
 .bss           0x00000000        0x0 build/default/debug/_ext/1655452824/mac_data_extract_mhr.o
 .text          0x00000000        0x0 build/default/debug/_ext/1655452824/usr_mlme_beacon_notify_ind.o
 .data          0x00000000        0x0 build/default/debug/_ext/1655452824/usr_mlme_beacon_notify_ind.o
 .bss           0x00000000        0x0 build/default/debug/_ext/1655452824/usr_mlme_beacon_notify_ind.o
 .text.USR_MLME_BeaconNotifyInd
                0x00000000        0x2 build/default/debug/_ext/1655452824/usr_mlme_beacon_notify_ind.o
 .debug_info    0x00000000      0x595 build/default/debug/_ext/1655452824/usr_mlme_beacon_notify_ind.o
 .debug_abbrev  0x00000000       0xc9 build/default/debug/_ext/1655452824/usr_mlme_beacon_notify_ind.o
 .debug_loc     0x00000000       0x4a build/default/debug/_ext/1655452824/usr_mlme_beacon_notify_ind.o
 .debug_aranges
                0x00000000       0x20 build/default/debug/_ext/1655452824/usr_mlme_beacon_notify_ind.o
 .debug_ranges  0x00000000       0x10 build/default/debug/_ext/1655452824/usr_mlme_beacon_notify_ind.o
 .debug_line    0x00000000      0x11e build/default/debug/_ext/1655452824/usr_mlme_beacon_notify_ind.o
 .debug_str     0x00000000        0x0 build/default/debug/_ext/1655452824/usr_mlme_beacon_notify_ind.o
 .comment       0x00000000       0x2c build/default/debug/_ext/1655452824/usr_mlme_beacon_notify_ind.o
 .debug_frame   0x00000000       0x20 build/default/debug/_ext/1655452824/usr_mlme_beacon_notify_ind.o
 .ARM.attributes
                0x00000000       0x2c build/default/debug/_ext/1655452824/usr_mlme_beacon_notify_ind.o
 .text          0x00000000        0x0 build/default/debug/_ext/1655452824/usr_mlme_sync_loss_ind.o
 .data          0x00000000        0x0 build/default/debug/_ext/1655452824/usr_mlme_sync_loss_ind.o
 .bss           0x00000000        0x0 build/default/debug/_ext/1655452824/usr_mlme_sync_loss_ind.o
 .text          0x00000000        0x0 build/default/debug/_ext/1655452824/usr_mlme_comm_status_ind.o
 .data          0x00000000        0x0 build/default/debug/_ext/1655452824/usr_mlme_comm_status_ind.o
 .bss           0x00000000        0x0 build/default/debug/_ext/1655452824/usr_mlme_comm_status_ind.o
 .text.USR_MLME_CommStatusInd
                0x00000000        0x2 build/default/debug/_ext/1655452824/usr_mlme_comm_status_ind.o
 .debug_info    0x00000000      0x459 build/default/debug/_ext/1655452824/usr_mlme_comm_status_ind.o
 .debug_abbrev  0x00000000       0xc9 build/default/debug/_ext/1655452824/usr_mlme_comm_status_ind.o
 .debug_loc     0x00000000       0x25 build/default/debug/_ext/1655452824/usr_mlme_comm_status_ind.o
 .debug_aranges
                0x00000000       0x20 build/default/debug/_ext/1655452824/usr_mlme_comm_status_ind.o
 .debug_ranges  0x00000000       0x10 build/default/debug/_ext/1655452824/usr_mlme_comm_status_ind.o
 .debug_line    0x00000000      0x119 build/default/debug/_ext/1655452824/usr_mlme_comm_status_ind.o
 .debug_str     0x00000000        0x0 build/default/debug/_ext/1655452824/usr_mlme_comm_status_ind.o
 .comment       0x00000000       0x2c build/default/debug/_ext/1655452824/usr_mlme_comm_status_ind.o
 .debug_frame   0x00000000       0x20 build/default/debug/_ext/1655452824/usr_mlme_comm_status_ind.o
 .ARM.attributes
                0x00000000       0x2c build/default/debug/_ext/1655452824/usr_mlme_comm_status_ind.o
 .text          0x00000000        0x0 build/default/debug/_ext/1655452824/mac_tx_coord_realignment_command.o
 .data          0x00000000        0x0 build/default/debug/_ext/1655452824/mac_tx_coord_realignment_command.o
 .bss           0x00000000        0x0 build/default/debug/_ext/1655452824/mac_tx_coord_realignment_command.o
 .debug_info    0x00000000      0x30d build/default/debug/_ext/1655452824/mac_tx_coord_realignment_command.o
 .debug_abbrev  0x00000000       0x1b build/default/debug/_ext/1655452824/mac_tx_coord_realignment_command.o
 .debug_aranges
                0x00000000       0x18 build/default/debug/_ext/1655452824/mac_tx_coord_realignment_command.o
 .debug_line    0x00000000       0x1d build/default/debug/_ext/1655452824/mac_tx_coord_realignment_command.o
 .debug_str     0x00000000        0x0 build/default/debug/_ext/1655452824/mac_tx_coord_realignment_command.o
 .comment       0x00000000       0x2c build/default/debug/_ext/1655452824/mac_tx_coord_realignment_command.o
 .ARM.attributes
                0x00000000       0x32 build/default/debug/_ext/1655452824/mac_tx_coord_realignment_command.o
 .text          0x00000000        0x0 build/default/debug/_ext/1655452824/mac_associate.o
 .data          0x00000000        0x0 build/default/debug/_ext/1655452824/mac_associate.o
 .bss           0x00000000        0x0 build/default/debug/_ext/1655452824/mac_associate.o
 .text          0x00000000        0x0 build/default/debug/_ext/1655452824/mac_pib.o
 .data          0x00000000        0x0 build/default/debug/_ext/1655452824/mac_pib.o
 .bss           0x00000000        0x0 build/default/debug/_ext/1655452824/mac_pib.o
 .text          0x00000000        0x0 build/default/debug/_ext/1655452824/usr_mlme_rx_enable_conf.o
 .data          0x00000000        0x0 build/default/debug/_ext/1655452824/usr_mlme_rx_enable_conf.o
 .bss           0x00000000        0x0 build/default/debug/_ext/1655452824/usr_mlme_rx_enable_conf.o
 .text.USR_MLME_RxEnableConf
                0x00000000        0x2 build/default/debug/_ext/1655452824/usr_mlme_rx_enable_conf.o
 .debug_info    0x00000000      0x349 build/default/debug/_ext/1655452824/usr_mlme_rx_enable_conf.o
 .debug_abbrev  0x00000000       0x5e build/default/debug/_ext/1655452824/usr_mlme_rx_enable_conf.o
 .debug_loc     0x00000000       0x25 build/default/debug/_ext/1655452824/usr_mlme_rx_enable_conf.o
 .debug_aranges
                0x00000000       0x20 build/default/debug/_ext/1655452824/usr_mlme_rx_enable_conf.o
 .debug_ranges  0x00000000       0x10 build/default/debug/_ext/1655452824/usr_mlme_rx_enable_conf.o
 .debug_line    0x00000000       0xd4 build/default/debug/_ext/1655452824/usr_mlme_rx_enable_conf.o
 .debug_str     0x00000000        0x0 build/default/debug/_ext/1655452824/usr_mlme_rx_enable_conf.o
 .comment       0x00000000       0x2c build/default/debug/_ext/1655452824/usr_mlme_rx_enable_conf.o
 .debug_frame   0x00000000       0x20 build/default/debug/_ext/1655452824/usr_mlme_rx_enable_conf.o
 .ARM.attributes
                0x00000000       0x2c build/default/debug/_ext/1655452824/usr_mlme_rx_enable_conf.o
 .text          0x00000000        0x0 build/default/debug/_ext/1655452824/mac_beacon.o
 .data          0x00000000        0x0 build/default/debug/_ext/1655452824/mac_beacon.o
 .bss           0x00000000        0x0 build/default/debug/_ext/1655452824/mac_beacon.o
 .debug_info    0x00000000      0x2f7 build/default/debug/_ext/1655452824/mac_beacon.o
 .debug_abbrev  0x00000000       0x1b build/default/debug/_ext/1655452824/mac_beacon.o
 .debug_aranges
                0x00000000       0x18 build/default/debug/_ext/1655452824/mac_beacon.o
 .debug_line    0x00000000       0x1d build/default/debug/_ext/1655452824/mac_beacon.o
 .debug_str     0x00000000        0x0 build/default/debug/_ext/1655452824/mac_beacon.o
 .comment       0x00000000       0x2c build/default/debug/_ext/1655452824/mac_beacon.o
 .ARM.attributes
                0x00000000       0x32 build/default/debug/_ext/1655452824/mac_beacon.o
 .text          0x00000000        0x0 build/default/debug/_ext/1655452824/mac_rx_enable.o
 .data          0x00000000        0x0 build/default/debug/_ext/1655452824/mac_rx_enable.o
 .bss           0x00000000        0x0 build/default/debug/_ext/1655452824/mac_rx_enable.o
 .text          0x00000000        0x0 build/default/debug/_ext/1655452824/mac.o
 .data          0x00000000        0x0 build/default/debug/_ext/1655452824/mac.o
 .bss           0x00000000        0x0 build/default/debug/_ext/1655452824/mac.o
 .text.MAC_ReadyToSleep
                0x00000000       0x40 build/default/debug/_ext/1655452824/mac.o
 .text          0x00000000        0x0 build/default/debug/_ext/1655452824/mac_disassociate.o
 .data          0x00000000        0x0 build/default/debug/_ext/1655452824/mac_disassociate.o
 .bss           0x00000000        0x0 build/default/debug/_ext/1655452824/mac_disassociate.o
 .text          0x00000000        0x0 build/default/debug/_ext/1655452824/mac_orphan.o
 .data          0x00000000        0x0 build/default/debug/_ext/1655452824/mac_orphan.o
 .bss           0x00000000        0x0 build/default/debug/_ext/1655452824/mac_orphan.o
 .debug_info    0x00000000      0x2f7 build/default/debug/_ext/1655452824/mac_orphan.o
 .debug_abbrev  0x00000000       0x1b build/default/debug/_ext/1655452824/mac_orphan.o
 .debug_aranges
                0x00000000       0x18 build/default/debug/_ext/1655452824/mac_orphan.o
 .debug_line    0x00000000       0x1d build/default/debug/_ext/1655452824/mac_orphan.o
 .debug_str     0x00000000        0x0 build/default/debug/_ext/1655452824/mac_orphan.o
 .comment       0x00000000       0x2c build/default/debug/_ext/1655452824/mac_orphan.o
 .ARM.attributes
                0x00000000       0x32 build/default/debug/_ext/1655452824/mac_orphan.o
 .text          0x00000000        0x0 build/default/debug/_ext/1655452824/usr_mlme_start_conf.o
 .data          0x00000000        0x0 build/default/debug/_ext/1655452824/usr_mlme_start_conf.o
 .bss           0x00000000        0x0 build/default/debug/_ext/1655452824/usr_mlme_start_conf.o
 .text.USR_MLME_StartConf
                0x00000000        0x2 build/default/debug/_ext/1655452824/usr_mlme_start_conf.o
 .debug_info    0x00000000      0x342 build/default/debug/_ext/1655452824/usr_mlme_start_conf.o
 .debug_abbrev  0x00000000       0x5e build/default/debug/_ext/1655452824/usr_mlme_start_conf.o
 .debug_loc     0x00000000       0x25 build/default/debug/_ext/1655452824/usr_mlme_start_conf.o
 .debug_aranges
                0x00000000       0x20 build/default/debug/_ext/1655452824/usr_mlme_start_conf.o
 .debug_ranges  0x00000000       0x10 build/default/debug/_ext/1655452824/usr_mlme_start_conf.o
 .debug_line    0x00000000       0xd0 build/default/debug/_ext/1655452824/usr_mlme_start_conf.o
 .debug_str     0x00000000        0x0 build/default/debug/_ext/1655452824/usr_mlme_start_conf.o
 .comment       0x00000000       0x2c build/default/debug/_ext/1655452824/usr_mlme_start_conf.o
 .debug_frame   0x00000000       0x20 build/default/debug/_ext/1655452824/usr_mlme_start_conf.o
 .ARM.attributes
                0x00000000       0x2c build/default/debug/_ext/1655452824/usr_mlme_start_conf.o
 .text          0x00000000        0x0 build/default/debug/_ext/1655452824/usr_mlme_disassociate_ind.o
 .data          0x00000000        0x0 build/default/debug/_ext/1655452824/usr_mlme_disassociate_ind.o
 .bss           0x00000000        0x0 build/default/debug/_ext/1655452824/usr_mlme_disassociate_ind.o
 .text.USR_MLME_DisassociateInd
                0x00000000        0x2 build/default/debug/_ext/1655452824/usr_mlme_disassociate_ind.o
 .debug_info    0x00000000      0x389 build/default/debug/_ext/1655452824/usr_mlme_disassociate_ind.o
 .debug_abbrev  0x00000000       0x7e build/default/debug/_ext/1655452824/usr_mlme_disassociate_ind.o
 .debug_loc     0x00000000       0x25 build/default/debug/_ext/1655452824/usr_mlme_disassociate_ind.o
 .debug_aranges
                0x00000000       0x20 build/default/debug/_ext/1655452824/usr_mlme_disassociate_ind.o
 .debug_ranges  0x00000000       0x10 build/default/debug/_ext/1655452824/usr_mlme_disassociate_ind.o
 .debug_line    0x00000000       0xd7 build/default/debug/_ext/1655452824/usr_mlme_disassociate_ind.o
 .debug_str     0x00000000        0x0 build/default/debug/_ext/1655452824/usr_mlme_disassociate_ind.o
 .comment       0x00000000       0x2c build/default/debug/_ext/1655452824/usr_mlme_disassociate_ind.o
 .debug_frame   0x00000000       0x20 build/default/debug/_ext/1655452824/usr_mlme_disassociate_ind.o
 .ARM.attributes
                0x00000000       0x2c build/default/debug/_ext/1655452824/usr_mlme_disassociate_ind.o
 .text          0x00000000        0x0 build/default/debug/_ext/1655452824/mac_process_phy_tx_frame_status.o
 .data          0x00000000        0x0 build/default/debug/_ext/1655452824/mac_process_phy_tx_frame_status.o
 .bss           0x00000000        0x0 build/default/debug/_ext/1655452824/mac_process_phy_tx_frame_status.o
 .text          0x00000000        0x0 build/default/debug/_ext/1655452824/mac_callback_wrapper.o
 .data          0x00000000        0x0 build/default/debug/_ext/1655452824/mac_callback_wrapper.o
 .bss           0x00000000        0x0 build/default/debug/_ext/1655452824/mac_callback_wrapper.o
 .text          0x00000000        0x0 build/default/debug/_ext/1655452824/mac_api.o
 .data          0x00000000        0x0 build/default/debug/_ext/1655452824/mac_api.o
 .bss           0x00000000        0x0 build/default/debug/_ext/1655452824/mac_api.o
 .text.WPAN_MLME_DisassociateReq
                0x00000000       0x54 build/default/debug/_ext/1655452824/mac_api.o
 .text.WPAN_MLME_RxEnableReq
                0x00000000       0x44 build/default/debug/_ext/1655452824/mac_api.o
 .text          0x00000000        0x0 build/default/debug/_ext/1655452824/mac_misc.o
 .data          0x00000000        0x0 build/default/debug/_ext/1655452824/mac_misc.o
 .bss           0x00000000        0x0 build/default/debug/_ext/1655452824/mac_misc.o
 .text          0x00000000        0x0 build/default/debug/_ext/1655452824/usr_mlme_disassociate_conf.o
 .data          0x00000000        0x0 build/default/debug/_ext/1655452824/usr_mlme_disassociate_conf.o
 .bss           0x00000000        0x0 build/default/debug/_ext/1655452824/usr_mlme_disassociate_conf.o
 .text.USR_MLME_DisassociateConf
                0x00000000        0x2 build/default/debug/_ext/1655452824/usr_mlme_disassociate_conf.o
 .debug_info    0x00000000      0x44b build/default/debug/_ext/1655452824/usr_mlme_disassociate_conf.o
 .debug_abbrev  0x00000000       0xc9 build/default/debug/_ext/1655452824/usr_mlme_disassociate_conf.o
 .debug_loc     0x00000000       0x25 build/default/debug/_ext/1655452824/usr_mlme_disassociate_conf.o
 .debug_aranges
                0x00000000       0x20 build/default/debug/_ext/1655452824/usr_mlme_disassociate_conf.o
 .debug_ranges  0x00000000       0x10 build/default/debug/_ext/1655452824/usr_mlme_disassociate_conf.o
 .debug_line    0x00000000      0x11a build/default/debug/_ext/1655452824/usr_mlme_disassociate_conf.o
 .debug_str     0x00000000        0x0 build/default/debug/_ext/1655452824/usr_mlme_disassociate_conf.o
 .comment       0x00000000       0x2c build/default/debug/_ext/1655452824/usr_mlme_disassociate_conf.o
 .debug_frame   0x00000000       0x20 build/default/debug/_ext/1655452824/usr_mlme_disassociate_conf.o
 .ARM.attributes
                0x00000000       0x2c build/default/debug/_ext/1655452824/usr_mlme_disassociate_conf.o
 .text          0x00000000        0x0 build/default/debug/_ext/1655452824/usr_mcps_data_conf.o
 .data          0x00000000        0x0 build/default/debug/_ext/1655452824/usr_mcps_data_conf.o
 .bss           0x00000000        0x0 build/default/debug/_ext/1655452824/usr_mcps_data_conf.o
 .text.USR_MCPS_DataConf
                0x00000000        0x2 build/default/debug/_ext/1655452824/usr_mcps_data_conf.o
 .debug_info    0x00000000      0x381 build/default/debug/_ext/1655452824/usr_mcps_data_conf.o
 .debug_abbrev  0x00000000       0x7e build/default/debug/_ext/1655452824/usr_mcps_data_conf.o
 .debug_loc     0x00000000       0x4a build/default/debug/_ext/1655452824/usr_mcps_data_conf.o
 .debug_aranges
                0x00000000       0x20 build/default/debug/_ext/1655452824/usr_mcps_data_conf.o
 .debug_ranges  0x00000000       0x10 build/default/debug/_ext/1655452824/usr_mcps_data_conf.o
 .debug_line    0x00000000       0xd1 build/default/debug/_ext/1655452824/usr_mcps_data_conf.o
 .debug_str     0x00000000        0x0 build/default/debug/_ext/1655452824/usr_mcps_data_conf.o
 .comment       0x00000000       0x2c build/default/debug/_ext/1655452824/usr_mcps_data_conf.o
 .debug_frame   0x00000000       0x20 build/default/debug/_ext/1655452824/usr_mcps_data_conf.o
 .ARM.attributes
                0x00000000       0x2c build/default/debug/_ext/1655452824/usr_mcps_data_conf.o
 .text          0x00000000        0x0 build/default/debug/_ext/1655452824/usr_mlme_associate_ind.o
 .data          0x00000000        0x0 build/default/debug/_ext/1655452824/usr_mlme_associate_ind.o
 .bss           0x00000000        0x0 build/default/debug/_ext/1655452824/usr_mlme_associate_ind.o
 .text.USR_MLME_AssociateInd
                0x00000000        0x2 build/default/debug/_ext/1655452824/usr_mlme_associate_ind.o
 .debug_info    0x00000000      0x386 build/default/debug/_ext/1655452824/usr_mlme_associate_ind.o
 .debug_abbrev  0x00000000       0x7e build/default/debug/_ext/1655452824/usr_mlme_associate_ind.o
 .debug_loc     0x00000000       0x25 build/default/debug/_ext/1655452824/usr_mlme_associate_ind.o
 .debug_aranges
                0x00000000       0x20 build/default/debug/_ext/1655452824/usr_mlme_associate_ind.o
 .debug_ranges  0x00000000       0x10 build/default/debug/_ext/1655452824/usr_mlme_associate_ind.o
 .debug_line    0x00000000       0xd4 build/default/debug/_ext/1655452824/usr_mlme_associate_ind.o
 .debug_str     0x00000000        0x0 build/default/debug/_ext/1655452824/usr_mlme_associate_ind.o
 .comment       0x00000000       0x2c build/default/debug/_ext/1655452824/usr_mlme_associate_ind.o
 .debug_frame   0x00000000       0x20 build/default/debug/_ext/1655452824/usr_mlme_associate_ind.o
 .ARM.attributes
                0x00000000       0x2c build/default/debug/_ext/1655452824/usr_mlme_associate_ind.o
 .text          0x00000000        0x0 build/default/debug/_ext/1655452824/mac_mcps_data.o
 .data          0x00000000        0x0 build/default/debug/_ext/1655452824/mac_mcps_data.o
 .bss           0x00000000        0x0 build/default/debug/_ext/1655452824/mac_mcps_data.o
 .text          0x00000000        0x0 build/default/debug/_ext/1655452824/usr_mlme_poll_conf.o
 .data          0x00000000        0x0 build/default/debug/_ext/1655452824/usr_mlme_poll_conf.o
 .bss           0x00000000        0x0 build/default/debug/_ext/1655452824/usr_mlme_poll_conf.o
 .text.USR_MLME_PollConf
                0x00000000        0x2 build/default/debug/_ext/1655452824/usr_mlme_poll_conf.o
 .debug_info    0x00000000      0x340 build/default/debug/_ext/1655452824/usr_mlme_poll_conf.o
 .debug_abbrev  0x00000000       0x5e build/default/debug/_ext/1655452824/usr_mlme_poll_conf.o
 .debug_loc     0x00000000       0x25 build/default/debug/_ext/1655452824/usr_mlme_poll_conf.o
 .debug_aranges
                0x00000000       0x20 build/default/debug/_ext/1655452824/usr_mlme_poll_conf.o
 .debug_ranges  0x00000000       0x10 build/default/debug/_ext/1655452824/usr_mlme_poll_conf.o
 .debug_line    0x00000000       0xcf build/default/debug/_ext/1655452824/usr_mlme_poll_conf.o
 .debug_str     0x00000000        0x0 build/default/debug/_ext/1655452824/usr_mlme_poll_conf.o
 .comment       0x00000000       0x2c build/default/debug/_ext/1655452824/usr_mlme_poll_conf.o
 .debug_frame   0x00000000       0x20 build/default/debug/_ext/1655452824/usr_mlme_poll_conf.o
 .ARM.attributes
                0x00000000       0x2c build/default/debug/_ext/1655452824/usr_mlme_poll_conf.o
 .text          0x00000000        0x0 build/default/debug/_ext/1655452824/mac_data_ind.o
 .data          0x00000000        0x0 build/default/debug/_ext/1655452824/mac_data_ind.o
 .bss           0x00000000        0x0 build/default/debug/_ext/1655452824/mac_data_ind.o
 .text          0x00000000        0x0 build/default/debug/_ext/1655452824/usr_mlme_reset_conf.o
 .data          0x00000000        0x0 build/default/debug/_ext/1655452824/usr_mlme_reset_conf.o
 .bss           0x00000000        0x0 build/default/debug/_ext/1655452824/usr_mlme_reset_conf.o
 .text.USR_MLME_ResetConf
                0x00000000        0x2 build/default/debug/_ext/1655452824/usr_mlme_reset_conf.o
 .debug_info    0x00000000      0x342 build/default/debug/_ext/1655452824/usr_mlme_reset_conf.o
 .debug_abbrev  0x00000000       0x5e build/default/debug/_ext/1655452824/usr_mlme_reset_conf.o
 .debug_loc     0x00000000       0x25 build/default/debug/_ext/1655452824/usr_mlme_reset_conf.o
 .debug_aranges
                0x00000000       0x20 build/default/debug/_ext/1655452824/usr_mlme_reset_conf.o
 .debug_ranges  0x00000000       0x10 build/default/debug/_ext/1655452824/usr_mlme_reset_conf.o
 .debug_line    0x00000000       0xd0 build/default/debug/_ext/1655452824/usr_mlme_reset_conf.o
 .debug_str     0x00000000        0x0 build/default/debug/_ext/1655452824/usr_mlme_reset_conf.o
 .comment       0x00000000       0x2c build/default/debug/_ext/1655452824/usr_mlme_reset_conf.o
 .debug_frame   0x00000000       0x20 build/default/debug/_ext/1655452824/usr_mlme_reset_conf.o
 .ARM.attributes
                0x00000000       0x2c build/default/debug/_ext/1655452824/usr_mlme_reset_conf.o
 .text          0x00000000        0x0 build/default/debug/_ext/1655452824/mac_scan.o
 .data          0x00000000        0x0 build/default/debug/_ext/1655452824/mac_scan.o
 .bss           0x00000000        0x0 build/default/debug/_ext/1655452824/mac_scan.o
 .text          0x00000000        0x0 build/default/debug/_ext/1655452824/usr_mlme_associate_conf.o
 .data          0x00000000        0x0 build/default/debug/_ext/1655452824/usr_mlme_associate_conf.o
 .bss           0x00000000        0x0 build/default/debug/_ext/1655452824/usr_mlme_associate_conf.o
 .text.USR_MLME_AssociateConf
                0x00000000        0x2 build/default/debug/_ext/1655452824/usr_mlme_associate_conf.o
 .debug_info    0x00000000      0x37e build/default/debug/_ext/1655452824/usr_mlme_associate_conf.o
 .debug_abbrev  0x00000000       0x6d build/default/debug/_ext/1655452824/usr_mlme_associate_conf.o
 .debug_loc     0x00000000       0x4a build/default/debug/_ext/1655452824/usr_mlme_associate_conf.o
 .debug_aranges
                0x00000000       0x20 build/default/debug/_ext/1655452824/usr_mlme_associate_conf.o
 .debug_ranges  0x00000000       0x10 build/default/debug/_ext/1655452824/usr_mlme_associate_conf.o
 .debug_line    0x00000000       0xd5 build/default/debug/_ext/1655452824/usr_mlme_associate_conf.o
 .debug_str     0x00000000        0x0 build/default/debug/_ext/1655452824/usr_mlme_associate_conf.o
 .comment       0x00000000       0x2c build/default/debug/_ext/1655452824/usr_mlme_associate_conf.o
 .debug_frame   0x00000000       0x20 build/default/debug/_ext/1655452824/usr_mlme_associate_conf.o
 .ARM.attributes
                0x00000000       0x2c build/default/debug/_ext/1655452824/usr_mlme_associate_conf.o
 .text          0x00000000        0x0 build/default/debug/_ext/1655452824/mac_poll.o
 .data          0x00000000        0x0 build/default/debug/_ext/1655452824/mac_poll.o
 .bss           0x00000000        0x0 build/default/debug/_ext/1655452824/mac_poll.o
 .text          0x00000000        0x0 build/default/debug/_ext/1655452824/usr_mcps_data_ind.o
 .data          0x00000000        0x0 build/default/debug/_ext/1655452824/usr_mcps_data_ind.o
 .bss           0x00000000        0x0 build/default/debug/_ext/1655452824/usr_mcps_data_ind.o
 .text.USR_MCPS_DataInd
                0x00000000        0x2 build/default/debug/_ext/1655452824/usr_mcps_data_ind.o
 .debug_info    0x00000000      0x4b6 build/default/debug/_ext/1655452824/usr_mcps_data_ind.o
 .debug_abbrev  0x00000000       0xc9 build/default/debug/_ext/1655452824/usr_mcps_data_ind.o
 .debug_loc     0x00000000       0x25 build/default/debug/_ext/1655452824/usr_mcps_data_ind.o
 .debug_aranges
                0x00000000       0x20 build/default/debug/_ext/1655452824/usr_mcps_data_ind.o
 .debug_ranges  0x00000000       0x10 build/default/debug/_ext/1655452824/usr_mcps_data_ind.o
 .debug_line    0x00000000      0x117 build/default/debug/_ext/1655452824/usr_mcps_data_ind.o
 .debug_str     0x00000000        0x0 build/default/debug/_ext/1655452824/usr_mcps_data_ind.o
 .comment       0x00000000       0x2c build/default/debug/_ext/1655452824/usr_mcps_data_ind.o
 .debug_frame   0x00000000       0x20 build/default/debug/_ext/1655452824/usr_mcps_data_ind.o
 .ARM.attributes
                0x00000000       0x2c build/default/debug/_ext/1655452824/usr_mcps_data_ind.o
 .text          0x00000000        0x0 build/default/debug/_ext/1655452824/mac_start.o
 .data          0x00000000        0x0 build/default/debug/_ext/1655452824/mac_start.o
 .bss           0x00000000        0x0 build/default/debug/_ext/1655452824/mac_start.o
 .debug_info    0x00000000      0x2f6 build/default/debug/_ext/1655452824/mac_start.o
 .debug_abbrev  0x00000000       0x1b build/default/debug/_ext/1655452824/mac_start.o
 .debug_aranges
                0x00000000       0x18 build/default/debug/_ext/1655452824/mac_start.o
 .debug_line    0x00000000       0x1d build/default/debug/_ext/1655452824/mac_start.o
 .debug_str     0x00000000        0x0 build/default/debug/_ext/1655452824/mac_start.o
 .comment       0x00000000       0x2c build/default/debug/_ext/1655452824/mac_start.o
 .ARM.attributes
                0x00000000       0x32 build/default/debug/_ext/1655452824/mac_start.o
 .text          0x00000000        0x0 build/default/debug/_ext/1655452824/usr_mlme_scan_conf.o
 .data          0x00000000        0x0 build/default/debug/_ext/1655452824/usr_mlme_scan_conf.o
 .bss           0x00000000        0x0 build/default/debug/_ext/1655452824/usr_mlme_scan_conf.o
 .text.USR_MLME_ScanConf
                0x00000000        0x2 build/default/debug/_ext/1655452824/usr_mlme_scan_conf.o
 .debug_info    0x00000000      0x3d5 build/default/debug/_ext/1655452824/usr_mlme_scan_conf.o
 .debug_abbrev  0x00000000       0x85 build/default/debug/_ext/1655452824/usr_mlme_scan_conf.o
 .debug_loc     0x00000000       0x6f build/default/debug/_ext/1655452824/usr_mlme_scan_conf.o
 .debug_aranges
                0x00000000       0x20 build/default/debug/_ext/1655452824/usr_mlme_scan_conf.o
 .debug_ranges  0x00000000       0x10 build/default/debug/_ext/1655452824/usr_mlme_scan_conf.o
 .debug_line    0x00000000       0xd4 build/default/debug/_ext/1655452824/usr_mlme_scan_conf.o
 .debug_str     0x00000000        0x0 build/default/debug/_ext/1655452824/usr_mlme_scan_conf.o
 .comment       0x00000000       0x2c build/default/debug/_ext/1655452824/usr_mlme_scan_conf.o
 .debug_frame   0x00000000       0x20 build/default/debug/_ext/1655452824/usr_mlme_scan_conf.o
 .ARM.attributes
                0x00000000       0x2c build/default/debug/_ext/1655452824/usr_mlme_scan_conf.o
 .text          0x00000000        0x0 build/default/debug/_ext/1655452824/usr_mlme_orphan_ind.o
 .data          0x00000000        0x0 build/default/debug/_ext/1655452824/usr_mlme_orphan_ind.o
 .bss           0x00000000        0x0 build/default/debug/_ext/1655452824/usr_mlme_orphan_ind.o
 .text.USR_MLME_OrphanInd
                0x00000000        0x2 build/default/debug/_ext/1655452824/usr_mlme_orphan_ind.o
 .debug_info    0x00000000      0x34a build/default/debug/_ext/1655452824/usr_mlme_orphan_ind.o
 .debug_abbrev  0x00000000       0x5b build/default/debug/_ext/1655452824/usr_mlme_orphan_ind.o
 .debug_aranges
                0x00000000       0x20 build/default/debug/_ext/1655452824/usr_mlme_orphan_ind.o
 .debug_ranges  0x00000000       0x10 build/default/debug/_ext/1655452824/usr_mlme_orphan_ind.o
 .debug_line    0x00000000       0xd0 build/default/debug/_ext/1655452824/usr_mlme_orphan_ind.o
 .debug_str     0x00000000        0x0 build/default/debug/_ext/1655452824/usr_mlme_orphan_ind.o
 .comment       0x00000000       0x2c build/default/debug/_ext/1655452824/usr_mlme_orphan_ind.o
 .debug_frame   0x00000000       0x20 build/default/debug/_ext/1655452824/usr_mlme_orphan_ind.o
 .ARM.attributes
                0x00000000       0x2c build/default/debug/_ext/1655452824/usr_mlme_orphan_ind.o
 .text          0x00000000        0x0 build/default/debug/_ext/745501718/pal.o
 .data          0x00000000        0x0 build/default/debug/_ext/745501718/pal.o
 .bss           0x00000000        0x0 build/default/debug/_ext/745501718/pal.o
 .text.delayms  0x00000000       0x2c build/default/debug/_ext/745501718/pal.o
 .text.delayus  0x00000000       0x1e build/default/debug/_ext/745501718/pal.o
 .text          0x00000000        0x0 build/default/debug/_ext/559172130/phy_init.o
 .data          0x00000000        0x0 build/default/debug/_ext/559172130/phy_init.o
 .bss           0x00000000        0x0 build/default/debug/_ext/559172130/phy_init.o
 .text.trx_irq_flag_clear
                0x00000000        0xa build/default/debug/_ext/559172130/phy_init.o
 .text          0x00000000        0x0 build/default/debug/_ext/559172130/phy_rx_enable.o
 .data          0x00000000        0x0 build/default/debug/_ext/559172130/phy_rx_enable.o
 .bss           0x00000000        0x0 build/default/debug/_ext/559172130/phy_rx_enable.o
 .text          0x00000000        0x0 build/default/debug/_ext/559172130/phy_pwr_mgmt.o
 .data          0x00000000        0x0 build/default/debug/_ext/559172130/phy_pwr_mgmt.o
 .bss           0x00000000        0x0 build/default/debug/_ext/559172130/phy_pwr_mgmt.o
 .text          0x00000000        0x0 build/default/debug/_ext/559172130/phy_tx.o
 .data          0x00000000        0x0 build/default/debug/_ext/559172130/phy_tx.o
 .bss           0x00000000        0x0 build/default/debug/_ext/559172130/phy_tx.o
 .text.retransmissionTimerCallback
                0x00000000       0x24 build/default/debug/_ext/559172130/phy_tx.o
 .text.tal_start_retransmission_timer
                0x00000000       0x54 build/default/debug/_ext/559172130/phy_tx.o
 .text          0x00000000        0x0 build/default/debug/_ext/559172130/tfa.o
 .data          0x00000000        0x0 build/default/debug/_ext/559172130/tfa.o
 .bss           0x00000000        0x0 build/default/debug/_ext/559172130/tfa.o
 .text.PHY_CCAPerform
                0x00000000       0x6a build/default/debug/_ext/559172130/tfa.o
 .text.PHY_EdSample
                0x00000000       0x68 build/default/debug/_ext/559172130/tfa.o
 .text.PHY_StartContinuousTransmit
                0x00000000       0xa8 build/default/debug/_ext/559172130/tfa.o
 .text.PHY_StopContinuousTransmit
                0x00000000        0xa build/default/debug/_ext/559172130/tfa.o
 .text.tfa_pib_set
                0x00000000       0x50 build/default/debug/_ext/559172130/tfa.o
 .text.tfa_init
                0x00000000       0x18 build/default/debug/_ext/559172130/tfa.o
 .text.tfa_reset
                0x00000000       0x1c build/default/debug/_ext/559172130/tfa.o
 .text.tfa_pib_get
                0x00000000       0x14 build/default/debug/_ext/559172130/tfa.o
 .bss.tfa_pib_rx_sens
                0x00000000        0x1 build/default/debug/_ext/559172130/tfa.o
 .bss.txcwdata  0x00000000       0x80 build/default/debug/_ext/559172130/tfa.o
 .debug_info    0x00000000     0x148f build/default/debug/_ext/559172130/tfa.o
 .debug_abbrev  0x00000000      0x33e build/default/debug/_ext/559172130/tfa.o
 .debug_loc     0x00000000      0x375 build/default/debug/_ext/559172130/tfa.o
 .debug_aranges
                0x00000000       0x58 build/default/debug/_ext/559172130/tfa.o
 .debug_ranges  0x00000000       0x78 build/default/debug/_ext/559172130/tfa.o
 .debug_line    0x00000000      0x47e build/default/debug/_ext/559172130/tfa.o
 .debug_str     0x00000000       0x94 build/default/debug/_ext/559172130/tfa.o
 .comment       0x00000000       0x2c build/default/debug/_ext/559172130/tfa.o
 .debug_frame   0x00000000       0xd0 build/default/debug/_ext/559172130/tfa.o
 .ARM.attributes
                0x00000000       0x2c build/default/debug/_ext/559172130/tfa.o
 .text          0x00000000        0x0 build/default/debug/_ext/559172130/phy_pib.o
 .data          0x00000000        0x0 build/default/debug/_ext/559172130/phy_pib.o
 .bss           0x00000000        0x0 build/default/debug/_ext/559172130/phy_pib.o
 .text          0x00000000        0x0 build/default/debug/_ext/559172130/phy.o
 .data          0x00000000        0x0 build/default/debug/_ext/559172130/phy.o
 .bss           0x00000000        0x0 build/default/debug/_ext/559172130/phy.o
 .text.PHY_GetTrxStatus
                0x00000000       0x30 build/default/debug/_ext/559172130/phy.o
 .rodata.PHY_GetTrxStatus
                0x00000000       0x68 build/default/debug/_ext/559172130/phy.o
 .text.PHY_GetSWVersion
                0x00000000        0xc build/default/debug/_ext/559172130/phy.o
 .text.tal_convert_symbols_to_us_def
                0x00000000        0x4 build/default/debug/_ext/559172130/phy.o
 .text.tal_convert_us_to_symbols_def
                0x00000000        0x4 build/default/debug/_ext/559172130/phy.o
 .text.trx_delay_millis
                0x00000000       0x1c build/default/debug/_ext/559172130/phy.o
 .text          0x00000000        0x0 build/default/debug/_ext/559172130/phy_helper.o
 .data          0x00000000        0x0 build/default/debug/_ext/559172130/phy_helper.o
 .bss           0x00000000        0x0 build/default/debug/_ext/559172130/phy_helper.o
 .text.PHY_ConfigTxPwr
                0x00000000       0xc8 build/default/debug/_ext/559172130/phy_helper.o
 .text.PHY_ConfigAntennaDiversity
                0x00000000      0x154 build/default/debug/_ext/559172130/phy_helper.o
 .text.tal_set_frequency
                0x00000000       0xec build/default/debug/_ext/559172130/phy_helper.o
 .text.tal_set_frequency_regs
                0x00000000       0x98 build/default/debug/_ext/559172130/phy_helper.o
 .text.tal_calculate_frequency
                0x00000000       0x70 build/default/debug/_ext/559172130/phy_helper.o
 .text.PHY_ConfigRxSensitivity
                0x00000000       0x38 build/default/debug/_ext/559172130/phy_helper.o
 .text.PHY_ConfigRxPromiscuousMode
                0x00000000       0x34 build/default/debug/_ext/559172130/phy_helper.o
 .text.PHY_GetTrxConfig
                0x00000000       0xd8 build/default/debug/_ext/559172130/phy_helper.o
 .rodata.PHY_GetTrxConfig
                0x00000000       0x30 build/default/debug/_ext/559172130/phy_helper.o
 .text.PHY_ConfigRxRPCMode
                0x00000000       0x34 build/default/debug/_ext/559172130/phy_helper.o
 .text.PHY_ConvertTxPwrRegValToDbm
                0x00000000       0x18 build/default/debug/_ext/559172130/phy_helper.o
 .text.PHY_GetRSSIBaseVal
                0x00000000        0x6 build/default/debug/_ext/559172130/phy_helper.o
 .text.PHY_ConfigAutoAck
                0x00000000       0x30 build/default/debug/_ext/559172130/phy_helper.o
 .text.PHY_ConfigReservedFrameFiltering
                0x00000000       0x50 build/default/debug/_ext/559172130/phy_helper.o
 .text.tal_dump_registers
                0x00000000       0x42 build/default/debug/_ext/559172130/phy_helper.o
 .text          0x00000000        0x0 build/default/debug/_ext/559172130/phy_irq_handler.o
 .data          0x00000000        0x0 build/default/debug/_ext/559172130/phy_irq_handler.o
 .bss           0x00000000        0x0 build/default/debug/_ext/559172130/phy_irq_handler.o
 .text          0x00000000        0x0 build/default/debug/_ext/559172130/phy_trx_reg_access.o
 .data          0x00000000        0x0 build/default/debug/_ext/559172130/phy_trx_reg_access.o
 .bss           0x00000000        0x0 build/default/debug/_ext/559172130/phy_trx_reg_access.o
 .text.trx_sram_write
                0x00000000       0x78 build/default/debug/_ext/559172130/phy_trx_reg_access.o
 .text.trx_sram_read
                0x00000000       0x78 build/default/debug/_ext/559172130/phy_trx_reg_access.o
 .text          0x00000000        0x0 build/default/debug/_ext/559172130/phy_ed.o
 .data          0x00000000        0x0 build/default/debug/_ext/559172130/phy_ed.o
 .bss           0x00000000        0x0 build/default/debug/_ext/559172130/phy_ed.o
 .text.PHY_EdStart
                0x00000000       0xa8 build/default/debug/_ext/559172130/phy_ed.o
 .text          0x00000000        0x0 build/default/debug/_ext/559172130/phy_rx.o
 .data          0x00000000        0x0 build/default/debug/_ext/559172130/phy_rx.o
 .bss           0x00000000        0x0 build/default/debug/_ext/559172130/phy_rx.o
 .text          0x00000000        0x0 build/default/debug/_ext/957911548/phy_tx_frame_done_cb.o
 .data          0x00000000        0x0 build/default/debug/_ext/957911548/phy_tx_frame_done_cb.o
 .bss           0x00000000        0x0 build/default/debug/_ext/957911548/phy_tx_frame_done_cb.o
 .text.PHY_TxDoneCallback
                0x00000000        0x2 build/default/debug/_ext/957911548/phy_tx_frame_done_cb.o
 .debug_info    0x00000000      0x553 build/default/debug/_ext/957911548/phy_tx_frame_done_cb.o
 .debug_abbrev  0x00000000       0xc9 build/default/debug/_ext/957911548/phy_tx_frame_done_cb.o
 .debug_loc     0x00000000       0x25 build/default/debug/_ext/957911548/phy_tx_frame_done_cb.o
 .debug_aranges
                0x00000000       0x20 build/default/debug/_ext/957911548/phy_tx_frame_done_cb.o
 .debug_ranges  0x00000000       0x10 build/default/debug/_ext/957911548/phy_tx_frame_done_cb.o
 .debug_line    0x00000000      0x185 build/default/debug/_ext/957911548/phy_tx_frame_done_cb.o
 .debug_str     0x00000000        0x0 build/default/debug/_ext/957911548/phy_tx_frame_done_cb.o
 .comment       0x00000000       0x2c build/default/debug/_ext/957911548/phy_tx_frame_done_cb.o
 .debug_frame   0x00000000       0x20 build/default/debug/_ext/957911548/phy_tx_frame_done_cb.o
 .ARM.attributes
                0x00000000       0x2c build/default/debug/_ext/957911548/phy_tx_frame_done_cb.o
 .text          0x00000000        0x0 build/default/debug/_ext/957911548/phy_task.o
 .data          0x00000000        0x0 build/default/debug/_ext/957911548/phy_task.o
 .bss           0x00000000        0x0 build/default/debug/_ext/957911548/phy_task.o
 .text.PHY_Tasks
                0x00000000       0x20 build/default/debug/_ext/957911548/phy_task.o
 .text          0x00000000        0x0 build/default/debug/_ext/957911548/phy_rx_frame_cb.o
 .data          0x00000000        0x0 build/default/debug/_ext/957911548/phy_rx_frame_cb.o
 .bss           0x00000000        0x0 build/default/debug/_ext/957911548/phy_rx_frame_cb.o
 .text.PHY_RxFrameCallback
                0x00000000        0x2 build/default/debug/_ext/957911548/phy_rx_frame_cb.o
 .debug_info    0x00000000      0x3f6 build/default/debug/_ext/957911548/phy_rx_frame_cb.o
 .debug_abbrev  0x00000000       0x88 build/default/debug/_ext/957911548/phy_rx_frame_cb.o
 .debug_aranges
                0x00000000       0x20 build/default/debug/_ext/957911548/phy_rx_frame_cb.o
 .debug_ranges  0x00000000       0x10 build/default/debug/_ext/957911548/phy_rx_frame_cb.o
 .debug_line    0x00000000      0x17f build/default/debug/_ext/957911548/phy_rx_frame_cb.o
 .debug_str     0x00000000        0x0 build/default/debug/_ext/957911548/phy_rx_frame_cb.o
 .comment       0x00000000       0x2c build/default/debug/_ext/957911548/phy_rx_frame_cb.o
 .debug_frame   0x00000000       0x20 build/default/debug/_ext/957911548/phy_rx_frame_cb.o
 .ARM.attributes
                0x00000000       0x2c build/default/debug/_ext/957911548/phy_rx_frame_cb.o
 .text          0x00000000        0x0 build/default/debug/_ext/957911548/phy_ed_end_cb.o
 .data          0x00000000        0x0 build/default/debug/_ext/957911548/phy_ed_end_cb.o
 .bss           0x00000000        0x0 build/default/debug/_ext/957911548/phy_ed_end_cb.o
 .text          0x00000000        0x0 build/default/debug/_ext/1374435801/bmm.o
 .data          0x00000000        0x0 build/default/debug/_ext/1374435801/bmm.o
 .bss           0x00000000        0x0 build/default/debug/_ext/1374435801/bmm.o
 .text.bmm_PercentageOfFreeBuffers
                0x00000000        0xc build/default/debug/_ext/1374435801/bmm.o
 .text          0x00000000        0x0 build/default/debug/_ext/874725666/qmm.o
 .data          0x00000000        0x0 build/default/debug/_ext/874725666/qmm.o
 .bss           0x00000000        0x0 build/default/debug/_ext/874725666/qmm.o
 .text.qmm_queue_read
                0x00000000       0x2e build/default/debug/_ext/874725666/qmm.o
 .text          0x00000000        0x0 build/default/debug/_ext/1529399856/osal_freertos_extend.o
 .data          0x00000000        0x0 build/default/debug/_ext/1529399856/osal_freertos_extend.o
 .bss           0x00000000        0x0 build/default/debug/_ext/1529399856/osal_freertos_extend.o
 .text          0x00000000        0x0 build/default/debug/_ext/1529399856/osal_freertos.o
 .data          0x00000000        0x0 build/default/debug/_ext/1529399856/osal_freertos.o
 .bss           0x00000000        0x0 build/default/debug/_ext/1529399856/osal_freertos.o
 .text.OSAL_SEM_Delete
                0x00000000       0x12 build/default/debug/_ext/1529399856/osal_freertos.o
 .text.OSAL_MUTEX_Delete
                0x00000000       0x1a build/default/debug/_ext/1529399856/osal_freertos.o
 .text.OSAL_Initialize
                0x00000000        0x4 build/default/debug/_ext/1529399856/osal_freertos.o
 .text          0x00000000        0x0 build/default/debug/_ext/1984496892/plib_clock.o
 .data          0x00000000        0x0 build/default/debug/_ext/1984496892/plib_clock.o
 .bss           0x00000000        0x0 build/default/debug/_ext/1984496892/plib_clock.o
 .text          0x00000000        0x0 build/default/debug/_ext/60167341/plib_eic.o
 .data          0x00000000        0x0 build/default/debug/_ext/60167341/plib_eic.o
 .bss           0x00000000        0x0 build/default/debug/_ext/60167341/plib_eic.o
 .text          0x00000000        0x0 build/default/debug/_ext/1986646378/plib_evsys.o
 .data          0x00000000        0x0 build/default/debug/_ext/1986646378/plib_evsys.o
 .bss           0x00000000        0x0 build/default/debug/_ext/1986646378/plib_evsys.o
 .text.EVSYS_Initialize
                0x00000000        0x2 build/default/debug/_ext/1986646378/plib_evsys.o
 .debug_info    0x00000000      0x30f build/default/debug/_ext/1986646378/plib_evsys.o
 .debug_abbrev  0x00000000       0x3b build/default/debug/_ext/1986646378/plib_evsys.o
 .debug_aranges
                0x00000000       0x20 build/default/debug/_ext/1986646378/plib_evsys.o
 .debug_ranges  0x00000000       0x10 build/default/debug/_ext/1986646378/plib_evsys.o
 .debug_line    0x00000000       0x66 build/default/debug/_ext/1986646378/plib_evsys.o
 .debug_str     0x00000000        0x0 build/default/debug/_ext/1986646378/plib_evsys.o
 .comment       0x00000000       0x2c build/default/debug/_ext/1986646378/plib_evsys.o
 .debug_frame   0x00000000       0x20 build/default/debug/_ext/1986646378/plib_evsys.o
 .ARM.attributes
                0x00000000       0x2c build/default/debug/_ext/1986646378/plib_evsys.o
 .text          0x00000000        0x0 build/default/debug/_ext/1865468468/plib_nvic.o
 .data          0x00000000        0x0 build/default/debug/_ext/1865468468/plib_nvic.o
 .bss           0x00000000        0x0 build/default/debug/_ext/1865468468/plib_nvic.o
 .text.NVIC_INT_Enable
                0x00000000        0x8 build/default/debug/_ext/1865468468/plib_nvic.o
 .text          0x00000000        0x0 build/default/debug/_ext/1593096446/plib_nvmctrl.o
 .data          0x00000000        0x0 build/default/debug/_ext/1593096446/plib_nvmctrl.o
 .bss           0x00000000        0x0 build/default/debug/_ext/1593096446/plib_nvmctrl.o
 .text.NVMCTRL_CacheInvalidate
                0x00000000       0x10 build/default/debug/_ext/1593096446/plib_nvmctrl.o
 .text.NVMCTRL_Read
                0x00000000       0x10 build/default/debug/_ext/1593096446/plib_nvmctrl.o
 .text.NVMCTRL_PageBufferWrite
                0x00000000       0x14 build/default/debug/_ext/1593096446/plib_nvmctrl.o
 .text.NVMCTRL_PageBufferCommit
                0x00000000       0x18 build/default/debug/_ext/1593096446/plib_nvmctrl.o
 .text.NVMCTRL_PageWrite
                0x00000000       0x28 build/default/debug/_ext/1593096446/plib_nvmctrl.o
 .text.NVMCTRL_RowErase
                0x00000000       0x18 build/default/debug/_ext/1593096446/plib_nvmctrl.o
 .text.NVMCTRL_USER_ROW_PageWrite
                0x00000000       0x38 build/default/debug/_ext/1593096446/plib_nvmctrl.o
 .text.NVMCTRL_USER_ROW_RowErase
                0x00000000       0x2c build/default/debug/_ext/1593096446/plib_nvmctrl.o
 .text.NVMCTRL_ErrorGet
                0x00000000       0x18 build/default/debug/_ext/1593096446/plib_nvmctrl.o
 .text.NVMCTRL_IsBusy
                0x00000000       0x14 build/default/debug/_ext/1593096446/plib_nvmctrl.o
 .text.NVMCTRL_RegionLock
                0x00000000       0x14 build/default/debug/_ext/1593096446/plib_nvmctrl.o
 .text.NVMCTRL_RegionUnlock
                0x00000000       0x14 build/default/debug/_ext/1593096446/plib_nvmctrl.o
 .text.NVMCTRL_SecurityBitSet
                0x00000000       0x10 build/default/debug/_ext/1593096446/plib_nvmctrl.o
 .text          0x00000000        0x0 build/default/debug/_ext/1865521619/plib_port.o
 .data          0x00000000        0x0 build/default/debug/_ext/1865521619/plib_port.o
 .bss           0x00000000        0x0 build/default/debug/_ext/1865521619/plib_port.o
 .text.PORT_GroupRead
                0x00000000        0x4 build/default/debug/_ext/1865521619/plib_port.o
 .text.PORT_GroupWrite
                0x00000000        0xc build/default/debug/_ext/1865521619/plib_port.o
 .text.PORT_GroupLatchRead
                0x00000000        0x4 build/default/debug/_ext/1865521619/plib_port.o
 .text.PORT_GroupSet
                0x00000000        0x4 build/default/debug/_ext/1865521619/plib_port.o
 .text.PORT_GroupClear
                0x00000000        0x4 build/default/debug/_ext/1865521619/plib_port.o
 .text.PORT_GroupToggle
                0x00000000        0x4 build/default/debug/_ext/1865521619/plib_port.o
 .text.PORT_GroupInputEnable
                0x00000000        0x4 build/default/debug/_ext/1865521619/plib_port.o
 .text.PORT_GroupOutputEnable
                0x00000000        0x4 build/default/debug/_ext/1865521619/plib_port.o
 .text.PORT_PinPeripheralFunctionConfig
                0x00000000       0x48 build/default/debug/_ext/1865521619/plib_port.o
 .text.PORT_PinGPIOConfig
                0x00000000       0x20 build/default/debug/_ext/1865521619/plib_port.o
 .text          0x00000000        0x0 build/default/debug/_ext/17022449/plib_sercom4_spi_master.o
 .data          0x00000000        0x0 build/default/debug/_ext/17022449/plib_sercom4_spi_master.o
 .bss           0x00000000        0x0 build/default/debug/_ext/17022449/plib_sercom4_spi_master.o
 .text.SERCOM4_SPI_TransferSetup
                0x00000000       0x90 build/default/debug/_ext/17022449/plib_sercom4_spi_master.o
 .text.SERCOM4_SPI_CallbackRegister
                0x00000000        0xc build/default/debug/_ext/17022449/plib_sercom4_spi_master.o
 .text.SERCOM4_SPI_IsTransmitterBusy
                0x00000000       0x14 build/default/debug/_ext/17022449/plib_sercom4_spi_master.o
 .text          0x00000000        0x0 build/default/debug/_ext/504274921/plib_sercom0_usart.o
 .data          0x00000000        0x0 build/default/debug/_ext/504274921/plib_sercom0_usart.o
 .bss           0x00000000        0x0 build/default/debug/_ext/504274921/plib_sercom0_usart.o
 .text.SERCOM0_USART_FrequencyGet
                0x00000000        0x8 build/default/debug/_ext/504274921/plib_sercom0_usart.o
 .text.SERCOM0_USART_SerialSetup
                0x00000000      0x140 build/default/debug/_ext/504274921/plib_sercom0_usart.o
 .text.SERCOM0_USART_Enable
                0x00000000       0x20 build/default/debug/_ext/504274921/plib_sercom0_usart.o
 .text.SERCOM0_USART_Disable
                0x00000000       0x20 build/default/debug/_ext/504274921/plib_sercom0_usart.o
 .text.SERCOM0_USART_ErrorGet
                0x00000000       0x10 build/default/debug/_ext/504274921/plib_sercom0_usart.o
 .text.SERCOM0_USART_ReadBufferSizeGet
                0x00000000        0xc build/default/debug/_ext/504274921/plib_sercom0_usart.o
 .text.SERCOM0_USART_ReadNotificationEnable
                0x00000000       0x18 build/default/debug/_ext/504274921/plib_sercom0_usart.o
 .text.SERCOM0_USART_ReadThresholdSet
                0x00000000       0x10 build/default/debug/_ext/504274921/plib_sercom0_usart.o
 .text.SERCOM0_USART_ReadCallbackRegister
                0x00000000        0xc build/default/debug/_ext/504274921/plib_sercom0_usart.o
 .text.SERCOM0_USART_TransmitComplete
                0x00000000       0x10 build/default/debug/_ext/504274921/plib_sercom0_usart.o
 .text.SERCOM0_USART_WriteBufferSizeGet
                0x00000000        0xc build/default/debug/_ext/504274921/plib_sercom0_usart.o
 .text.SERCOM0_USART_WriteNotificationEnable
                0x00000000       0x14 build/default/debug/_ext/504274921/plib_sercom0_usart.o
 .text.SERCOM0_USART_WriteThresholdSet
                0x00000000       0x10 build/default/debug/_ext/504274921/plib_sercom0_usart.o
 .text.SERCOM0_USART_WriteCallbackRegister
                0x00000000        0xc build/default/debug/_ext/504274921/plib_sercom0_usart.o
 .text          0x00000000        0x0 build/default/debug/_ext/829342655/plib_tc3.o
 .data          0x00000000        0x0 build/default/debug/_ext/829342655/plib_tc3.o
 .bss           0x00000000        0x0 build/default/debug/_ext/829342655/plib_tc3.o
 .text.TC3_TimerCommandSet
                0x00000000       0x18 build/default/debug/_ext/829342655/plib_tc3.o
 .text.TC3_Timer16bitCounterSet
                0x00000000       0x14 build/default/debug/_ext/829342655/plib_tc3.o
 .text.TC3_Timer16bitPeriodGet
                0x00000000       0x20 build/default/debug/_ext/829342655/plib_tc3.o
 .text          0x00000000        0x0 build/default/debug/_ext/163028504/xc32_monitor.o
 .data          0x00000000        0x0 build/default/debug/_ext/163028504/xc32_monitor.o
 .bss           0x00000000        0x0 build/default/debug/_ext/163028504/xc32_monitor.o
 .text.read     0x00000000        0x6 build/default/debug/_ext/163028504/xc32_monitor.o
 .text.write    0x00000000        0x6 build/default/debug/_ext/163028504/xc32_monitor.o
 .debug_info    0x00000000      0x319 build/default/debug/_ext/163028504/xc32_monitor.o
 .debug_abbrev  0x00000000       0x96 build/default/debug/_ext/163028504/xc32_monitor.o
 .debug_loc     0x00000000       0x4a build/default/debug/_ext/163028504/xc32_monitor.o
 .debug_aranges
                0x00000000       0x28 build/default/debug/_ext/163028504/xc32_monitor.o
 .debug_ranges  0x00000000       0x18 build/default/debug/_ext/163028504/xc32_monitor.o
 .debug_line    0x00000000       0xce build/default/debug/_ext/163028504/xc32_monitor.o
 .debug_str     0x00000000        0x0 build/default/debug/_ext/163028504/xc32_monitor.o
 .comment       0x00000000       0x2c build/default/debug/_ext/163028504/xc32_monitor.o
 .debug_frame   0x00000000       0x30 build/default/debug/_ext/163028504/xc32_monitor.o
 .ARM.attributes
                0x00000000       0x2c build/default/debug/_ext/163028504/xc32_monitor.o
 .text          0x00000000        0x0 build/default/debug/_ext/1832805299/sys_console.o
 .data          0x00000000        0x0 build/default/debug/_ext/1832805299/sys_console.o
 .bss           0x00000000        0x0 build/default/debug/_ext/1832805299/sys_console.o
 .text.SYS_CONSOLE_Status
                0x00000000       0x60 build/default/debug/_ext/1832805299/sys_console.o
 .text.SYS_CONSOLE_HandleGet
                0x00000000        0x8 build/default/debug/_ext/1832805299/sys_console.o
 .text.SYS_CONSOLE_DeviceGet
                0x00000000       0x1c build/default/debug/_ext/1832805299/sys_console.o
 .text.SYS_CONSOLE_Tasks
                0x00000000       0x28 build/default/debug/_ext/1832805299/sys_console.o
 .text.SYS_CONSOLE_Read
                0x00000000       0x38 build/default/debug/_ext/1832805299/sys_console.o
 .text.SYS_CONSOLE_ReadFreeBufferCountGet
                0x00000000       0x38 build/default/debug/_ext/1832805299/sys_console.o
 .text.SYS_CONSOLE_ReadCountGet
                0x00000000       0x38 build/default/debug/_ext/1832805299/sys_console.o
 .text.SYS_CONSOLE_Write
                0x00000000       0x38 build/default/debug/_ext/1832805299/sys_console.o
 .text.SYS_CONSOLE_WriteFreeBufferCountGet
                0x00000000       0x38 build/default/debug/_ext/1832805299/sys_console.o
 .text.SYS_CONSOLE_WriteCountGet
                0x00000000       0x38 build/default/debug/_ext/1832805299/sys_console.o
 .text.SYS_CONSOLE_Flush
                0x00000000       0x34 build/default/debug/_ext/1832805299/sys_console.o
 .text          0x00000000        0x0 build/default/debug/_ext/1832805299/sys_console_uart.o
 .data          0x00000000        0x0 build/default/debug/_ext/1832805299/sys_console_uart.o
 .bss           0x00000000        0x0 build/default/debug/_ext/1832805299/sys_console_uart.o
 .text          0x00000000        0x0 build/default/debug/_ext/1881668453/sys_int.o
 .data          0x00000000        0x0 build/default/debug/_ext/1881668453/sys_int.o
 .bss           0x00000000        0x0 build/default/debug/_ext/1881668453/sys_int.o
 .text.SYS_INT_Enable
                0x00000000        0x8 build/default/debug/_ext/1881668453/sys_int.o
 .text          0x00000000        0x0 build/default/debug/_ext/101884895/sys_time.o
 .data          0x00000000        0x0 build/default/debug/_ext/101884895/sys_time.o
 .bss           0x00000000        0x0 build/default/debug/_ext/101884895/sys_time.o
 .text.SYS_TIME_Deinitialize
                0x00000000       0x30 build/default/debug/_ext/101884895/sys_time.o
 .text.SYS_TIME_Status
                0x00000000       0x18 build/default/debug/_ext/101884895/sys_time.o
 .text.SYS_TIME_FrequencyGet
                0x00000000        0xc build/default/debug/_ext/101884895/sys_time.o
 .text.SYS_TIME_CounterSet
                0x00000000       0x1c build/default/debug/_ext/101884895/sys_time.o
 .text.SYS_TIME_CountToMS
                0x00000000       0x20 build/default/debug/_ext/101884895/sys_time.o
 .text.SYS_TIME_MSToCount
                0x00000000       0x20 build/default/debug/_ext/101884895/sys_time.o
 .text.SYS_TIME_TimerReload
                0x00000000       0x9c build/default/debug/_ext/101884895/sys_time.o
 .text.SYS_TIME_TimerStop
                0x00000000       0x40 build/default/debug/_ext/101884895/sys_time.o
 .text.SYS_TIME_TimerCounterGet
                0x00000000       0x88 build/default/debug/_ext/101884895/sys_time.o
 .text.SYS_TIME_DelayMS
                0x00000000       0x54 build/default/debug/_ext/101884895/sys_time.o
 .text.SYS_TIME_CallbackRegisterUS
                0x00000000       0x5c build/default/debug/_ext/101884895/sys_time.o
 .text.SYS_TIME_CallbackRegisterMS
                0x00000000       0x58 build/default/debug/_ext/101884895/sys_time.o
 .text          0x00000000        0x0 build/default/debug/_ext/1171490990/exceptions.o
 .data          0x00000000        0x0 build/default/debug/_ext/1171490990/exceptions.o
 .bss           0x00000000        0x0 build/default/debug/_ext/1171490990/exceptions.o
 .text          0x00000000        0x0 build/default/debug/_ext/1171490990/freertos_hooks.o
 .data          0x00000000        0x0 build/default/debug/_ext/1171490990/freertos_hooks.o
 .bss           0x00000000        0x0 build/default/debug/_ext/1171490990/freertos_hooks.o
 .text.vAssertCalled
                0x00000000       0x1a build/default/debug/_ext/1171490990/freertos_hooks.o
 .text          0x00000000        0x0 build/default/debug/_ext/1171490990/interrupts.o
 .data          0x00000000        0x0 build/default/debug/_ext/1171490990/interrupts.o
 .bss           0x00000000        0x0 build/default/debug/_ext/1171490990/interrupts.o
 .text          0x00000000        0x0 build/default/debug/_ext/1171490990/libc_syscalls.o
 .data          0x00000000        0x0 build/default/debug/_ext/1171490990/libc_syscalls.o
 .bss           0x00000000        0x0 build/default/debug/_ext/1171490990/libc_syscalls.o
 .text._exit    0x00000000        0x4 build/default/debug/_ext/1171490990/libc_syscalls.o
 .debug_info    0x00000000      0x2fa build/default/debug/_ext/1171490990/libc_syscalls.o
 .debug_abbrev  0x00000000       0x4f build/default/debug/_ext/1171490990/libc_syscalls.o
 .debug_aranges
                0x00000000       0x20 build/default/debug/_ext/1171490990/libc_syscalls.o
 .debug_ranges  0x00000000       0x10 build/default/debug/_ext/1171490990/libc_syscalls.o
 .debug_line    0x00000000       0x5c build/default/debug/_ext/1171490990/libc_syscalls.o
 .debug_str     0x00000000        0x0 build/default/debug/_ext/1171490990/libc_syscalls.o
 .comment       0x00000000       0x2c build/default/debug/_ext/1171490990/libc_syscalls.o
 .debug_frame   0x00000000       0x20 build/default/debug/_ext/1171490990/libc_syscalls.o
 .ARM.attributes
                0x00000000       0x2c build/default/debug/_ext/1171490990/libc_syscalls.o
 .text          0x00000000        0x0 build/default/debug/_ext/1171490990/startup_xc32.o
 .data          0x00000000        0x0 build/default/debug/_ext/1171490990/startup_xc32.o
 .bss           0x00000000        0x0 build/default/debug/_ext/1171490990/startup_xc32.o
 .text          0x00000000        0x0 build/default/debug/_ext/1171490990/initialization.o
 .data          0x00000000        0x0 build/default/debug/_ext/1171490990/initialization.o
 .bss           0x00000000        0x0 build/default/debug/_ext/1171490990/initialization.o
 .text          0x00000000        0x0 build/default/debug/_ext/1171490990/tasks.o
 .data          0x00000000        0x0 build/default/debug/_ext/1171490990/tasks.o
 .bss           0x00000000        0x0 build/default/debug/_ext/1171490990/tasks.o
 .bss.xPHY_Tasks
                0x00000000        0x4 build/default/debug/_ext/1171490990/tasks.o
 .text          0x00000000        0x0 build/default/debug/_ext/1624415188/port.o
 .data          0x00000000        0x0 build/default/debug/_ext/1624415188/port.o
 .bss           0x00000000        0x0 build/default/debug/_ext/1624415188/port.o
 .text.vPortEndScheduler
                0x00000000        0x2 build/default/debug/_ext/1624415188/port.o
 .text          0x00000000        0x0 build/default/debug/_ext/1665200909/heap_4.o
 .data          0x00000000        0x0 build/default/debug/_ext/1665200909/heap_4.o
 .bss           0x00000000        0x0 build/default/debug/_ext/1665200909/heap_4.o
 .text.xPortGetFreeHeapSize
                0x00000000        0xc build/default/debug/_ext/1665200909/heap_4.o
 .text.xPortGetMinimumEverFreeHeapSize
                0x00000000        0xc build/default/debug/_ext/1665200909/heap_4.o
 .text.vPortInitialiseBlocks
                0x00000000        0x2 build/default/debug/_ext/1665200909/heap_4.o
 .text.vPortGetHeapStats
                0x00000000       0x84 build/default/debug/_ext/1665200909/heap_4.o
 .text          0x00000000        0x0 build/default/debug/_ext/404212886/FreeRTOS_tasks.o
 .data          0x00000000        0x0 build/default/debug/_ext/404212886/FreeRTOS_tasks.o
 .bss           0x00000000        0x0 build/default/debug/_ext/404212886/FreeRTOS_tasks.o
 .text.vTaskDelete
                0x00000000       0x98 build/default/debug/_ext/404212886/FreeRTOS_tasks.o
 .text.eTaskGetState
                0x00000000       0x78 build/default/debug/_ext/404212886/FreeRTOS_tasks.o
 .text.uxTaskPriorityGet
                0x00000000       0x20 build/default/debug/_ext/404212886/FreeRTOS_tasks.o
 .text.uxTaskPriorityGetFromISR
                0x00000000       0x20 build/default/debug/_ext/404212886/FreeRTOS_tasks.o
 .text.vTaskPrioritySet
                0x00000000       0xb4 build/default/debug/_ext/404212886/FreeRTOS_tasks.o
 .text.vTaskResume
                0x00000000       0x7c build/default/debug/_ext/404212886/FreeRTOS_tasks.o
 .text.vTaskEndScheduler
                0x00000000       0x14 build/default/debug/_ext/404212886/FreeRTOS_tasks.o
 .text.xTaskGetTickCountFromISR
                0x00000000        0xc build/default/debug/_ext/404212886/FreeRTOS_tasks.o
 .text.uxTaskGetNumberOfTasks
                0x00000000        0xc build/default/debug/_ext/404212886/FreeRTOS_tasks.o
 .text.pcTaskGetName
                0x00000000       0x14 build/default/debug/_ext/404212886/FreeRTOS_tasks.o
 .text.vTaskDelayUntil
                0x00000000       0x54 build/default/debug/_ext/404212886/FreeRTOS_tasks.o
 .text.vTaskDelay
                0x00000000       0x20 build/default/debug/_ext/404212886/FreeRTOS_tasks.o
 .text.xTaskCatchUpTicks
                0x00000000       0x1c build/default/debug/_ext/404212886/FreeRTOS_tasks.o
 .text.xTaskAbortDelay
                0x00000000       0x84 build/default/debug/_ext/404212886/FreeRTOS_tasks.o
 .text.vTaskSuspend
                0x00000000       0x9c build/default/debug/_ext/404212886/FreeRTOS_tasks.o
 .text.vTaskPlaceOnUnorderedEventList
                0x00000000       0x28 build/default/debug/_ext/404212886/FreeRTOS_tasks.o
 .text.vTaskRemoveFromUnorderedEventList
                0x00000000       0x5c build/default/debug/_ext/404212886/FreeRTOS_tasks.o
 .text.vTaskSetTimeOutState
                0x00000000       0x24 build/default/debug/_ext/404212886/FreeRTOS_tasks.o
 .text.xTaskGetCurrentTaskHandle
                0x00000000        0xc build/default/debug/_ext/404212886/FreeRTOS_tasks.o
 .text.uxTaskResetEventItemValue
                0x00000000       0x18 build/default/debug/_ext/404212886/FreeRTOS_tasks.o
 .text.ulTaskNotifyTake
                0x00000000       0x6c build/default/debug/_ext/404212886/FreeRTOS_tasks.o
 .text.xTaskNotifyWait
                0x00000000       0x84 build/default/debug/_ext/404212886/FreeRTOS_tasks.o
 .text.xTaskGenericNotify
                0x00000000       0xa4 build/default/debug/_ext/404212886/FreeRTOS_tasks.o
 .text.xTaskGenericNotifyFromISR
                0x00000000       0xdc build/default/debug/_ext/404212886/FreeRTOS_tasks.o
 .text.vTaskNotifyGiveFromISR
                0x00000000       0x94 build/default/debug/_ext/404212886/FreeRTOS_tasks.o
 .text.xTaskNotifyStateClear
                0x00000000       0x30 build/default/debug/_ext/404212886/FreeRTOS_tasks.o
 .text.ulTaskNotifyValueClear
                0x00000000       0x2c build/default/debug/_ext/404212886/FreeRTOS_tasks.o
 .text          0x00000000        0x0 build/default/debug/_ext/404212886/timers.o
 .data          0x00000000        0x0 build/default/debug/_ext/404212886/timers.o
 .bss           0x00000000        0x0 build/default/debug/_ext/404212886/timers.o
 .text.xTimerGetTimerDaemonTaskHandle
                0x00000000        0xc build/default/debug/_ext/404212886/timers.o
 .text.xTimerGetPeriod
                0x00000000        0x4 build/default/debug/_ext/404212886/timers.o
 .text.vTimerSetReloadMode
                0x00000000       0x2a build/default/debug/_ext/404212886/timers.o
 .text.uxTimerGetReloadMode
                0x00000000       0x18 build/default/debug/_ext/404212886/timers.o
 .text.xTimerGetExpiryTime
                0x00000000        0x4 build/default/debug/_ext/404212886/timers.o
 .text.pcTimerGetName
                0x00000000        0x4 build/default/debug/_ext/404212886/timers.o
 .text.xTimerIsTimerActive
                0x00000000       0x18 build/default/debug/_ext/404212886/timers.o
 .text.pvTimerGetTimerID
                0x00000000       0x12 build/default/debug/_ext/404212886/timers.o
 .text.vTimerSetTimerID
                0x00000000       0x12 build/default/debug/_ext/404212886/timers.o
 .text          0x00000000        0x0 build/default/debug/_ext/404212886/queue.o
 .data          0x00000000        0x0 build/default/debug/_ext/404212886/queue.o
 .bss           0x00000000        0x0 build/default/debug/_ext/404212886/queue.o
 .text.xQueuePeek
                0x00000000       0xea build/default/debug/_ext/404212886/queue.o
 .text.xQueueReceiveFromISR
                0x00000000       0x6a build/default/debug/_ext/404212886/queue.o
 .text.xQueuePeekFromISR
                0x00000000       0x2e build/default/debug/_ext/404212886/queue.o
 .text.uxQueueSpacesAvailable
                0x00000000       0x16 build/default/debug/_ext/404212886/queue.o
 .text.uxQueueMessagesWaitingFromISR
                0x00000000        0x4 build/default/debug/_ext/404212886/queue.o
 .text.vQueueDelete
                0x00000000        0x8 build/default/debug/_ext/404212886/queue.o
 .text.xQueueIsQueueEmptyFromISR
                0x00000000        0x8 build/default/debug/_ext/404212886/queue.o
 .text.xQueueRemoveFromSet
                0x00000000       0x24 build/default/debug/_ext/404212886/queue.o
 .text.xQueueSelectFromSetFromISR
                0x00000000       0x16 build/default/debug/_ext/404212886/queue.o
 .text          0x00000000        0x0 build/default/debug/_ext/404212886/event_groups.o
 .data          0x00000000        0x0 build/default/debug/_ext/404212886/event_groups.o
 .bss           0x00000000        0x0 build/default/debug/_ext/404212886/event_groups.o
 .text.xEventGroupCreate
                0x00000000       0x18 build/default/debug/_ext/404212886/event_groups.o
 .text.xEventGroupWaitBits
                0x00000000       0xbc build/default/debug/_ext/404212886/event_groups.o
 .text.xEventGroupClearBits
                0x00000000       0x1a build/default/debug/_ext/404212886/event_groups.o
 .text.xEventGroupGetBitsFromISR
                0x00000000       0x12 build/default/debug/_ext/404212886/event_groups.o
 .text.xEventGroupSetBits
                0x00000000       0x64 build/default/debug/_ext/404212886/event_groups.o
 .text.xEventGroupSync
                0x00000000       0x86 build/default/debug/_ext/404212886/event_groups.o
 .text.vEventGroupDelete
                0x00000000       0x2c build/default/debug/_ext/404212886/event_groups.o
 .text.vEventGroupSetBitsCallback
                0x00000000        0x8 build/default/debug/_ext/404212886/event_groups.o
 .text.vEventGroupClearBitsCallback
                0x00000000        0x8 build/default/debug/_ext/404212886/event_groups.o
 .debug_info    0x00000000      0xed4 build/default/debug/_ext/404212886/event_groups.o
 .debug_abbrev  0x00000000      0x24d build/default/debug/_ext/404212886/event_groups.o
 .debug_loc     0x00000000      0xce1 build/default/debug/_ext/404212886/event_groups.o
 .debug_aranges
                0x00000000       0x60 build/default/debug/_ext/404212886/event_groups.o
 .debug_ranges  0x00000000       0x98 build/default/debug/_ext/404212886/event_groups.o
 .debug_line    0x00000000      0x5d0 build/default/debug/_ext/404212886/event_groups.o
 .debug_str     0x00000000      0x1ec build/default/debug/_ext/404212886/event_groups.o
 .comment       0x00000000       0x2c build/default/debug/_ext/404212886/event_groups.o
 .debug_frame   0x00000000      0x10c build/default/debug/_ext/404212886/event_groups.o
 .ARM.attributes
                0x00000000       0x2c build/default/debug/_ext/404212886/event_groups.o
 .text          0x00000000        0x0 build/default/debug/_ext/404212886/croutine.o
 .data          0x00000000        0x0 build/default/debug/_ext/404212886/croutine.o
 .bss           0x00000000        0x0 build/default/debug/_ext/404212886/croutine.o
 .debug_info    0x00000000      0x2df build/default/debug/_ext/404212886/croutine.o
 .debug_abbrev  0x00000000       0x1b build/default/debug/_ext/404212886/croutine.o
 .debug_aranges
                0x00000000       0x18 build/default/debug/_ext/404212886/croutine.o
 .debug_line    0x00000000       0x1d build/default/debug/_ext/404212886/croutine.o
 .debug_str     0x00000000        0x0 build/default/debug/_ext/404212886/croutine.o
 .comment       0x00000000       0x2c build/default/debug/_ext/404212886/croutine.o
 .ARM.attributes
                0x00000000       0x32 build/default/debug/_ext/404212886/croutine.o
 .text          0x00000000        0x0 build/default/debug/_ext/404212886/list.o
 .data          0x00000000        0x0 build/default/debug/_ext/404212886/list.o
 .bss           0x00000000        0x0 build/default/debug/_ext/404212886/list.o
 .text          0x00000000        0x0 build/default/debug/_ext/404212886/stream_buffer.o
 .data          0x00000000        0x0 build/default/debug/_ext/404212886/stream_buffer.o
 .bss           0x00000000        0x0 build/default/debug/_ext/404212886/stream_buffer.o
 .text.prvBytesInBuffer
                0x00000000       0x12 build/default/debug/_ext/404212886/stream_buffer.o
 .text.prvWriteBytesToBuffer
                0x00000000       0x46 build/default/debug/_ext/404212886/stream_buffer.o
 .text.prvReadBytesFromBuffer
                0x00000000       0x52 build/default/debug/_ext/404212886/stream_buffer.o
 .text.xStreamBufferGenericCreate
                0x00000000       0x3a build/default/debug/_ext/404212886/stream_buffer.o
 .text.vStreamBufferDelete
                0x00000000       0x18 build/default/debug/_ext/404212886/stream_buffer.o
 .text.xStreamBufferReset
                0x00000000       0x48 build/default/debug/_ext/404212886/stream_buffer.o
 .text.xStreamBufferSetTriggerLevel
                0x00000000       0x16 build/default/debug/_ext/404212886/stream_buffer.o
 .text.xStreamBufferSpacesAvailable
                0x00000000       0x14 build/default/debug/_ext/404212886/stream_buffer.o
 .text.xStreamBufferBytesAvailable
                0x00000000        0x8 build/default/debug/_ext/404212886/stream_buffer.o
 .text.xStreamBufferSend
                0x00000000       0xd6 build/default/debug/_ext/404212886/stream_buffer.o
 .text.xStreamBufferSendFromISR
                0x00000000       0x88 build/default/debug/_ext/404212886/stream_buffer.o
 .text.xStreamBufferReceive
                0x00000000       0xc0 build/default/debug/_ext/404212886/stream_buffer.o
 .text.xStreamBufferNextMessageLengthBytes
                0x00000000       0x32 build/default/debug/_ext/404212886/stream_buffer.o
 .text.xStreamBufferReceiveFromISR
                0x00000000       0x8e build/default/debug/_ext/404212886/stream_buffer.o
 .text.xStreamBufferIsEmpty
                0x00000000        0xc build/default/debug/_ext/404212886/stream_buffer.o
 .text.xStreamBufferIsFull
                0x00000000       0x18 build/default/debug/_ext/404212886/stream_buffer.o
 .text.xStreamBufferSendCompletedFromISR
                0x00000000       0x36 build/default/debug/_ext/404212886/stream_buffer.o
 .text.xStreamBufferReceiveCompletedFromISR
                0x00000000       0x36 build/default/debug/_ext/404212886/stream_buffer.o
 .debug_info    0x00000000     0x1bfd build/default/debug/_ext/404212886/stream_buffer.o
 .debug_abbrev  0x00000000      0x349 build/default/debug/_ext/404212886/stream_buffer.o
 .debug_loc     0x00000000     0x1c1f build/default/debug/_ext/404212886/stream_buffer.o
 .debug_aranges
                0x00000000       0xa8 build/default/debug/_ext/404212886/stream_buffer.o
 .debug_ranges  0x00000000      0x130 build/default/debug/_ext/404212886/stream_buffer.o
 .debug_line    0x00000000      0xac2 build/default/debug/_ext/404212886/stream_buffer.o
 .debug_str     0x00000000      0x269 build/default/debug/_ext/404212886/stream_buffer.o
 .comment       0x00000000       0x2c build/default/debug/_ext/404212886/stream_buffer.o
 .debug_frame   0x00000000      0x200 build/default/debug/_ext/404212886/stream_buffer.o
 .ARM.attributes
                0x00000000       0x2c build/default/debug/_ext/404212886/stream_buffer.o
 .text          0x00000000        0x0 build/default/debug/_ext/1360937237/app.o
 .data          0x00000000        0x0 build/default/debug/_ext/1360937237/app.o
 .bss           0x00000000        0x0 build/default/debug/_ext/1360937237/app.o
 .text          0x00000000        0x0 build/default/debug/_ext/1360937237/main.o
 .data          0x00000000        0x0 build/default/debug/_ext/1360937237/main.o
 .bss           0x00000000        0x0 build/default/debug/_ext/1360937237/main.o
 .text          0x00000000        0x0 build/default/debug/_ext/1360937237/app_idle_task.o
 .data          0x00000000        0x0 build/default/debug/_ext/1360937237/app_idle_task.o
 .bss           0x00000000        0x0 build/default/debug/_ext/1360937237/app_idle_task.o
 .text.app_idle_task
                0x00000000        0x2 build/default/debug/_ext/1360937237/app_idle_task.o
 .debug_info    0x00000000      0x2f8 build/default/debug/_ext/1360937237/app_idle_task.o
 .debug_abbrev  0x00000000       0x3b build/default/debug/_ext/1360937237/app_idle_task.o
 .debug_aranges
                0x00000000       0x20 build/default/debug/_ext/1360937237/app_idle_task.o
 .debug_ranges  0x00000000       0x10 build/default/debug/_ext/1360937237/app_idle_task.o
 .debug_line    0x00000000       0x49 build/default/debug/_ext/1360937237/app_idle_task.o
 .debug_str     0x00000000        0x0 build/default/debug/_ext/1360937237/app_idle_task.o
 .comment       0x00000000       0x2c build/default/debug/_ext/1360937237/app_idle_task.o
 .debug_frame   0x00000000       0x20 build/default/debug/_ext/1360937237/app_idle_task.o
 .ARM.attributes
                0x00000000       0x2c build/default/debug/_ext/1360937237/app_idle_task.o
 .text          0x00000000        0x0 build/default/debug/_ext/85617168/demo_app_rfd.o
 .data          0x00000000        0x0 build/default/debug/_ext/85617168/demo_app_rfd.o
 .bss           0x00000000        0x0 build/default/debug/_ext/85617168/demo_app_rfd.o
 .text.Handle_DataConf
                0x00000000        0x2 build/default/debug/_ext/85617168/demo_app_rfd.o
 .text          0x00000000        0x0 build/default/debug/_ext/85617168/demo_app_security.o
 .data          0x00000000        0x0 build/default/debug/_ext/85617168/demo_app_security.o
 .bss           0x00000000        0x0 build/default/debug/_ext/85617168/demo_app_security.o
 .debug_line    0x00000000        0x0 build/default/debug/_ext/85617168/demo_app_security.o
 .debug_str     0x00000000        0x0 build/default/debug/_ext/85617168/demo_app_security.o
 .comment       0x00000000       0x2c build/default/debug/_ext/85617168/demo_app_security.o
 .ARM.attributes
                0x00000000       0x32 build/default/debug/_ext/85617168/demo_app_security.o
 .text          0x00000000        0x0 build/default/debug/_ext/85617168/usr_mac_callbacks.o
 .data          0x00000000        0x0 build/default/debug/_ext/85617168/usr_mac_callbacks.o
 .bss           0x00000000        0x0 build/default/debug/_ext/85617168/usr_mac_callbacks.o
 .text          0x00000000        0x0 c:/program files/microchip/xc32/v4.35/bin/bin/../../lib/gcc/pic32c/8.3.1/../../../../pic32c/lib/thumb/v6-m/nofp\libpic32c.a(data_init.o)
 .data          0x00000000        0x0 c:/program files/microchip/xc32/v4.35/bin/bin/../../lib/gcc/pic32c/8.3.1/../../../../pic32c/lib/thumb/v6-m/nofp\libpic32c.a(data_init.o)
 .xc_stack_usage
                0x00000000       0x4a c:/program files/microchip/xc32/v4.35/bin/bin/../../lib/gcc/pic32c/8.3.1/../../../../pic32c/lib/thumb/v6-m/nofp\libpic32c.a(data_init.o)
 .xc_stack_usage.hdr
                0x00000000        0xe c:/program files/microchip/xc32/v4.35/bin/bin/../../lib/gcc/pic32c/8.3.1/../../../../pic32c/lib/thumb/v6-m/nofp\libpic32c.a(data_init.o)
 .ARM.attributes
                0x00000000       0x1c c:/program files/microchip/xc32/v4.35/bin/bin/../../lib/gcc/pic32c/8.3.1/../../../../pic32c/lib/thumb/v6-m/nofp\libm-fast-emfloat.a(__aeabi_fadd.o)
 .text.__aeabi_fadd
                0x00000000      0x13a c:/program files/microchip/xc32/v4.35/bin/bin/../../lib/gcc/pic32c/8.3.1/../../../../pic32c/lib/thumb/v6-m/nofp\libm-fast-emfloat.a(__aeabi_fadd.o)
 .xc_stack_usage.hdr
                0x00000000        0xe c:/program files/microchip/xc32/v4.35/bin/bin/../../lib/gcc/pic32c/8.3.1/../../../../pic32c/lib/thumb/v6-m/nofp\libm-fast-emfloat.a(__aeabi_fadd.o)
 .xc_stack_usage
                0x00000000       0x41 c:/program files/microchip/xc32/v4.35/bin/bin/../../lib/gcc/pic32c/8.3.1/../../../../pic32c/lib/thumb/v6-m/nofp\libm-fast-emfloat.a(__aeabi_fadd.o)
 .xc_stack_usage.hdr
                0x00000000        0xe c:/program files/microchip/xc32/v4.35/bin/bin/../../lib/gcc/pic32c/8.3.1/../../../../pic32c/lib/thumb/v6-m/nofp\libm-fast-emfloat.a(__aeabi_dadd.o)
 .xc_stack_usage
                0x00000000       0x41 c:/program files/microchip/xc32/v4.35/bin/bin/../../lib/gcc/pic32c/8.3.1/../../../../pic32c/lib/thumb/v6-m/nofp\libm-fast-emfloat.a(__aeabi_dadd.o)
 .ARM.attributes
                0x00000000       0x1c c:/program files/microchip/xc32/v4.35/bin/bin/../../lib/gcc/pic32c/8.3.1/../../../../pic32c/lib/thumb/v6-m/nofp\libm-fast-emfloat.a(__aeabi_fsub.o)
 .text.__aeabi_fsub
                0x00000000       0x10 c:/program files/microchip/xc32/v4.35/bin/bin/../../lib/gcc/pic32c/8.3.1/../../../../pic32c/lib/thumb/v6-m/nofp\libm-fast-emfloat.a(__aeabi_fsub.o)
 .xc_stack_usage.hdr
                0x00000000        0xe c:/program files/microchip/xc32/v4.35/bin/bin/../../lib/gcc/pic32c/8.3.1/../../../../pic32c/lib/thumb/v6-m/nofp\libm-fast-emfloat.a(__aeabi_fsub.o)
 .xc_stack_usage
                0x00000000       0x1a c:/program files/microchip/xc32/v4.35/bin/bin/../../lib/gcc/pic32c/8.3.1/../../../../pic32c/lib/thumb/v6-m/nofp\libm-fast-emfloat.a(__aeabi_fsub.o)
 .xc_stack_usage.hdr
                0x00000000        0xe c:/program files/microchip/xc32/v4.35/bin/bin/../../lib/gcc/pic32c/8.3.1/../../../../pic32c/lib/thumb/v6-m/nofp\libm-fast-emfloat.a(__aeabi_dmul_aux.o)
 .xc_stack_usage
                0x00000000       0x38 c:/program files/microchip/xc32/v4.35/bin/bin/../../lib/gcc/pic32c/8.3.1/../../../../pic32c/lib/thumb/v6-m/nofp\libm-fast-emfloat.a(__aeabi_dmul_aux.o)
 .ARM.attributes
                0x00000000       0x1c c:/program files/microchip/xc32/v4.35/bin/bin/../../lib/gcc/pic32c/8.3.1/../../../../pic32c/lib/thumb/v6-m/nofp\libm-fast-emfloat.a(__aeabi_fcmpgt.o)
 .text.__aeabi_fcmpgt
                0x00000000       0x2e c:/program files/microchip/xc32/v4.35/bin/bin/../../lib/gcc/pic32c/8.3.1/../../../../pic32c/lib/thumb/v6-m/nofp\libm-fast-emfloat.a(__aeabi_fcmpgt.o)
 .xc_stack_usage.hdr
                0x00000000        0xe c:/program files/microchip/xc32/v4.35/bin/bin/../../lib/gcc/pic32c/8.3.1/../../../../pic32c/lib/thumb/v6-m/nofp\libm-fast-emfloat.a(__aeabi_fcmpgt.o)
 .xc_stack_usage
                0x00000000       0x1c c:/program files/microchip/xc32/v4.35/bin/bin/../../lib/gcc/pic32c/8.3.1/../../../../pic32c/lib/thumb/v6-m/nofp\libm-fast-emfloat.a(__aeabi_fcmpgt.o)
 .ARM.attributes
                0x00000000       0x1c c:/program files/microchip/xc32/v4.35/bin/bin/../../lib/gcc/pic32c/8.3.1/../../../../pic32c/lib/thumb/v6-m/nofp\libm-fast-emfloat.a(__aeabi_fcmplt.o)
 .text.__aeabi_fcmplt
                0x00000000       0x2e c:/program files/microchip/xc32/v4.35/bin/bin/../../lib/gcc/pic32c/8.3.1/../../../../pic32c/lib/thumb/v6-m/nofp\libm-fast-emfloat.a(__aeabi_fcmplt.o)
 .xc_stack_usage.hdr
                0x00000000        0xe c:/program files/microchip/xc32/v4.35/bin/bin/../../lib/gcc/pic32c/8.3.1/../../../../pic32c/lib/thumb/v6-m/nofp\libm-fast-emfloat.a(__aeabi_fcmplt.o)
 .xc_stack_usage
                0x00000000       0x1c c:/program files/microchip/xc32/v4.35/bin/bin/../../lib/gcc/pic32c/8.3.1/../../../../pic32c/lib/thumb/v6-m/nofp\libm-fast-emfloat.a(__aeabi_fcmplt.o)
 .ARM.attributes
                0x00000000       0x1c c:/program files/microchip/xc32/v4.35/bin/bin/../../lib/gcc/pic32c/8.3.1/../../../../pic32c/lib/thumb/v6-m/nofp\libm-fast-emfloat.a(__aeabi_f2iz.o)
 .text.__aeabi_f2iz
                0x00000000       0x3e c:/program files/microchip/xc32/v4.35/bin/bin/../../lib/gcc/pic32c/8.3.1/../../../../pic32c/lib/thumb/v6-m/nofp\libm-fast-emfloat.a(__aeabi_f2iz.o)
 .xc_stack_usage.hdr
                0x00000000        0xe c:/program files/microchip/xc32/v4.35/bin/bin/../../lib/gcc/pic32c/8.3.1/../../../../pic32c/lib/thumb/v6-m/nofp\libm-fast-emfloat.a(__aeabi_f2iz.o)
 .xc_stack_usage
                0x00000000       0x1a c:/program files/microchip/xc32/v4.35/bin/bin/../../lib/gcc/pic32c/8.3.1/../../../../pic32c/lib/thumb/v6-m/nofp\libm-fast-emfloat.a(__aeabi_f2iz.o)
 .ARM.attributes
                0x00000000       0x1c c:/program files/microchip/xc32/v4.35/bin/bin/../../lib/gcc/pic32c/8.3.1/../../../../pic32c/lib/thumb/v6-m/nofp\libm-fast-emfloat.a(__aeabi_f2uiz.o)
 .text.__aeabi_f2uiz
                0x00000000       0x24 c:/program files/microchip/xc32/v4.35/bin/bin/../../lib/gcc/pic32c/8.3.1/../../../../pic32c/lib/thumb/v6-m/nofp\libm-fast-emfloat.a(__aeabi_f2uiz.o)
 .xc_stack_usage.hdr
                0x00000000        0xe c:/program files/microchip/xc32/v4.35/bin/bin/../../lib/gcc/pic32c/8.3.1/../../../../pic32c/lib/thumb/v6-m/nofp\libm-fast-emfloat.a(__aeabi_f2uiz.o)
 .xc_stack_usage
                0x00000000       0x1b c:/program files/microchip/xc32/v4.35/bin/bin/../../lib/gcc/pic32c/8.3.1/../../../../pic32c/lib/thumb/v6-m/nofp\libm-fast-emfloat.a(__aeabi_f2uiz.o)
 .ARM.attributes
                0x00000000       0x1c c:/program files/microchip/xc32/v4.35/bin/bin/../../lib/gcc/pic32c/8.3.1/../../../../pic32c/lib/thumb/v6-m/nofp\libm-fast-emfloat.a(__aeabi_ui2f.o)
 .text.__aeabi_ui2f
                0x00000000       0x1e c:/program files/microchip/xc32/v4.35/bin/bin/../../lib/gcc/pic32c/8.3.1/../../../../pic32c/lib/thumb/v6-m/nofp\libm-fast-emfloat.a(__aeabi_ui2f.o)
 .xc_stack_usage.hdr
                0x00000000        0xe c:/program files/microchip/xc32/v4.35/bin/bin/../../lib/gcc/pic32c/8.3.1/../../../../pic32c/lib/thumb/v6-m/nofp\libm-fast-emfloat.a(__aeabi_ui2f.o)
 .xc_stack_usage
                0x00000000       0x1a c:/program files/microchip/xc32/v4.35/bin/bin/../../lib/gcc/pic32c/8.3.1/../../../../pic32c/lib/thumb/v6-m/nofp\libm-fast-emfloat.a(__aeabi_ui2f.o)
 .ARM.attributes
                0x00000000       0x1c c:/program files/microchip/xc32/v4.35/bin/bin/../../lib/gcc/pic32c/8.3.1/../../../../pic32c/lib/thumb/v6-m/nofp\libm-fast-emfloat.a(__aeabi_f2d.o)
 .text.__aeabi_f2d
                0x00000000       0x44 c:/program files/microchip/xc32/v4.35/bin/bin/../../lib/gcc/pic32c/8.3.1/../../../../pic32c/lib/thumb/v6-m/nofp\libm-fast-emfloat.a(__aeabi_f2d.o)
 .xc_stack_usage.hdr
                0x00000000        0xe c:/program files/microchip/xc32/v4.35/bin/bin/../../lib/gcc/pic32c/8.3.1/../../../../pic32c/lib/thumb/v6-m/nofp\libm-fast-emfloat.a(__aeabi_f2d.o)
 .xc_stack_usage
                0x00000000       0x19 c:/program files/microchip/xc32/v4.35/bin/bin/../../lib/gcc/pic32c/8.3.1/../../../../pic32c/lib/thumb/v6-m/nofp\libm-fast-emfloat.a(__aeabi_f2d.o)
 .ARM.attributes
                0x00000000       0x1c c:/program files/microchip/xc32/v4.35/bin/bin/../../lib/gcc/pic32c/8.3.1/../../../../pic32c/lib/thumb/v6-m/nofp\libm-fast-emfloat.a(__aeabi_d2f.o)
 .text.__aeabi_d2f
                0x00000000       0x62 c:/program files/microchip/xc32/v4.35/bin/bin/../../lib/gcc/pic32c/8.3.1/../../../../pic32c/lib/thumb/v6-m/nofp\libm-fast-emfloat.a(__aeabi_d2f.o)
 .xc_stack_usage.hdr
                0x00000000        0xe c:/program files/microchip/xc32/v4.35/bin/bin/../../lib/gcc/pic32c/8.3.1/../../../../pic32c/lib/thumb/v6-m/nofp\libm-fast-emfloat.a(__aeabi_d2f.o)
 .xc_stack_usage
                0x00000000       0x19 c:/program files/microchip/xc32/v4.35/bin/bin/../../lib/gcc/pic32c/8.3.1/../../../../pic32c/lib/thumb/v6-m/nofp\libm-fast-emfloat.a(__aeabi_d2f.o)
 .text          0x00000000        0x0 c:/program files/microchip/xc32/v4.35/bin/bin/../../lib/gcc/pic32c/8.3.1/../../../../pic32c/lib/thumb/v6-m/nofp\libg-musl.a(__libc_start_main.o)
 .data          0x00000000        0x0 c:/program files/microchip/xc32/v4.35/bin/bin/../../lib/gcc/pic32c/8.3.1/../../../../pic32c/lib/thumb/v6-m/nofp\libg-musl.a(__libc_start_main.o)
 .bss           0x00000000        0x0 c:/program files/microchip/xc32/v4.35/bin/bin/../../lib/gcc/pic32c/8.3.1/../../../../pic32c/lib/thumb/v6-m/nofp\libg-musl.a(__libc_start_main.o)
 .xc_stack_usage
                0x00000000       0x34 c:/program files/microchip/xc32/v4.35/bin/bin/../../lib/gcc/pic32c/8.3.1/../../../../pic32c/lib/thumb/v6-m/nofp\libg-musl.a(__libc_start_main.o)
 .xc_stack_usage.hdr
                0x00000000        0xe c:/program files/microchip/xc32/v4.35/bin/bin/../../lib/gcc/pic32c/8.3.1/../../../../pic32c/lib/thumb/v6-m/nofp\libg-musl.a(__libc_start_main.o)
 .text          0x00000000        0x0 c:/program files/microchip/xc32/v4.35/bin/bin/../../lib/gcc/pic32c/8.3.1/../../../../pic32c/lib/thumb/v6-m/nofp\libg-musl.a(libc.o)
 .data          0x00000000        0x0 c:/program files/microchip/xc32/v4.35/bin/bin/../../lib/gcc/pic32c/8.3.1/../../../../pic32c/lib/thumb/v6-m/nofp\libg-musl.a(libc.o)
 .xc_stack_usage.hdr
                0x00000000        0xe c:/program files/microchip/xc32/v4.35/bin/bin/../../lib/gcc/pic32c/8.3.1/../../../../pic32c/lib/thumb/v6-m/nofp\libg-musl.a(libc.o)
 .text          0x00000000        0x0 c:/program files/microchip/xc32/v4.35/bin/bin/../../lib/gcc/pic32c/8.3.1/../../../../pic32c/lib/thumb/v6-m/nofp\libg-musl.a(rand.o)
 .data          0x00000000        0x0 c:/program files/microchip/xc32/v4.35/bin/bin/../../lib/gcc/pic32c/8.3.1/../../../../pic32c/lib/thumb/v6-m/nofp\libg-musl.a(rand.o)
 .xc_stack_usage
                0x00000000       0x25 c:/program files/microchip/xc32/v4.35/bin/bin/../../lib/gcc/pic32c/8.3.1/../../../../pic32c/lib/thumb/v6-m/nofp\libg-musl.a(rand.o)
 .xc_stack_usage.hdr
                0x00000000        0xe c:/program files/microchip/xc32/v4.35/bin/bin/../../lib/gcc/pic32c/8.3.1/../../../../pic32c/lib/thumb/v6-m/nofp\libg-musl.a(rand.o)
 .text          0x00000000        0x0 c:/program files/microchip/xc32/v4.35/bin/bin/../../lib/gcc/pic32c/8.3.1/../../../../pic32c/lib/thumb/v6-m/nofp\libg-musl.a(vsnprintf.o)
 .data          0x00000000        0x0 c:/program files/microchip/xc32/v4.35/bin/bin/../../lib/gcc/pic32c/8.3.1/../../../../pic32c/lib/thumb/v6-m/nofp\libg-musl.a(vsnprintf.o)
 .bss           0x00000000        0x0 c:/program files/microchip/xc32/v4.35/bin/bin/../../lib/gcc/pic32c/8.3.1/../../../../pic32c/lib/thumb/v6-m/nofp\libg-musl.a(vsnprintf.o)
 .xc_stack_usage
                0x00000000       0x17 c:/program files/microchip/xc32/v4.35/bin/bin/../../lib/gcc/pic32c/8.3.1/../../../../pic32c/lib/thumb/v6-m/nofp\libg-musl.a(vsnprintf.o)
 .xc_stack_usage.hdr
                0x00000000        0xe c:/program files/microchip/xc32/v4.35/bin/bin/../../lib/gcc/pic32c/8.3.1/../../../../pic32c/lib/thumb/v6-m/nofp\libg-musl.a(vsnprintf.o)
 .text          0x00000000        0x0 c:/program files/microchip/xc32/v4.35/bin/bin/../../lib/gcc/pic32c/8.3.1/../../../../pic32c/lib/thumb/v6-m/nofp\libg-musl.a(memcpy.o)
 .data          0x00000000        0x0 c:/program files/microchip/xc32/v4.35/bin/bin/../../lib/gcc/pic32c/8.3.1/../../../../pic32c/lib/thumb/v6-m/nofp\libg-musl.a(memcpy.o)
 .bss           0x00000000        0x0 c:/program files/microchip/xc32/v4.35/bin/bin/../../lib/gcc/pic32c/8.3.1/../../../../pic32c/lib/thumb/v6-m/nofp\libg-musl.a(memcpy.o)
 .xc_stack_usage
                0x00000000       0x14 c:/program files/microchip/xc32/v4.35/bin/bin/../../lib/gcc/pic32c/8.3.1/../../../../pic32c/lib/thumb/v6-m/nofp\libg-musl.a(memcpy.o)
 .xc_stack_usage.hdr
                0x00000000        0xe c:/program files/microchip/xc32/v4.35/bin/bin/../../lib/gcc/pic32c/8.3.1/../../../../pic32c/lib/thumb/v6-m/nofp\libg-musl.a(memcpy.o)
 .text          0x00000000        0x0 c:/program files/microchip/xc32/v4.35/bin/bin/../../lib/gcc/pic32c/8.3.1/../../../../pic32c/lib/thumb/v6-m/nofp\libg-musl.a(memset.o)
 .data          0x00000000        0x0 c:/program files/microchip/xc32/v4.35/bin/bin/../../lib/gcc/pic32c/8.3.1/../../../../pic32c/lib/thumb/v6-m/nofp\libg-musl.a(memset.o)
 .bss           0x00000000        0x0 c:/program files/microchip/xc32/v4.35/bin/bin/../../lib/gcc/pic32c/8.3.1/../../../../pic32c/lib/thumb/v6-m/nofp\libg-musl.a(memset.o)
 .xc_stack_usage
                0x00000000       0x14 c:/program files/microchip/xc32/v4.35/bin/bin/../../lib/gcc/pic32c/8.3.1/../../../../pic32c/lib/thumb/v6-m/nofp\libg-musl.a(memset.o)
 .xc_stack_usage.hdr
                0x00000000        0xe c:/program files/microchip/xc32/v4.35/bin/bin/../../lib/gcc/pic32c/8.3.1/../../../../pic32c/lib/thumb/v6-m/nofp\libg-musl.a(memset.o)
 .text          0x00000000        0x0 c:/program files/microchip/xc32/v4.35/bin/bin/../../lib/gcc/pic32c/8.3.1/../../../../pic32c/lib/thumb/v6-m/nofp\libg-musl.a(strlen.o)
 .data          0x00000000        0x0 c:/program files/microchip/xc32/v4.35/bin/bin/../../lib/gcc/pic32c/8.3.1/../../../../pic32c/lib/thumb/v6-m/nofp\libg-musl.a(strlen.o)
 .bss           0x00000000        0x0 c:/program files/microchip/xc32/v4.35/bin/bin/../../lib/gcc/pic32c/8.3.1/../../../../pic32c/lib/thumb/v6-m/nofp\libg-musl.a(strlen.o)
 .xc_stack_usage
                0x00000000       0x14 c:/program files/microchip/xc32/v4.35/bin/bin/../../lib/gcc/pic32c/8.3.1/../../../../pic32c/lib/thumb/v6-m/nofp\libg-musl.a(strlen.o)
 .xc_stack_usage.hdr
                0x00000000        0xe c:/program files/microchip/xc32/v4.35/bin/bin/../../lib/gcc/pic32c/8.3.1/../../../../pic32c/lib/thumb/v6-m/nofp\libg-musl.a(strlen.o)
 .text          0x00000000        0x0 c:/program files/microchip/xc32/v4.35/bin/bin/../../lib/gcc/pic32c/8.3.1/../../../../pic32c/lib/thumb/v6-m/nofp\libg-musl.a(__environ.o)
 .data          0x00000000        0x0 c:/program files/microchip/xc32/v4.35/bin/bin/../../lib/gcc/pic32c/8.3.1/../../../../pic32c/lib/thumb/v6-m/nofp\libg-musl.a(__environ.o)
 .xc_stack_usage.hdr
                0x00000000        0xe c:/program files/microchip/xc32/v4.35/bin/bin/../../lib/gcc/pic32c/8.3.1/../../../../pic32c/lib/thumb/v6-m/nofp\libg-musl.a(__environ.o)
 .text          0x00000000        0x0 c:/program files/microchip/xc32/v4.35/bin/bin/../../lib/gcc/pic32c/8.3.1/../../../../pic32c/lib/thumb/v6-m/nofp\libg-musl.a(__errno_location.o)
 .data          0x00000000        0x0 c:/program files/microchip/xc32/v4.35/bin/bin/../../lib/gcc/pic32c/8.3.1/../../../../pic32c/lib/thumb/v6-m/nofp\libg-musl.a(__errno_location.o)
 .xc_stack_usage.hdr
                0x00000000        0xe c:/program files/microchip/xc32/v4.35/bin/bin/../../lib/gcc/pic32c/8.3.1/../../../../pic32c/lib/thumb/v6-m/nofp\libg-musl.a(__errno_location.o)
 .text          0x00000000        0x0 c:/program files/microchip/xc32/v4.35/bin/bin/../../lib/gcc/pic32c/8.3.1/../../../../pic32c/lib/thumb/v6-m/nofp\libg-musl.a(vfprintf.o)
 .data          0x00000000        0x0 c:/program files/microchip/xc32/v4.35/bin/bin/../../lib/gcc/pic32c/8.3.1/../../../../pic32c/lib/thumb/v6-m/nofp\libg-musl.a(vfprintf.o)
 .bss           0x00000000        0x0 c:/program files/microchip/xc32/v4.35/bin/bin/../../lib/gcc/pic32c/8.3.1/../../../../pic32c/lib/thumb/v6-m/nofp\libg-musl.a(vfprintf.o)
 .xc_stack_usage
                0x00000000       0x38 c:/program files/microchip/xc32/v4.35/bin/bin/../../lib/gcc/pic32c/8.3.1/../../../../pic32c/lib/thumb/v6-m/nofp\libg-musl.a(vfprintf.o)
 .xc_stack_usage.hdr
                0x00000000        0xe c:/program files/microchip/xc32/v4.35/bin/bin/../../lib/gcc/pic32c/8.3.1/../../../../pic32c/lib/thumb/v6-m/nofp\libg-musl.a(vfprintf.o)
 .text          0x00000000        0x0 c:/program files/microchip/xc32/v4.35/bin/bin/../../lib/gcc/pic32c/8.3.1/../../../../pic32c/lib/thumb/v6-m/nofp\libg-musl.a(__io_fmt_needed.o)
 .data          0x00000000        0x0 c:/program files/microchip/xc32/v4.35/bin/bin/../../lib/gcc/pic32c/8.3.1/../../../../pic32c/lib/thumb/v6-m/nofp\libg-musl.a(__io_fmt_needed.o)
 .bss           0x00000000        0x0 c:/program files/microchip/xc32/v4.35/bin/bin/../../lib/gcc/pic32c/8.3.1/../../../../pic32c/lib/thumb/v6-m/nofp\libg-musl.a(__io_fmt_needed.o)
 .xc_stack_usage
                0x00000000       0x1d c:/program files/microchip/xc32/v4.35/bin/bin/../../lib/gcc/pic32c/8.3.1/../../../../pic32c/lib/thumb/v6-m/nofp\libg-musl.a(__io_fmt_needed.o)
 .xc_stack_usage.hdr
                0x00000000        0xe c:/program files/microchip/xc32/v4.35/bin/bin/../../lib/gcc/pic32c/8.3.1/../../../../pic32c/lib/thumb/v6-m/nofp\libg-musl.a(__io_fmt_needed.o)
 .debug_info    0x00000000      0x3e5 c:/program files/microchip/xc32/v4.35/bin/bin/../../lib/gcc/pic32c/8.3.1/../../../../pic32c/lib/thumb/v6-m/nofp\libg-musl.a(__io_fmt_needed.o)
 .debug_abbrev  0x00000000       0x5c c:/program files/microchip/xc32/v4.35/bin/bin/../../lib/gcc/pic32c/8.3.1/../../../../pic32c/lib/thumb/v6-m/nofp\libg-musl.a(__io_fmt_needed.o)
 .debug_loc     0x00000000       0x20 c:/program files/microchip/xc32/v4.35/bin/bin/../../lib/gcc/pic32c/8.3.1/../../../../pic32c/lib/thumb/v6-m/nofp\libg-musl.a(__io_fmt_needed.o)
 .debug_aranges
                0x00000000       0x20 c:/program files/microchip/xc32/v4.35/bin/bin/../../lib/gcc/pic32c/8.3.1/../../../../pic32c/lib/thumb/v6-m/nofp\libg-musl.a(__io_fmt_needed.o)
 .debug_ranges  0x00000000       0x10 c:/program files/microchip/xc32/v4.35/bin/bin/../../lib/gcc/pic32c/8.3.1/../../../../pic32c/lib/thumb/v6-m/nofp\libg-musl.a(__io_fmt_needed.o)
 .debug_line    0x00000000       0xc5 c:/program files/microchip/xc32/v4.35/bin/bin/../../lib/gcc/pic32c/8.3.1/../../../../pic32c/lib/thumb/v6-m/nofp\libg-musl.a(__io_fmt_needed.o)
 .debug_str     0x00000000       0x9e c:/program files/microchip/xc32/v4.35/bin/bin/../../lib/gcc/pic32c/8.3.1/../../../../pic32c/lib/thumb/v6-m/nofp\libg-musl.a(__io_fmt_needed.o)
 .comment       0x00000000       0x2c c:/program files/microchip/xc32/v4.35/bin/bin/../../lib/gcc/pic32c/8.3.1/../../../../pic32c/lib/thumb/v6-m/nofp\libg-musl.a(__io_fmt_needed.o)
 .note.GNU-stack
                0x00000000        0x0 c:/program files/microchip/xc32/v4.35/bin/bin/../../lib/gcc/pic32c/8.3.1/../../../../pic32c/lib/thumb/v6-m/nofp\libg-musl.a(__io_fmt_needed.o)
 .debug_frame   0x00000000       0x28 c:/program files/microchip/xc32/v4.35/bin/bin/../../lib/gcc/pic32c/8.3.1/../../../../pic32c/lib/thumb/v6-m/nofp\libg-musl.a(__io_fmt_needed.o)
 .ARM.attributes
                0x00000000       0x2e c:/program files/microchip/xc32/v4.35/bin/bin/../../lib/gcc/pic32c/8.3.1/../../../../pic32c/lib/thumb/v6-m/nofp\libg-musl.a(__io_fmt_needed.o)
 .text          0x00000000        0x0 c:/program files/microchip/xc32/v4.35/bin/bin/../../lib/gcc/pic32c/8.3.1/../../../../pic32c/lib/thumb/v6-m/nofp\libg-musl.a(__pop_float.o)
 .data          0x00000000        0x0 c:/program files/microchip/xc32/v4.35/bin/bin/../../lib/gcc/pic32c/8.3.1/../../../../pic32c/lib/thumb/v6-m/nofp\libg-musl.a(__pop_float.o)
 .bss           0x00000000        0x0 c:/program files/microchip/xc32/v4.35/bin/bin/../../lib/gcc/pic32c/8.3.1/../../../../pic32c/lib/thumb/v6-m/nofp\libg-musl.a(__pop_float.o)
 .xc_stack_usage
                0x00000000       0x19 c:/program files/microchip/xc32/v4.35/bin/bin/../../lib/gcc/pic32c/8.3.1/../../../../pic32c/lib/thumb/v6-m/nofp\libg-musl.a(__pop_float.o)
 .xc_stack_usage.hdr
                0x00000000        0xe c:/program files/microchip/xc32/v4.35/bin/bin/../../lib/gcc/pic32c/8.3.1/../../../../pic32c/lib/thumb/v6-m/nofp\libg-musl.a(__pop_float.o)
 .text          0x00000000        0x0 c:/program files/microchip/xc32/v4.35/bin/bin/../../lib/gcc/pic32c/8.3.1/../../../../pic32c/lib/thumb/v6-m/nofp\libg-musl.a(__pop_int.o)
 .data          0x00000000        0x0 c:/program files/microchip/xc32/v4.35/bin/bin/../../lib/gcc/pic32c/8.3.1/../../../../pic32c/lib/thumb/v6-m/nofp\libg-musl.a(__pop_int.o)
 .bss           0x00000000        0x0 c:/program files/microchip/xc32/v4.35/bin/bin/../../lib/gcc/pic32c/8.3.1/../../../../pic32c/lib/thumb/v6-m/nofp\libg-musl.a(__pop_int.o)
 .xc_stack_usage
                0x00000000       0x17 c:/program files/microchip/xc32/v4.35/bin/bin/../../lib/gcc/pic32c/8.3.1/../../../../pic32c/lib/thumb/v6-m/nofp\libg-musl.a(__pop_int.o)
 .xc_stack_usage.hdr
                0x00000000        0xe c:/program files/microchip/xc32/v4.35/bin/bin/../../lib/gcc/pic32c/8.3.1/../../../../pic32c/lib/thumb/v6-m/nofp\libg-musl.a(__pop_int.o)
 .text          0x00000000        0x0 c:/program files/microchip/xc32/v4.35/bin/bin/../../lib/gcc/pic32c/8.3.1/../../../../pic32c/lib/thumb/v6-m/nofp\libg-musl.a(__pop_ptr.o)
 .data          0x00000000        0x0 c:/program files/microchip/xc32/v4.35/bin/bin/../../lib/gcc/pic32c/8.3.1/../../../../pic32c/lib/thumb/v6-m/nofp\libg-musl.a(__pop_ptr.o)
 .bss           0x00000000        0x0 c:/program files/microchip/xc32/v4.35/bin/bin/../../lib/gcc/pic32c/8.3.1/../../../../pic32c/lib/thumb/v6-m/nofp\libg-musl.a(__pop_ptr.o)
 .xc_stack_usage
                0x00000000       0x17 c:/program files/microchip/xc32/v4.35/bin/bin/../../lib/gcc/pic32c/8.3.1/../../../../pic32c/lib/thumb/v6-m/nofp\libg-musl.a(__pop_ptr.o)
 .xc_stack_usage.hdr
                0x00000000        0xe c:/program files/microchip/xc32/v4.35/bin/bin/../../lib/gcc/pic32c/8.3.1/../../../../pic32c/lib/thumb/v6-m/nofp\libg-musl.a(__pop_ptr.o)
 .text          0x00000000        0x0 c:/program files/microchip/xc32/v4.35/bin/bin/../../lib/gcc/pic32c/8.3.1/../../../../pic32c/lib/thumb/v6-m/nofp\libg-musl.a(__printf_core.o)
 .data          0x00000000        0x0 c:/program files/microchip/xc32/v4.35/bin/bin/../../lib/gcc/pic32c/8.3.1/../../../../pic32c/lib/thumb/v6-m/nofp\libg-musl.a(__printf_core.o)
 .bss           0x00000000        0x0 c:/program files/microchip/xc32/v4.35/bin/bin/../../lib/gcc/pic32c/8.3.1/../../../../pic32c/lib/thumb/v6-m/nofp\libg-musl.a(__printf_core.o)
 .xc_stack_usage
                0x00000000       0xaf c:/program files/microchip/xc32/v4.35/bin/bin/../../lib/gcc/pic32c/8.3.1/../../../../pic32c/lib/thumb/v6-m/nofp\libg-musl.a(__printf_core.o)
 .text.__dummy_fmt3
                0x00000000        0x4 c:/program files/microchip/xc32/v4.35/bin/bin/../../lib/gcc/pic32c/8.3.1/../../../../pic32c/lib/thumb/v6-m/nofp\libg-musl.a(__printf_core.o)
 .text.__dummy_fmt4
                0x00000000        0x4 c:/program files/microchip/xc32/v4.35/bin/bin/../../lib/gcc/pic32c/8.3.1/../../../../pic32c/lib/thumb/v6-m/nofp\libg-musl.a(__printf_core.o)
 .text.__dummy_fmts
                0x00000000        0x4 c:/program files/microchip/xc32/v4.35/bin/bin/../../lib/gcc/pic32c/8.3.1/../../../../pic32c/lib/thumb/v6-m/nofp\libg-musl.a(__printf_core.o)
 .xc_stack_usage.hdr
                0x00000000        0xe c:/program files/microchip/xc32/v4.35/bin/bin/../../lib/gcc/pic32c/8.3.1/../../../../pic32c/lib/thumb/v6-m/nofp\libg-musl.a(__printf_core.o)
 .text          0x00000000        0x0 c:/program files/microchip/xc32/v4.35/bin/bin/../../lib/gcc/pic32c/8.3.1/../../../../pic32c/lib/thumb/v6-m/nofp\libg-musl.a(atoi.o)
 .data          0x00000000        0x0 c:/program files/microchip/xc32/v4.35/bin/bin/../../lib/gcc/pic32c/8.3.1/../../../../pic32c/lib/thumb/v6-m/nofp\libg-musl.a(atoi.o)
 .bss           0x00000000        0x0 c:/program files/microchip/xc32/v4.35/bin/bin/../../lib/gcc/pic32c/8.3.1/../../../../pic32c/lib/thumb/v6-m/nofp\libg-musl.a(atoi.o)
 .xc_stack_usage
                0x00000000       0x12 c:/program files/microchip/xc32/v4.35/bin/bin/../../lib/gcc/pic32c/8.3.1/../../../../pic32c/lib/thumb/v6-m/nofp\libg-musl.a(atoi.o)
 .xc_stack_usage.hdr
                0x00000000        0xe c:/program files/microchip/xc32/v4.35/bin/bin/../../lib/gcc/pic32c/8.3.1/../../../../pic32c/lib/thumb/v6-m/nofp\libg-musl.a(atoi.o)
 .text          0x00000000        0x0 c:/program files/microchip/xc32/v4.35/bin/bin/../../lib/gcc/pic32c/8.3.1/../../../../pic32c/lib/thumb/v6-m/nofp\libg-musl.a(tolower.o)
 .data          0x00000000        0x0 c:/program files/microchip/xc32/v4.35/bin/bin/../../lib/gcc/pic32c/8.3.1/../../../../pic32c/lib/thumb/v6-m/nofp\libg-musl.a(tolower.o)
 .bss           0x00000000        0x0 c:/program files/microchip/xc32/v4.35/bin/bin/../../lib/gcc/pic32c/8.3.1/../../../../pic32c/lib/thumb/v6-m/nofp\libg-musl.a(tolower.o)
 .xc_stack_usage
                0x00000000       0x2e c:/program files/microchip/xc32/v4.35/bin/bin/../../lib/gcc/pic32c/8.3.1/../../../../pic32c/lib/thumb/v6-m/nofp\libg-musl.a(tolower.o)
 .text.__tolower_l
                0x00000000        0x8 c:/program files/microchip/xc32/v4.35/bin/bin/../../lib/gcc/pic32c/8.3.1/../../../../pic32c/lib/thumb/v6-m/nofp\libg-musl.a(tolower.o)
 .xc_stack_usage.hdr
                0x00000000        0xe c:/program files/microchip/xc32/v4.35/bin/bin/../../lib/gcc/pic32c/8.3.1/../../../../pic32c/lib/thumb/v6-m/nofp\libg-musl.a(tolower.o)
 .text          0x00000000        0x0 c:/program files/microchip/xc32/v4.35/bin/bin/../../lib/gcc/pic32c/8.3.1/../../../../pic32c/lib/thumb/v6-m/nofp\libg-musl.a(__fmt_a.o)
 .data          0x00000000        0x0 c:/program files/microchip/xc32/v4.35/bin/bin/../../lib/gcc/pic32c/8.3.1/../../../../pic32c/lib/thumb/v6-m/nofp\libg-musl.a(__fmt_a.o)
 .bss           0x00000000        0x0 c:/program files/microchip/xc32/v4.35/bin/bin/../../lib/gcc/pic32c/8.3.1/../../../../pic32c/lib/thumb/v6-m/nofp\libg-musl.a(__fmt_a.o)
 .xc_stack_usage
                0x00000000       0x15 c:/program files/microchip/xc32/v4.35/bin/bin/../../lib/gcc/pic32c/8.3.1/../../../../pic32c/lib/thumb/v6-m/nofp\libg-musl.a(__fmt_a.o)
 .xc_stack_usage.hdr
                0x00000000        0xe c:/program files/microchip/xc32/v4.35/bin/bin/../../lib/gcc/pic32c/8.3.1/../../../../pic32c/lib/thumb/v6-m/nofp\libg-musl.a(__fmt_a.o)
 .text          0x00000000        0x0 c:/program files/microchip/xc32/v4.35/bin/bin/../../lib/gcc/pic32c/8.3.1/../../../../pic32c/lib/thumb/v6-m/nofp\libg-musl.a(__fmt_d.o)
 .data          0x00000000        0x0 c:/program files/microchip/xc32/v4.35/bin/bin/../../lib/gcc/pic32c/8.3.1/../../../../pic32c/lib/thumb/v6-m/nofp\libg-musl.a(__fmt_d.o)
 .bss           0x00000000        0x0 c:/program files/microchip/xc32/v4.35/bin/bin/../../lib/gcc/pic32c/8.3.1/../../../../pic32c/lib/thumb/v6-m/nofp\libg-musl.a(__fmt_d.o)
 .xc_stack_usage
                0x00000000       0x15 c:/program files/microchip/xc32/v4.35/bin/bin/../../lib/gcc/pic32c/8.3.1/../../../../pic32c/lib/thumb/v6-m/nofp\libg-musl.a(__fmt_d.o)
 .xc_stack_usage.hdr
                0x00000000        0xe c:/program files/microchip/xc32/v4.35/bin/bin/../../lib/gcc/pic32c/8.3.1/../../../../pic32c/lib/thumb/v6-m/nofp\libg-musl.a(__fmt_d.o)
 .text          0x00000000        0x0 c:/program files/microchip/xc32/v4.35/bin/bin/../../lib/gcc/pic32c/8.3.1/../../../../pic32c/lib/thumb/v6-m/nofp\libg-musl.a(__fmt_fp.o)
 .data          0x00000000        0x0 c:/program files/microchip/xc32/v4.35/bin/bin/../../lib/gcc/pic32c/8.3.1/../../../../pic32c/lib/thumb/v6-m/nofp\libg-musl.a(__fmt_fp.o)
 .bss           0x00000000        0x0 c:/program files/microchip/xc32/v4.35/bin/bin/../../lib/gcc/pic32c/8.3.1/../../../../pic32c/lib/thumb/v6-m/nofp\libg-musl.a(__fmt_fp.o)
 .xc_stack_usage
                0x00000000       0x16 c:/program files/microchip/xc32/v4.35/bin/bin/../../lib/gcc/pic32c/8.3.1/../../../../pic32c/lib/thumb/v6-m/nofp\libg-musl.a(__fmt_fp.o)
 .xc_stack_usage.hdr
                0x00000000        0xe c:/program files/microchip/xc32/v4.35/bin/bin/../../lib/gcc/pic32c/8.3.1/../../../../pic32c/lib/thumb/v6-m/nofp\libg-musl.a(__fmt_fp.o)
 .text          0x00000000        0x0 c:/program files/microchip/xc32/v4.35/bin/bin/../../lib/gcc/pic32c/8.3.1/../../../../pic32c/lib/thumb/v6-m/nofp\libg-musl.a(__fmt_o.o)
 .data          0x00000000        0x0 c:/program files/microchip/xc32/v4.35/bin/bin/../../lib/gcc/pic32c/8.3.1/../../../../pic32c/lib/thumb/v6-m/nofp\libg-musl.a(__fmt_o.o)
 .bss           0x00000000        0x0 c:/program files/microchip/xc32/v4.35/bin/bin/../../lib/gcc/pic32c/8.3.1/../../../../pic32c/lib/thumb/v6-m/nofp\libg-musl.a(__fmt_o.o)
 .xc_stack_usage
                0x00000000       0x15 c:/program files/microchip/xc32/v4.35/bin/bin/../../lib/gcc/pic32c/8.3.1/../../../../pic32c/lib/thumb/v6-m/nofp\libg-musl.a(__fmt_o.o)
 .xc_stack_usage.hdr
                0x00000000        0xe c:/program files/microchip/xc32/v4.35/bin/bin/../../lib/gcc/pic32c/8.3.1/../../../../pic32c/lib/thumb/v6-m/nofp\libg-musl.a(__fmt_o.o)
 .text          0x00000000        0x0 c:/program files/microchip/xc32/v4.35/bin/bin/../../lib/gcc/pic32c/8.3.1/../../../../pic32c/lib/thumb/v6-m/nofp\libg-musl.a(__fmt_s.o)
 .data          0x00000000        0x0 c:/program files/microchip/xc32/v4.35/bin/bin/../../lib/gcc/pic32c/8.3.1/../../../../pic32c/lib/thumb/v6-m/nofp\libg-musl.a(__fmt_s.o)
 .bss           0x00000000        0x0 c:/program files/microchip/xc32/v4.35/bin/bin/../../lib/gcc/pic32c/8.3.1/../../../../pic32c/lib/thumb/v6-m/nofp\libg-musl.a(__fmt_s.o)
 .xc_stack_usage
                0x00000000       0x15 c:/program files/microchip/xc32/v4.35/bin/bin/../../lib/gcc/pic32c/8.3.1/../../../../pic32c/lib/thumb/v6-m/nofp\libg-musl.a(__fmt_s.o)
 .xc_stack_usage.hdr
                0x00000000        0xe c:/program files/microchip/xc32/v4.35/bin/bin/../../lib/gcc/pic32c/8.3.1/../../../../pic32c/lib/thumb/v6-m/nofp\libg-musl.a(__fmt_s.o)
 .text          0x00000000        0x0 c:/program files/microchip/xc32/v4.35/bin/bin/../../lib/gcc/pic32c/8.3.1/../../../../pic32c/lib/thumb/v6-m/nofp\libg-musl.a(__fmt_u.o)
 .data          0x00000000        0x0 c:/program files/microchip/xc32/v4.35/bin/bin/../../lib/gcc/pic32c/8.3.1/../../../../pic32c/lib/thumb/v6-m/nofp\libg-musl.a(__fmt_u.o)
 .bss           0x00000000        0x0 c:/program files/microchip/xc32/v4.35/bin/bin/../../lib/gcc/pic32c/8.3.1/../../../../pic32c/lib/thumb/v6-m/nofp\libg-musl.a(__fmt_u.o)
 .xc_stack_usage
                0x00000000       0x15 c:/program files/microchip/xc32/v4.35/bin/bin/../../lib/gcc/pic32c/8.3.1/../../../../pic32c/lib/thumb/v6-m/nofp\libg-musl.a(__fmt_u.o)
 .xc_stack_usage.hdr
                0x00000000        0xe c:/program files/microchip/xc32/v4.35/bin/bin/../../lib/gcc/pic32c/8.3.1/../../../../pic32c/lib/thumb/v6-m/nofp\libg-musl.a(__fmt_u.o)
 .text          0x00000000        0x0 c:/program files/microchip/xc32/v4.35/bin/bin/../../lib/gcc/pic32c/8.3.1/../../../../pic32c/lib/thumb/v6-m/nofp\libg-musl.a(__fmt_x.o)
 .data          0x00000000        0x0 c:/program files/microchip/xc32/v4.35/bin/bin/../../lib/gcc/pic32c/8.3.1/../../../../pic32c/lib/thumb/v6-m/nofp\libg-musl.a(__fmt_x.o)
 .bss           0x00000000        0x0 c:/program files/microchip/xc32/v4.35/bin/bin/../../lib/gcc/pic32c/8.3.1/../../../../pic32c/lib/thumb/v6-m/nofp\libg-musl.a(__fmt_x.o)
 .xc_stack_usage
                0x00000000       0x15 c:/program files/microchip/xc32/v4.35/bin/bin/../../lib/gcc/pic32c/8.3.1/../../../../pic32c/lib/thumb/v6-m/nofp\libg-musl.a(__fmt_x.o)
 .xc_stack_usage.hdr
                0x00000000        0xe c:/program files/microchip/xc32/v4.35/bin/bin/../../lib/gcc/pic32c/8.3.1/../../../../pic32c/lib/thumb/v6-m/nofp\libg-musl.a(__fmt_x.o)
 .text          0x00000000        0x0 c:/program files/microchip/xc32/v4.35/bin/bin/../../lib/gcc/pic32c/8.3.1/../../../../pic32c/lib/thumb/v6-m/nofp\libg-musl.a(strcpy.o)
 .data          0x00000000        0x0 c:/program files/microchip/xc32/v4.35/bin/bin/../../lib/gcc/pic32c/8.3.1/../../../../pic32c/lib/thumb/v6-m/nofp\libg-musl.a(strcpy.o)
 .bss           0x00000000        0x0 c:/program files/microchip/xc32/v4.35/bin/bin/../../lib/gcc/pic32c/8.3.1/../../../../pic32c/lib/thumb/v6-m/nofp\libg-musl.a(strcpy.o)
 .xc_stack_usage
                0x00000000       0x14 c:/program files/microchip/xc32/v4.35/bin/bin/../../lib/gcc/pic32c/8.3.1/../../../../pic32c/lib/thumb/v6-m/nofp\libg-musl.a(strcpy.o)
 .xc_stack_usage.hdr
                0x00000000        0xe c:/program files/microchip/xc32/v4.35/bin/bin/../../lib/gcc/pic32c/8.3.1/../../../../pic32c/lib/thumb/v6-m/nofp\libg-musl.a(strcpy.o)
 .text          0x00000000        0x0 c:/program files/microchip/xc32/v4.35/bin/bin/../../lib/gcc/pic32c/8.3.1/../../../../pic32c/lib/thumb/v6-m/nofp\libg-musl.a(toupper.o)
 .data          0x00000000        0x0 c:/program files/microchip/xc32/v4.35/bin/bin/../../lib/gcc/pic32c/8.3.1/../../../../pic32c/lib/thumb/v6-m/nofp\libg-musl.a(toupper.o)
 .bss           0x00000000        0x0 c:/program files/microchip/xc32/v4.35/bin/bin/../../lib/gcc/pic32c/8.3.1/../../../../pic32c/lib/thumb/v6-m/nofp\libg-musl.a(toupper.o)
 .xc_stack_usage
                0x00000000       0x2e c:/program files/microchip/xc32/v4.35/bin/bin/../../lib/gcc/pic32c/8.3.1/../../../../pic32c/lib/thumb/v6-m/nofp\libg-musl.a(toupper.o)
 .text.__toupper_l
                0x00000000        0x8 c:/program files/microchip/xc32/v4.35/bin/bin/../../lib/gcc/pic32c/8.3.1/../../../../pic32c/lib/thumb/v6-m/nofp\libg-musl.a(toupper.o)
 .xc_stack_usage.hdr
                0x00000000        0xe c:/program files/microchip/xc32/v4.35/bin/bin/../../lib/gcc/pic32c/8.3.1/../../../../pic32c/lib/thumb/v6-m/nofp\libg-musl.a(toupper.o)
 .text          0x00000000        0x0 c:/program files/microchip/xc32/v4.35/bin/bin/../../lib/gcc/pic32c/8.3.1/../../../../pic32c/lib/thumb/v6-m/nofp\libg-musl.a(__cvt_u.o)
 .data          0x00000000        0x0 c:/program files/microchip/xc32/v4.35/bin/bin/../../lib/gcc/pic32c/8.3.1/../../../../pic32c/lib/thumb/v6-m/nofp\libg-musl.a(__cvt_u.o)
 .bss           0x00000000        0x0 c:/program files/microchip/xc32/v4.35/bin/bin/../../lib/gcc/pic32c/8.3.1/../../../../pic32c/lib/thumb/v6-m/nofp\libg-musl.a(__cvt_u.o)
 .xc_stack_usage
                0x00000000       0x15 c:/program files/microchip/xc32/v4.35/bin/bin/../../lib/gcc/pic32c/8.3.1/../../../../pic32c/lib/thumb/v6-m/nofp\libg-musl.a(__cvt_u.o)
 .xc_stack_usage.hdr
                0x00000000        0xe c:/program files/microchip/xc32/v4.35/bin/bin/../../lib/gcc/pic32c/8.3.1/../../../../pic32c/lib/thumb/v6-m/nofp\libg-musl.a(__cvt_u.o)
 .text          0x00000000        0x0 c:/program files/microchip/xc32/v4.35/bin/bin/../../lib/gcc/pic32c/8.3.1/../../../../pic32c/lib/thumb/v6-m/nofp\libg-musl.a(stpcpy.o)
 .data          0x00000000        0x0 c:/program files/microchip/xc32/v4.35/bin/bin/../../lib/gcc/pic32c/8.3.1/../../../../pic32c/lib/thumb/v6-m/nofp\libg-musl.a(stpcpy.o)
 .bss           0x00000000        0x0 c:/program files/microchip/xc32/v4.35/bin/bin/../../lib/gcc/pic32c/8.3.1/../../../../pic32c/lib/thumb/v6-m/nofp\libg-musl.a(stpcpy.o)
 .xc_stack_usage
                0x00000000       0x14 c:/program files/microchip/xc32/v4.35/bin/bin/../../lib/gcc/pic32c/8.3.1/../../../../pic32c/lib/thumb/v6-m/nofp\libg-musl.a(stpcpy.o)
 .xc_stack_usage.hdr
                0x00000000        0xe c:/program files/microchip/xc32/v4.35/bin/bin/../../lib/gcc/pic32c/8.3.1/../../../../pic32c/lib/thumb/v6-m/nofp\libg-musl.a(stpcpy.o)
 .xc_stack_usage.hdr
                0x00000000        0xe c:/program files/microchip/xc32/v4.35/bin/bin/../../lib/gcc/pic32c/8.3.1/../../../../pic32c/lib/thumb/v6-m/nofp\libm-fast-emfloat.a(fma.o)
 .xc_stack_usage
                0x00000000       0x11 c:/program files/microchip/xc32/v4.35/bin/bin/../../lib/gcc/pic32c/8.3.1/../../../../pic32c/lib/thumb/v6-m/nofp\libm-fast-emfloat.a(fma.o)
 .xc_stack_usage.hdr
                0x00000000        0xe c:/program files/microchip/xc32/v4.35/bin/bin/../../lib/gcc/pic32c/8.3.1/../../../../pic32c/lib/thumb/v6-m/nofp\libm-fast-emfloat.a(floor.o)
 .xc_stack_usage
                0x00000000       0x13 c:/program files/microchip/xc32/v4.35/bin/bin/../../lib/gcc/pic32c/8.3.1/../../../../pic32c/lib/thumb/v6-m/nofp\libm-fast-emfloat.a(floor.o)
 .xc_stack_usage.hdr
                0x00000000        0xe c:/program files/microchip/xc32/v4.35/bin/bin/../../lib/gcc/pic32c/8.3.1/../../../../pic32c/lib/thumb/v6-m/nofp\libm-fast-emfloat.a(__aeabi_dsub.o)
 .xc_stack_usage
                0x00000000       0x1a c:/program files/microchip/xc32/v4.35/bin/bin/../../lib/gcc/pic32c/8.3.1/../../../../pic32c/lib/thumb/v6-m/nofp\libm-fast-emfloat.a(__aeabi_dsub.o)
 .xc_stack_usage.hdr
                0x00000000        0xe c:/program files/microchip/xc32/v4.35/bin/bin/../../lib/gcc/pic32c/8.3.1/../../../../pic32c/lib/thumb/v6-m/nofp\libm-fast-emfloat.a(__aeabi_ddiv.o)
 .xc_stack_usage
                0x00000000       0x1a c:/program files/microchip/xc32/v4.35/bin/bin/../../lib/gcc/pic32c/8.3.1/../../../../pic32c/lib/thumb/v6-m/nofp\libm-fast-emfloat.a(__aeabi_ddiv.o)
 .xc_stack_usage.hdr
                0x00000000        0xe c:/program files/microchip/xc32/v4.35/bin/bin/../../lib/gcc/pic32c/8.3.1/../../../../pic32c/lib/thumb/v6-m/nofp\libm-fast-emfloat.a(__aeabi_dcmple.o)
 .xc_stack_usage
                0x00000000       0x1c c:/program files/microchip/xc32/v4.35/bin/bin/../../lib/gcc/pic32c/8.3.1/../../../../pic32c/lib/thumb/v6-m/nofp\libm-fast-emfloat.a(__aeabi_dcmple.o)
 .xc_stack_usage.hdr
                0x00000000        0xe c:/program files/microchip/xc32/v4.35/bin/bin/../../lib/gcc/pic32c/8.3.1/../../../../pic32c/lib/thumb/v6-m/nofp\libm-fast-emfloat.a(__aeabi_dcmpeq.o)
 .xc_stack_usage
                0x00000000       0x1c c:/program files/microchip/xc32/v4.35/bin/bin/../../lib/gcc/pic32c/8.3.1/../../../../pic32c/lib/thumb/v6-m/nofp\libm-fast-emfloat.a(__aeabi_dcmpeq.o)
 .xc_stack_usage.hdr
                0x00000000        0xe c:/program files/microchip/xc32/v4.35/bin/bin/../../lib/gcc/pic32c/8.3.1/../../../../pic32c/lib/thumb/v6-m/nofp\libm-fast-emfloat.a(__aeabi_dcmpgt.o)
 .xc_stack_usage
                0x00000000       0x1c c:/program files/microchip/xc32/v4.35/bin/bin/../../lib/gcc/pic32c/8.3.1/../../../../pic32c/lib/thumb/v6-m/nofp\libm-fast-emfloat.a(__aeabi_dcmpgt.o)
 .xc_stack_usage.hdr
                0x00000000        0xe c:/program files/microchip/xc32/v4.35/bin/bin/../../lib/gcc/pic32c/8.3.1/../../../../pic32c/lib/thumb/v6-m/nofp\libm-fast-emfloat.a(__aeabi_dcmplt.o)
 .xc_stack_usage
                0x00000000       0x1c c:/program files/microchip/xc32/v4.35/bin/bin/../../lib/gcc/pic32c/8.3.1/../../../../pic32c/lib/thumb/v6-m/nofp\libm-fast-emfloat.a(__aeabi_dcmplt.o)
 .xc_stack_usage.hdr
                0x00000000        0xe c:/program files/microchip/xc32/v4.35/bin/bin/../../lib/gcc/pic32c/8.3.1/../../../../pic32c/lib/thumb/v6-m/nofp\libm-fast-emfloat.a(__aeabi_d2iz.o)
 .xc_stack_usage
                0x00000000       0x1a c:/program files/microchip/xc32/v4.35/bin/bin/../../lib/gcc/pic32c/8.3.1/../../../../pic32c/lib/thumb/v6-m/nofp\libm-fast-emfloat.a(__aeabi_d2iz.o)
 .xc_stack_usage.hdr
                0x00000000        0xe c:/program files/microchip/xc32/v4.35/bin/bin/../../lib/gcc/pic32c/8.3.1/../../../../pic32c/lib/thumb/v6-m/nofp\libm-fast-emfloat.a(__aeabi_d2uiz.o)
 .xc_stack_usage
                0x00000000       0x43 c:/program files/microchip/xc32/v4.35/bin/bin/../../lib/gcc/pic32c/8.3.1/../../../../pic32c/lib/thumb/v6-m/nofp\libm-fast-emfloat.a(__aeabi_d2uiz.o)
 .data          0x00000000        0x0 c:/program files/microchip/xc32/v4.35/bin/bin/../../lib/gcc/pic32c/8.3.1/thumb/v6-m/nofp\libgcc.a(_udivsi3.o)
 .bss           0x00000000        0x0 c:/program files/microchip/xc32/v4.35/bin/bin/../../lib/gcc/pic32c/8.3.1/thumb/v6-m/nofp\libgcc.a(_udivsi3.o)
 .xc_stack_usage.hdr
                0x00000000        0xe c:/program files/microchip/xc32/v4.35/bin/bin/../../lib/gcc/pic32c/8.3.1/thumb/v6-m/nofp\libgcc.a(_udivsi3.o)
 .xc_stack_usage
                0x00000000       0x35 c:/program files/microchip/xc32/v4.35/bin/bin/../../lib/gcc/pic32c/8.3.1/thumb/v6-m/nofp\libgcc.a(_udivsi3.o)
 .data          0x00000000        0x0 c:/program files/microchip/xc32/v4.35/bin/bin/../../lib/gcc/pic32c/8.3.1/thumb/v6-m/nofp\libgcc.a(_divsi3.o)
 .bss           0x00000000        0x0 c:/program files/microchip/xc32/v4.35/bin/bin/../../lib/gcc/pic32c/8.3.1/thumb/v6-m/nofp\libgcc.a(_divsi3.o)
 .xc_stack_usage.hdr
                0x00000000        0xe c:/program files/microchip/xc32/v4.35/bin/bin/../../lib/gcc/pic32c/8.3.1/thumb/v6-m/nofp\libgcc.a(_divsi3.o)
 .xc_stack_usage
                0x00000000       0x33 c:/program files/microchip/xc32/v4.35/bin/bin/../../lib/gcc/pic32c/8.3.1/thumb/v6-m/nofp\libgcc.a(_divsi3.o)
 .data          0x00000000        0x0 c:/program files/microchip/xc32/v4.35/bin/bin/../../lib/gcc/pic32c/8.3.1/thumb/v6-m/nofp\libgcc.a(_dvmd_tls.o)
 .bss           0x00000000        0x0 c:/program files/microchip/xc32/v4.35/bin/bin/../../lib/gcc/pic32c/8.3.1/thumb/v6-m/nofp\libgcc.a(_dvmd_tls.o)
 .xc_stack_usage.hdr
                0x00000000        0xe c:/program files/microchip/xc32/v4.35/bin/bin/../../lib/gcc/pic32c/8.3.1/thumb/v6-m/nofp\libgcc.a(_dvmd_tls.o)
 .xc_stack_usage
                0x00000000       0x36 c:/program files/microchip/xc32/v4.35/bin/bin/../../lib/gcc/pic32c/8.3.1/thumb/v6-m/nofp\libgcc.a(_dvmd_tls.o)
 .data          0x00000000        0x0 c:/program files/microchip/xc32/v4.35/bin/bin/../../lib/gcc/pic32c/8.3.1/thumb/v6-m/nofp\libgcc.a(_aeabi_uldivmod.o)
 .bss           0x00000000        0x0 c:/program files/microchip/xc32/v4.35/bin/bin/../../lib/gcc/pic32c/8.3.1/thumb/v6-m/nofp\libgcc.a(_aeabi_uldivmod.o)
 .xc_stack_usage.hdr
                0x00000000        0xe c:/program files/microchip/xc32/v4.35/bin/bin/../../lib/gcc/pic32c/8.3.1/thumb/v6-m/nofp\libgcc.a(_aeabi_uldivmod.o)
 .xc_stack_usage
                0x00000000       0x1e c:/program files/microchip/xc32/v4.35/bin/bin/../../lib/gcc/pic32c/8.3.1/thumb/v6-m/nofp\libgcc.a(_aeabi_uldivmod.o)
 .data          0x00000000        0x0 c:/program files/microchip/xc32/v4.35/bin/bin/../../lib/gcc/pic32c/8.3.1/thumb/v6-m/nofp\libgcc.a(_muldi3.o)
 .bss           0x00000000        0x0 c:/program files/microchip/xc32/v4.35/bin/bin/../../lib/gcc/pic32c/8.3.1/thumb/v6-m/nofp\libgcc.a(_muldi3.o)
 .xc_stack_usage
                0x00000000       0x16 c:/program files/microchip/xc32/v4.35/bin/bin/../../lib/gcc/pic32c/8.3.1/thumb/v6-m/nofp\libgcc.a(_muldi3.o)
 .xc_stack_usage.hdr
                0x00000000        0xe c:/program files/microchip/xc32/v4.35/bin/bin/../../lib/gcc/pic32c/8.3.1/thumb/v6-m/nofp\libgcc.a(_muldi3.o)
 .data          0x00000000        0x0 c:/program files/microchip/xc32/v4.35/bin/bin/../../lib/gcc/pic32c/8.3.1/thumb/v6-m/nofp\libgcc.a(_udivmoddi4.o)
 .bss           0x00000000        0x0 c:/program files/microchip/xc32/v4.35/bin/bin/../../lib/gcc/pic32c/8.3.1/thumb/v6-m/nofp\libgcc.a(_udivmoddi4.o)
 .xc_stack_usage
                0x00000000       0x1a c:/program files/microchip/xc32/v4.35/bin/bin/../../lib/gcc/pic32c/8.3.1/thumb/v6-m/nofp\libgcc.a(_udivmoddi4.o)
 .ARM.extab     0x00000000        0x0 c:/program files/microchip/xc32/v4.35/bin/bin/../../lib/gcc/pic32c/8.3.1/thumb/v6-m/nofp\libgcc.a(_udivmoddi4.o)
 .xc_stack_usage.hdr
                0x00000000        0xe c:/program files/microchip/xc32/v4.35/bin/bin/../../lib/gcc/pic32c/8.3.1/thumb/v6-m/nofp\libgcc.a(_udivmoddi4.o)
 .data          0x00000000        0x0 c:/program files/microchip/xc32/v4.35/bin/bin/../../lib/gcc/pic32c/8.3.1/thumb/v6-m/nofp\libgcc.a(_lshrdi3.o)
 .bss           0x00000000        0x0 c:/program files/microchip/xc32/v4.35/bin/bin/../../lib/gcc/pic32c/8.3.1/thumb/v6-m/nofp\libgcc.a(_lshrdi3.o)
 .xc_stack_usage.hdr
                0x00000000        0xe c:/program files/microchip/xc32/v4.35/bin/bin/../../lib/gcc/pic32c/8.3.1/thumb/v6-m/nofp\libgcc.a(_lshrdi3.o)
 .xc_stack_usage
                0x00000000       0x17 c:/program files/microchip/xc32/v4.35/bin/bin/../../lib/gcc/pic32c/8.3.1/thumb/v6-m/nofp\libgcc.a(_lshrdi3.o)
 .data          0x00000000        0x0 c:/program files/microchip/xc32/v4.35/bin/bin/../../lib/gcc/pic32c/8.3.1/thumb/v6-m/nofp\libgcc.a(_ashldi3.o)
 .bss           0x00000000        0x0 c:/program files/microchip/xc32/v4.35/bin/bin/../../lib/gcc/pic32c/8.3.1/thumb/v6-m/nofp\libgcc.a(_ashldi3.o)
 .xc_stack_usage.hdr
                0x00000000        0xe c:/program files/microchip/xc32/v4.35/bin/bin/../../lib/gcc/pic32c/8.3.1/thumb/v6-m/nofp\libgcc.a(_ashldi3.o)
 .xc_stack_usage
                0x00000000       0x17 c:/program files/microchip/xc32/v4.35/bin/bin/../../lib/gcc/pic32c/8.3.1/thumb/v6-m/nofp\libgcc.a(_ashldi3.o)
 .data          0x00000000        0x0 c:/program files/microchip/xc32/v4.35/bin/bin/../../lib/gcc/pic32c/8.3.1/thumb/v6-m/nofp\libgcc.a(_clzdi2.o)
 .bss           0x00000000        0x0 c:/program files/microchip/xc32/v4.35/bin/bin/../../lib/gcc/pic32c/8.3.1/thumb/v6-m/nofp\libgcc.a(_clzdi2.o)
 .xc_stack_usage.hdr
                0x00000000        0xe c:/program files/microchip/xc32/v4.35/bin/bin/../../lib/gcc/pic32c/8.3.1/thumb/v6-m/nofp\libgcc.a(_clzdi2.o)
 .xc_stack_usage
                0x00000000       0x16 c:/program files/microchip/xc32/v4.35/bin/bin/../../lib/gcc/pic32c/8.3.1/thumb/v6-m/nofp\libgcc.a(_clzdi2.o)
 .data          0x00000000        0x0 c:/program files/microchip/xc32/v4.35/bin/bin/../../lib/gcc/pic32c/8.3.1/thumb/v6-m/nofp\libgcc.a(_clzsi2.o)
 .bss           0x00000000        0x0 c:/program files/microchip/xc32/v4.35/bin/bin/../../lib/gcc/pic32c/8.3.1/thumb/v6-m/nofp\libgcc.a(_clzsi2.o)
 .xc_stack_usage.hdr
                0x00000000        0xe c:/program files/microchip/xc32/v4.35/bin/bin/../../lib/gcc/pic32c/8.3.1/thumb/v6-m/nofp\libgcc.a(_clzsi2.o)
 .xc_stack_usage
                0x00000000       0x16 c:/program files/microchip/xc32/v4.35/bin/bin/../../lib/gcc/pic32c/8.3.1/thumb/v6-m/nofp\libgcc.a(_clzsi2.o)
 .text          0x00000000        0x0 c:/program files/microchip/xc32/v4.35/bin/bin/../../lib/gcc/pic32c/8.3.1/thumb/v6-m/nofp/crtend.o
 .data          0x00000000        0x0 c:/program files/microchip/xc32/v4.35/bin/bin/../../lib/gcc/pic32c/8.3.1/thumb/v6-m/nofp/crtend.o
 .bss           0x00000000        0x0 c:/program files/microchip/xc32/v4.35/bin/bin/../../lib/gcc/pic32c/8.3.1/thumb/v6-m/nofp/crtend.o
 .eh_frame      0x00000000        0x4 c:/program files/microchip/xc32/v4.35/bin/bin/../../lib/gcc/pic32c/8.3.1/thumb/v6-m/nofp/crtend.o
 .xc_stack_usage.hdr
                0x00000000        0xe c:/program files/microchip/xc32/v4.35/bin/bin/../../lib/gcc/pic32c/8.3.1/thumb/v6-m/nofp/crtend.o
 .comment       0x00000000       0x2c c:/program files/microchip/xc32/v4.35/bin/bin/../../lib/gcc/pic32c/8.3.1/thumb/v6-m/nofp/crtend.o
 .ARM.attributes
                0x00000000       0x2c c:/program files/microchip/xc32/v4.35/bin/bin/../../lib/gcc/pic32c/8.3.1/thumb/v6-m/nofp/crtend.o
 .text          0x00000000        0x0 c:/program files/microchip/xc32/v4.35/bin/bin/../../lib/gcc/pic32c/8.3.1/thumb/v6-m/nofp/crtn.o
 .data          0x00000000        0x0 c:/program files/microchip/xc32/v4.35/bin/bin/../../lib/gcc/pic32c/8.3.1/thumb/v6-m/nofp/crtn.o
 .bss           0x00000000        0x0 c:/program files/microchip/xc32/v4.35/bin/bin/../../lib/gcc/pic32c/8.3.1/thumb/v6-m/nofp/crtn.o
 .xc_stack_usage.hdr
                0x00000000        0xe c:/program files/microchip/xc32/v4.35/bin/bin/../../lib/gcc/pic32c/8.3.1/thumb/v6-m/nofp/crtn.o
 .text          0x00000000        0x0 c:/program files/microchip/xc32/v4.35/bin/bin/../../lib/gcc/pic32c/8.3.1/../../../../pic32c/lib/thumb/v6-m/nofp\libpic32c.a(pic32_data_init_clear.o)
 .data          0x00000000        0x0 c:/program files/microchip/xc32/v4.35/bin/bin/../../lib/gcc/pic32c/8.3.1/../../../../pic32c/lib/thumb/v6-m/nofp\libpic32c.a(pic32_data_init_clear.o)
 .bss           0x00000000        0x0 c:/program files/microchip/xc32/v4.35/bin/bin/../../lib/gcc/pic32c/8.3.1/../../../../pic32c/lib/thumb/v6-m/nofp\libpic32c.a(pic32_data_init_clear.o)
 .xc_stack_usage
                0x00000000       0x1b c:/program files/microchip/xc32/v4.35/bin/bin/../../lib/gcc/pic32c/8.3.1/../../../../pic32c/lib/thumb/v6-m/nofp\libpic32c.a(pic32_data_init_clear.o)
 .xc_stack_usage.hdr
                0x00000000        0xe c:/program files/microchip/xc32/v4.35/bin/bin/../../lib/gcc/pic32c/8.3.1/../../../../pic32c/lib/thumb/v6-m/nofp\libpic32c.a(pic32_data_init_clear.o)
 .text          0x00000000        0x0 c:/program files/microchip/xc32/v4.35/bin/bin/../../lib/gcc/pic32c/8.3.1/../../../../pic32c/lib/thumb/v6-m/nofp\libpic32c.a(pic32_data_init_copy.o)
 .data          0x00000000        0x0 c:/program files/microchip/xc32/v4.35/bin/bin/../../lib/gcc/pic32c/8.3.1/../../../../pic32c/lib/thumb/v6-m/nofp\libpic32c.a(pic32_data_init_copy.o)
 .bss           0x00000000        0x0 c:/program files/microchip/xc32/v4.35/bin/bin/../../lib/gcc/pic32c/8.3.1/../../../../pic32c/lib/thumb/v6-m/nofp\libpic32c.a(pic32_data_init_copy.o)
 .xc_stack_usage
                0x00000000       0x1a c:/program files/microchip/xc32/v4.35/bin/bin/../../lib/gcc/pic32c/8.3.1/../../../../pic32c/lib/thumb/v6-m/nofp\libpic32c.a(pic32_data_init_copy.o)
 .xc_stack_usage.hdr
                0x00000000        0xe c:/program files/microchip/xc32/v4.35/bin/bin/../../lib/gcc/pic32c/8.3.1/../../../../pic32c/lib/thumb/v6-m/nofp\libpic32c.a(pic32_data_init_copy.o)

Memory Configuration

Name             Origin             Length             Attributes
rom              0x00000000         0x00040000         xrl
ram              0x20000000         0x00008000         xw !r
config_01004000  0x01004000         0x00000004
config_01004004  0x01004004         0x00000004
*default*        0x00000000         0xffffffff

Linker script and memory map

LOAD c:/program files/microchip/xc32/v4.35/bin/bin/../../lib/gcc/pic32c/8.3.1/thumb/v6-m/nofp/crti.o
LOAD c:/program files/microchip/xc32/v4.35/bin/bin/../../lib/gcc/pic32c/8.3.1/thumb/v6-m/nofp/crtbegin.o
LOAD build/default/debug/_ext/1655452824/mac_task.o
LOAD build/default/debug/_ext/1655452824/mac_process_beacon_frame.o
LOAD build/default/debug/_ext/1655452824/usr_mcps_purge_conf.o
LOAD build/default/debug/_ext/1655452824/mac_sync.o
LOAD build/default/debug/_ext/1655452824/mac_data_req.o
LOAD build/default/debug/_ext/1655452824/usr_mlme_get_conf.o
LOAD build/default/debug/_ext/1655452824/usr_mlme_set_conf.o
LOAD build/default/debug/_ext/1655452824/mac_dispatcher.o
LOAD build/default/debug/_ext/1655452824/mac_security.o
LOAD build/default/debug/_ext/1655452824/mac_data_extract_mhr.o
LOAD build/default/debug/_ext/1655452824/usr_mlme_beacon_notify_ind.o
LOAD build/default/debug/_ext/1655452824/usr_mlme_sync_loss_ind.o
LOAD build/default/debug/_ext/1655452824/usr_mlme_comm_status_ind.o
LOAD build/default/debug/_ext/1655452824/mac_tx_coord_realignment_command.o
LOAD build/default/debug/_ext/1655452824/mac_associate.o
LOAD build/default/debug/_ext/1655452824/mac_pib.o
LOAD build/default/debug/_ext/1655452824/usr_mlme_rx_enable_conf.o
LOAD build/default/debug/_ext/1655452824/mac_beacon.o
LOAD build/default/debug/_ext/1655452824/mac_rx_enable.o
LOAD build/default/debug/_ext/1655452824/mac.o
LOAD build/default/debug/_ext/1655452824/mac_disassociate.o
LOAD build/default/debug/_ext/1655452824/mac_orphan.o
LOAD build/default/debug/_ext/1655452824/usr_mlme_start_conf.o
LOAD build/default/debug/_ext/1655452824/usr_mlme_disassociate_ind.o
LOAD build/default/debug/_ext/1655452824/mac_process_phy_tx_frame_status.o
LOAD build/default/debug/_ext/1655452824/mac_callback_wrapper.o
LOAD build/default/debug/_ext/1655452824/mac_api.o
LOAD build/default/debug/_ext/1655452824/mac_misc.o
LOAD build/default/debug/_ext/1655452824/usr_mlme_disassociate_conf.o
LOAD build/default/debug/_ext/1655452824/usr_mcps_data_conf.o
LOAD build/default/debug/_ext/1655452824/usr_mlme_associate_ind.o
LOAD build/default/debug/_ext/1655452824/mac_mcps_data.o
LOAD build/default/debug/_ext/1655452824/usr_mlme_poll_conf.o
LOAD build/default/debug/_ext/1655452824/mac_data_ind.o
LOAD build/default/debug/_ext/1655452824/usr_mlme_reset_conf.o
LOAD build/default/debug/_ext/1655452824/mac_scan.o
LOAD build/default/debug/_ext/1655452824/usr_mlme_associate_conf.o
LOAD build/default/debug/_ext/1655452824/mac_poll.o
LOAD build/default/debug/_ext/1655452824/usr_mcps_data_ind.o
LOAD build/default/debug/_ext/1655452824/mac_start.o
LOAD build/default/debug/_ext/1655452824/usr_mlme_scan_conf.o
LOAD build/default/debug/_ext/1655452824/usr_mlme_orphan_ind.o
LOAD build/default/debug/_ext/745501718/pal.o
LOAD build/default/debug/_ext/559172130/phy_init.o
LOAD build/default/debug/_ext/559172130/phy_rx_enable.o
LOAD build/default/debug/_ext/559172130/phy_pwr_mgmt.o
LOAD build/default/debug/_ext/559172130/phy_tx.o
LOAD build/default/debug/_ext/559172130/tfa.o
LOAD build/default/debug/_ext/559172130/phy_pib.o
LOAD build/default/debug/_ext/559172130/phy.o
LOAD build/default/debug/_ext/559172130/phy_helper.o
LOAD build/default/debug/_ext/559172130/phy_irq_handler.o
LOAD build/default/debug/_ext/559172130/phy_trx_reg_access.o
LOAD build/default/debug/_ext/559172130/phy_ed.o
LOAD build/default/debug/_ext/559172130/phy_rx.o
LOAD build/default/debug/_ext/957911548/phy_tx_frame_done_cb.o
LOAD build/default/debug/_ext/957911548/phy_task.o
LOAD build/default/debug/_ext/957911548/phy_rx_frame_cb.o
LOAD build/default/debug/_ext/957911548/phy_ed_end_cb.o
LOAD build/default/debug/_ext/1374435801/bmm.o
LOAD build/default/debug/_ext/874725666/qmm.o
LOAD build/default/debug/_ext/1529399856/osal_freertos_extend.o
LOAD build/default/debug/_ext/1529399856/osal_freertos.o
LOAD build/default/debug/_ext/1984496892/plib_clock.o
LOAD build/default/debug/_ext/60167341/plib_eic.o
LOAD build/default/debug/_ext/1986646378/plib_evsys.o
LOAD build/default/debug/_ext/1865468468/plib_nvic.o
LOAD build/default/debug/_ext/1593096446/plib_nvmctrl.o
LOAD build/default/debug/_ext/1865521619/plib_port.o
LOAD build/default/debug/_ext/17022449/plib_sercom4_spi_master.o
LOAD build/default/debug/_ext/504274921/plib_sercom0_usart.o
LOAD build/default/debug/_ext/829342655/plib_tc3.o
LOAD build/default/debug/_ext/163028504/xc32_monitor.o
LOAD build/default/debug/_ext/1832805299/sys_console.o
LOAD build/default/debug/_ext/1832805299/sys_console_uart.o
LOAD build/default/debug/_ext/1881668453/sys_int.o
LOAD build/default/debug/_ext/101884895/sys_time.o
LOAD build/default/debug/_ext/1171490990/exceptions.o
LOAD build/default/debug/_ext/1171490990/freertos_hooks.o
LOAD build/default/debug/_ext/1171490990/interrupts.o
LOAD build/default/debug/_ext/1171490990/libc_syscalls.o
LOAD build/default/debug/_ext/1171490990/startup_xc32.o
LOAD build/default/debug/_ext/1171490990/initialization.o
LOAD build/default/debug/_ext/1171490990/tasks.o
LOAD build/default/debug/_ext/1624415188/port.o
LOAD build/default/debug/_ext/1665200909/heap_4.o
LOAD build/default/debug/_ext/404212886/FreeRTOS_tasks.o
LOAD build/default/debug/_ext/404212886/timers.o
LOAD build/default/debug/_ext/404212886/queue.o
LOAD build/default/debug/_ext/404212886/event_groups.o
LOAD build/default/debug/_ext/404212886/croutine.o
LOAD build/default/debug/_ext/404212886/list.o
LOAD build/default/debug/_ext/404212886/stream_buffer.o
LOAD build/default/debug/_ext/1360937237/app.o
LOAD build/default/debug/_ext/1360937237/main.o
LOAD build/default/debug/_ext/1360937237/app_idle_task.o
LOAD build/default/debug/_ext/85617168/demo_app_rfd.o
LOAD build/default/debug/_ext/85617168/demo_app_security.o
LOAD build/default/debug/_ext/85617168/usr_mac_callbacks.o
                0x00000001                __MPLAB_BUILD = 0x1
                0x00040000                __rom_end = (ORIGIN (rom) + LENGTH (rom))
                0x20008000                __ram_end = (ORIGIN (ram) + LENGTH (ram))

.config_01004000
 *(.config_01004000)

.config_01004004
 *(.config_01004004)

.vectors        0x00000000       0xac
                0x00000000                . = ALIGN (0x4)
                0x00000000                _sfixed = .
 *(.vectors .vectors.* .vectors_default .vectors_default.*)
 .vectors.exception_table
                0x00000000       0xac build/default/debug/_ext/1171490990/interrupts.o
                0x00000000                exception_table
 *(.isr_vector)
 *(.reset*)
 *(.after_vectors)

.text           0x000000ac       0x20
                0x000000ac                . = ALIGN (0x4)
 *(.glue_7t)
 .glue_7t       0x000000ac        0x0 linker stubs
 *(.glue_7)
 .glue_7        0x000000ac        0x0 linker stubs
 *(.gnu.linkonce.r.*)
 *(.ARM.extab* .gnu.linkonce.armextab.*)
                0x000000ac                . = ALIGN (0x4)
 *(.init)
 .init          0x000000ac        0x4 c:/program files/microchip/xc32/v4.35/bin/bin/../../lib/gcc/pic32c/8.3.1/thumb/v6-m/nofp/crti.o
                0x000000ac                _init
 .init          0x000000b0        0x8 c:/program files/microchip/xc32/v4.35/bin/bin/../../lib/gcc/pic32c/8.3.1/thumb/v6-m/nofp/crtn.o
                0x000000b8                . = ALIGN (0x4)
                0x000000b8                __preinit_array_start = .
 *(.preinit_array)
                0x000000b8                __preinit_array_end = .
                0x000000b8                . = ALIGN (0x4)
                0x000000b8                __init_array_start = .
 *(SORT_BY_NAME(.init_array.*))
 *(.init_array)
 .init_array    0x000000b8        0x4 c:/program files/microchip/xc32/v4.35/bin/bin/../../lib/gcc/pic32c/8.3.1/thumb/v6-m/nofp/crtbegin.o
                0x000000bc                __init_array_end = .
                0x000000bc                . = ALIGN (0x4)
 *crtbegin.o(.ctors)
 *(EXCLUDE_FILE(*crtend.o) .ctors)
 *(SORT_BY_NAME(.ctors.*))
 *crtend.o(.ctors)
                0x000000bc                . = ALIGN (0x4)
 *(.fini)
 .fini          0x000000bc        0x4 c:/program files/microchip/xc32/v4.35/bin/bin/../../lib/gcc/pic32c/8.3.1/thumb/v6-m/nofp/crti.o
                0x000000bc                _fini
 .fini          0x000000c0        0x8 c:/program files/microchip/xc32/v4.35/bin/bin/../../lib/gcc/pic32c/8.3.1/thumb/v6-m/nofp/crtn.o
                0x000000c8                . = ALIGN (0x4)
                0x000000c8                __fini_array_start = .
 *(.fini_array)
 .fini_array    0x000000c8        0x4 c:/program files/microchip/xc32/v4.35/bin/bin/../../lib/gcc/pic32c/8.3.1/thumb/v6-m/nofp/crtbegin.o
 *(SORT_BY_NAME(.fini_array.*))
                0x000000cc                __fini_array_end = .
 *crtbegin.o(.dtors)
 *(EXCLUDE_FILE(*crtend.o) .dtors)
 *(SORT_BY_NAME(.dtors.*))
 *crtend.o(.dtors)
                0x000000cc                . = ALIGN (0x4)
                0x000000cc                _efixed = .
                [!provide]                PROVIDE (__exidx_start = .)

.ARM.exidx      0x000000cc        0x8
 *(.ARM.exidx* .gnu.linkonce.armexidx.*)
 .ARM.exidx     0x000000cc        0x8 c:/program files/microchip/xc32/v4.35/bin/bin/../../lib/gcc/pic32c/8.3.1/thumb/v6-m/nofp\libgcc.a(_udivmoddi4.o)
                [!provide]                PROVIDE (__exidx_end = .)
                0x000000d4                . = ALIGN (0x4)
                0x000000d4                _etext = .

.bss            0x20000000        0x0
                0x20000000                . = ALIGN (0x4)
                0x20000000                __bss_start__ = .
                0x20000000                _sbss = .
                0x20000000                _szero = .
 *(COMMON)
                0x20000000                . = ALIGN (0x4)
                0x20000000                __bss_end__ = .
                0x20000000                _ebss = .
                0x20000000                _ezero = .
                0x20000000                . = ALIGN (0x4)
                0x20000000                _end = .
                0x20007fff                _ram_end_ = ((ORIGIN (ram) + LENGTH (ram)) - 0x1)
                0x00000001                __ICD2RAM = 0x1
                0x00000001                __MPLAB_DEBUG = 0x1
                0x00000001                __DEBUG = 0x1
                0x00000200                _min_heap_size = 0x200
START GROUP
LOAD c:/program files/microchip/xc32/v4.35/bin/bin/../../lib/gcc/pic32c/8.3.1/../../../../pic32c/lib/thumb/v6-m/nofp\libpic32c.a
LOAD c:/program files/microchip/xc32/v4.35/bin/bin/../../lib/gcc/pic32c/8.3.1/../../../../pic32c/lib/thumb/v6-m/nofp\libm-fast-emfloat.a
LOAD c:/program files/microchip/xc32/v4.35/bin/bin/../../lib/gcc/pic32c/8.3.1/../../../../pic32c/lib/thumb/v6-m/nofp\libg-musl.a
LOAD c:/program files/microchip/xc32/v4.35/bin/bin/../../lib/gcc/pic32c/8.3.1/../../../../pic32c/lib/thumb/v6-m/nofp\libc-musl.a
LOAD c:/program files/microchip/xc32/v4.35/bin/bin/../../lib/gcc/pic32c/8.3.1/../../../../pic32c/lib/thumb/v6-m/nofp\libm-fast-emfloat.a
LOAD c:/program files/microchip/xc32/v4.35/bin/bin/../../lib/gcc/pic32c/8.3.1/thumb/v6-m/nofp\libgcc.a
END GROUP
LOAD c:/program files/microchip/xc32/v4.35/bin/bin/../../lib/gcc/pic32c/8.3.1/thumb/v6-m/nofp/crtend.o
LOAD c:/program files/microchip/xc32/v4.35/bin/bin/../../lib/gcc/pic32c/8.3.1/thumb/v6-m/nofp/crtn.o
OUTPUT(dist/default/debug/Project.X.debug.elf elf32-littlearm)
LOAD data_init
LOAD stack

.ARM.attributes
                0x00000000       0x2a
 .ARM.attributes
                0x00000000       0x1e c:/program files/microchip/xc32/v4.35/bin/bin/../../lib/gcc/pic32c/8.3.1/thumb/v6-m/nofp/crti.o
 .ARM.attributes
                0x0000001e       0x2c c:/program files/microchip/xc32/v4.35/bin/bin/../../lib/gcc/pic32c/8.3.1/thumb/v6-m/nofp/crtbegin.o
 .ARM.attributes
                0x0000004a       0x2c build/default/debug/_ext/1655452824/mac_task.o
 .ARM.attributes
                0x00000076       0x2c build/default/debug/_ext/1655452824/mac_process_beacon_frame.o
 .ARM.attributes
                0x000000a2       0x2c build/default/debug/_ext/1655452824/mac_sync.o
 .ARM.attributes
                0x000000ce       0x2c build/default/debug/_ext/1655452824/mac_data_req.o
 .ARM.attributes
                0x000000fa       0x2c build/default/debug/_ext/1655452824/mac_dispatcher.o
 .ARM.attributes
                0x00000126       0x2c build/default/debug/_ext/1655452824/mac_data_extract_mhr.o
 .ARM.attributes
                0x00000152       0x2c build/default/debug/_ext/1655452824/usr_mlme_sync_loss_ind.o
 .ARM.attributes
                0x0000017e       0x2c build/default/debug/_ext/1655452824/mac_associate.o
 .ARM.attributes
                0x000001aa       0x2c build/default/debug/_ext/1655452824/mac_pib.o
 .ARM.attributes
                0x000001d6       0x2c build/default/debug/_ext/1655452824/mac_rx_enable.o
 .ARM.attributes
                0x00000202       0x2c build/default/debug/_ext/1655452824/mac.o
 .ARM.attributes
                0x0000022e       0x2c build/default/debug/_ext/1655452824/mac_disassociate.o
 .ARM.attributes
                0x0000025a       0x2c build/default/debug/_ext/1655452824/mac_process_phy_tx_frame_status.o
 .ARM.attributes
                0x00000286       0x2c build/default/debug/_ext/1655452824/mac_callback_wrapper.o
 .ARM.attributes
                0x000002b2       0x2c build/default/debug/_ext/1655452824/mac_api.o
 .ARM.attributes
                0x000002de       0x2c build/default/debug/_ext/1655452824/mac_misc.o
 .ARM.attributes
                0x0000030a       0x2c build/default/debug/_ext/1655452824/mac_mcps_data.o
 .ARM.attributes
                0x00000336       0x2c build/default/debug/_ext/1655452824/mac_data_ind.o
 .ARM.attributes
                0x00000362       0x2c build/default/debug/_ext/1655452824/mac_scan.o
 .ARM.attributes
                0x0000038e       0x2c build/default/debug/_ext/1655452824/mac_poll.o
 .ARM.attributes
                0x000003ba       0x2c build/default/debug/_ext/745501718/pal.o
 .ARM.attributes
                0x000003e6       0x2c build/default/debug/_ext/559172130/phy_init.o
 .ARM.attributes
                0x00000412       0x2c build/default/debug/_ext/559172130/phy_rx_enable.o
 .ARM.attributes
                0x0000043e       0x2c build/default/debug/_ext/559172130/phy_pwr_mgmt.o
 .ARM.attributes
                0x0000046a       0x2c build/default/debug/_ext/559172130/phy_tx.o
 .ARM.attributes
                0x00000496       0x2c build/default/debug/_ext/559172130/phy_pib.o
 .ARM.attributes
                0x000004c2       0x2c build/default/debug/_ext/559172130/phy.o
 .ARM.attributes
                0x000004ee       0x2c build/default/debug/_ext/559172130/phy_helper.o
 .ARM.attributes
                0x0000051a       0x2c build/default/debug/_ext/559172130/phy_irq_handler.o
 .ARM.attributes
                0x00000546       0x2c build/default/debug/_ext/559172130/phy_trx_reg_access.o
 .ARM.attributes
                0x00000572       0x2c build/default/debug/_ext/559172130/phy_ed.o
 .ARM.attributes
                0x0000059e       0x2c build/default/debug/_ext/559172130/phy_rx.o
 .ARM.attributes
                0x000005ca       0x2c build/default/debug/_ext/957911548/phy_task.o
 .ARM.attributes
                0x000005f6       0x2c build/default/debug/_ext/957911548/phy_ed_end_cb.o
 .ARM.attributes
                0x00000622       0x2c build/default/debug/_ext/1374435801/bmm.o
 .ARM.attributes
                0x0000064e       0x2c build/default/debug/_ext/874725666/qmm.o
 .ARM.attributes
                0x0000067a       0x2c build/default/debug/_ext/1529399856/osal_freertos_extend.o
 .ARM.attributes
                0x000006a6       0x2c build/default/debug/_ext/1529399856/osal_freertos.o
 .ARM.attributes
                0x000006d2       0x2c build/default/debug/_ext/1984496892/plib_clock.o
 .ARM.attributes
                0x000006fe       0x2c build/default/debug/_ext/60167341/plib_eic.o
 .ARM.attributes
                0x0000072a       0x2c build/default/debug/_ext/1865468468/plib_nvic.o
 .ARM.attributes
                0x00000756       0x2c build/default/debug/_ext/1593096446/plib_nvmctrl.o
 .ARM.attributes
                0x00000782       0x2c build/default/debug/_ext/1865521619/plib_port.o
 .ARM.attributes
                0x000007ae       0x2c build/default/debug/_ext/17022449/plib_sercom4_spi_master.o
 .ARM.attributes
                0x000007da       0x2c build/default/debug/_ext/504274921/plib_sercom0_usart.o
 .ARM.attributes
                0x00000806       0x2c build/default/debug/_ext/829342655/plib_tc3.o
 .ARM.attributes
                0x00000832       0x2c build/default/debug/_ext/1832805299/sys_console.o
 .ARM.attributes
                0x0000085e       0x2c build/default/debug/_ext/1832805299/sys_console_uart.o
 .ARM.attributes
                0x0000088a       0x2c build/default/debug/_ext/1881668453/sys_int.o
 .ARM.attributes
                0x000008b6       0x2c build/default/debug/_ext/101884895/sys_time.o
 .ARM.attributes
                0x000008e2       0x2c build/default/debug/_ext/1171490990/exceptions.o
 .ARM.attributes
                0x0000090e       0x2c build/default/debug/_ext/1171490990/freertos_hooks.o
 .ARM.attributes
                0x0000093a       0x2c build/default/debug/_ext/1171490990/interrupts.o
 .ARM.attributes
                0x00000966       0x2c build/default/debug/_ext/1171490990/startup_xc32.o
 .ARM.attributes
                0x00000992       0x2c build/default/debug/_ext/1171490990/initialization.o
 .ARM.attributes
                0x000009be       0x2c build/default/debug/_ext/1171490990/tasks.o
 .ARM.attributes
                0x000009ea       0x2c build/default/debug/_ext/1624415188/port.o
 .ARM.attributes
                0x00000a16       0x2c build/default/debug/_ext/1665200909/heap_4.o
 .ARM.attributes
                0x00000a42       0x2c build/default/debug/_ext/404212886/FreeRTOS_tasks.o
 .ARM.attributes
                0x00000a6e       0x2c build/default/debug/_ext/404212886/timers.o
 .ARM.attributes
                0x00000a9a       0x2c build/default/debug/_ext/404212886/queue.o
 .ARM.attributes
                0x00000ac6       0x2c build/default/debug/_ext/404212886/list.o
 .ARM.attributes
                0x00000af2       0x2c build/default/debug/_ext/1360937237/app.o
 .ARM.attributes
                0x00000b1e       0x2c build/default/debug/_ext/1360937237/main.o
 .ARM.attributes
                0x00000b4a       0x2c build/default/debug/_ext/85617168/demo_app_rfd.o
 .ARM.attributes
                0x00000b76       0x2c build/default/debug/_ext/85617168/usr_mac_callbacks.o
 .ARM.attributes
                0x00000ba2       0x2c c:/program files/microchip/xc32/v4.35/bin/bin/../../lib/gcc/pic32c/8.3.1/../../../../pic32c/lib/thumb/v6-m/nofp\libpic32c.a(data_init.o)
 .ARM.attributes
                0x00000bce       0x1c c:/program files/microchip/xc32/v4.35/bin/bin/../../lib/gcc/pic32c/8.3.1/../../../../pic32c/lib/thumb/v6-m/nofp\libm-fast-emfloat.a(__aeabi_dadd.o)
 .ARM.attributes
                0x00000bea       0x1c c:/program files/microchip/xc32/v4.35/bin/bin/../../lib/gcc/pic32c/8.3.1/../../../../pic32c/lib/thumb/v6-m/nofp\libm-fast-emfloat.a(__aeabi_dmul_aux.o)
 .ARM.attributes
                0x00000c06       0x2e c:/program files/microchip/xc32/v4.35/bin/bin/../../lib/gcc/pic32c/8.3.1/../../../../pic32c/lib/thumb/v6-m/nofp\libg-musl.a(__libc_start_main.o)
 .ARM.attributes
                0x00000c34       0x2e c:/program files/microchip/xc32/v4.35/bin/bin/../../lib/gcc/pic32c/8.3.1/../../../../pic32c/lib/thumb/v6-m/nofp\libg-musl.a(libc.o)
 .ARM.attributes
                0x00000c62       0x2e c:/program files/microchip/xc32/v4.35/bin/bin/../../lib/gcc/pic32c/8.3.1/../../../../pic32c/lib/thumb/v6-m/nofp\libg-musl.a(rand.o)
 .ARM.attributes
                0x00000c90       0x2e c:/program files/microchip/xc32/v4.35/bin/bin/../../lib/gcc/pic32c/8.3.1/../../../../pic32c/lib/thumb/v6-m/nofp\libg-musl.a(vsnprintf.o)
 .ARM.attributes
                0x00000cbe       0x2e c:/program files/microchip/xc32/v4.35/bin/bin/../../lib/gcc/pic32c/8.3.1/../../../../pic32c/lib/thumb/v6-m/nofp\libg-musl.a(memcpy.o)
 .ARM.attributes
                0x00000cec       0x2e c:/program files/microchip/xc32/v4.35/bin/bin/../../lib/gcc/pic32c/8.3.1/../../../../pic32c/lib/thumb/v6-m/nofp\libg-musl.a(memset.o)
 .ARM.attributes
                0x00000d1a       0x2e c:/program files/microchip/xc32/v4.35/bin/bin/../../lib/gcc/pic32c/8.3.1/../../../../pic32c/lib/thumb/v6-m/nofp\libg-musl.a(strlen.o)
 .ARM.attributes
                0x00000d48       0x2e c:/program files/microchip/xc32/v4.35/bin/bin/../../lib/gcc/pic32c/8.3.1/../../../../pic32c/lib/thumb/v6-m/nofp\libg-musl.a(__environ.o)
 .ARM.attributes
                0x00000d76       0x2e c:/program files/microchip/xc32/v4.35/bin/bin/../../lib/gcc/pic32c/8.3.1/../../../../pic32c/lib/thumb/v6-m/nofp\libg-musl.a(__errno_location.o)
 .ARM.attributes
                0x00000da4       0x2e c:/program files/microchip/xc32/v4.35/bin/bin/../../lib/gcc/pic32c/8.3.1/../../../../pic32c/lib/thumb/v6-m/nofp\libg-musl.a(vfprintf.o)
 .ARM.attributes
                0x00000dd2       0x2e c:/program files/microchip/xc32/v4.35/bin/bin/../../lib/gcc/pic32c/8.3.1/../../../../pic32c/lib/thumb/v6-m/nofp\libg-musl.a(__pop_float.o)
 .ARM.attributes
                0x00000e00       0x2e c:/program files/microchip/xc32/v4.35/bin/bin/../../lib/gcc/pic32c/8.3.1/../../../../pic32c/lib/thumb/v6-m/nofp\libg-musl.a(__pop_int.o)
 .ARM.attributes
                0x00000e2e       0x2e c:/program files/microchip/xc32/v4.35/bin/bin/../../lib/gcc/pic32c/8.3.1/../../../../pic32c/lib/thumb/v6-m/nofp\libg-musl.a(__pop_ptr.o)
 .ARM.attributes
                0x00000e5c       0x2e c:/program files/microchip/xc32/v4.35/bin/bin/../../lib/gcc/pic32c/8.3.1/../../../../pic32c/lib/thumb/v6-m/nofp\libg-musl.a(__printf_core.o)
 .ARM.attributes
                0x00000e8a       0x2e c:/program files/microchip/xc32/v4.35/bin/bin/../../lib/gcc/pic32c/8.3.1/../../../../pic32c/lib/thumb/v6-m/nofp\libg-musl.a(atoi.o)
 .ARM.attributes
                0x00000eb8       0x2e c:/program files/microchip/xc32/v4.35/bin/bin/../../lib/gcc/pic32c/8.3.1/../../../../pic32c/lib/thumb/v6-m/nofp\libg-musl.a(tolower.o)
 .ARM.attributes
                0x00000ee6       0x2e c:/program files/microchip/xc32/v4.35/bin/bin/../../lib/gcc/pic32c/8.3.1/../../../../pic32c/lib/thumb/v6-m/nofp\libg-musl.a(__fmt_a.o)
 .ARM.attributes
                0x00000f14       0x2e c:/program files/microchip/xc32/v4.35/bin/bin/../../lib/gcc/pic32c/8.3.1/../../../../pic32c/lib/thumb/v6-m/nofp\libg-musl.a(__fmt_d.o)
 .ARM.attributes
                0x00000f42       0x2e c:/program files/microchip/xc32/v4.35/bin/bin/../../lib/gcc/pic32c/8.3.1/../../../../pic32c/lib/thumb/v6-m/nofp\libg-musl.a(__fmt_fp.o)
 .ARM.attributes
                0x00000f70       0x2e c:/program files/microchip/xc32/v4.35/bin/bin/../../lib/gcc/pic32c/8.3.1/../../../../pic32c/lib/thumb/v6-m/nofp\libg-musl.a(__fmt_o.o)
 .ARM.attributes
                0x00000f9e       0x2e c:/program files/microchip/xc32/v4.35/bin/bin/../../lib/gcc/pic32c/8.3.1/../../../../pic32c/lib/thumb/v6-m/nofp\libg-musl.a(__fmt_s.o)
 .ARM.attributes
                0x00000fcc       0x2e c:/program files/microchip/xc32/v4.35/bin/bin/../../lib/gcc/pic32c/8.3.1/../../../../pic32c/lib/thumb/v6-m/nofp\libg-musl.a(__fmt_u.o)
 .ARM.attributes
                0x00000ffa       0x2e c:/program files/microchip/xc32/v4.35/bin/bin/../../lib/gcc/pic32c/8.3.1/../../../../pic32c/lib/thumb/v6-m/nofp\libg-musl.a(__fmt_x.o)
 .ARM.attributes
                0x00001028       0x2e c:/program files/microchip/xc32/v4.35/bin/bin/../../lib/gcc/pic32c/8.3.1/../../../../pic32c/lib/thumb/v6-m/nofp\libg-musl.a(strcpy.o)
 .ARM.attributes
                0x00001056       0x2e c:/program files/microchip/xc32/v4.35/bin/bin/../../lib/gcc/pic32c/8.3.1/../../../../pic32c/lib/thumb/v6-m/nofp\libg-musl.a(toupper.o)
 .ARM.attributes
                0x00001084       0x2e c:/program files/microchip/xc32/v4.35/bin/bin/../../lib/gcc/pic32c/8.3.1/../../../../pic32c/lib/thumb/v6-m/nofp\libg-musl.a(__cvt_u.o)
 .ARM.attributes
                0x000010b2       0x2e c:/program files/microchip/xc32/v4.35/bin/bin/../../lib/gcc/pic32c/8.3.1/../../../../pic32c/lib/thumb/v6-m/nofp\libg-musl.a(stpcpy.o)
 .ARM.attributes
                0x000010e0       0x2c c:/program files/microchip/xc32/v4.35/bin/bin/../../lib/gcc/pic32c/8.3.1/../../../../pic32c/lib/thumb/v6-m/nofp\libm-fast-emfloat.a(fma.o)
 .ARM.attributes
                0x0000110c       0x2c c:/program files/microchip/xc32/v4.35/bin/bin/../../lib/gcc/pic32c/8.3.1/../../../../pic32c/lib/thumb/v6-m/nofp\libm-fast-emfloat.a(floor.o)
 .ARM.attributes
                0x00001138       0x1c c:/program files/microchip/xc32/v4.35/bin/bin/../../lib/gcc/pic32c/8.3.1/../../../../pic32c/lib/thumb/v6-m/nofp\libm-fast-emfloat.a(__aeabi_dsub.o)
 .ARM.attributes
                0x00001154       0x1c c:/program files/microchip/xc32/v4.35/bin/bin/../../lib/gcc/pic32c/8.3.1/../../../../pic32c/lib/thumb/v6-m/nofp\libm-fast-emfloat.a(__aeabi_ddiv.o)
 .ARM.attributes
                0x00001170       0x1c c:/program files/microchip/xc32/v4.35/bin/bin/../../lib/gcc/pic32c/8.3.1/../../../../pic32c/lib/thumb/v6-m/nofp\libm-fast-emfloat.a(__aeabi_dcmple.o)
 .ARM.attributes
                0x0000118c       0x1c c:/program files/microchip/xc32/v4.35/bin/bin/../../lib/gcc/pic32c/8.3.1/../../../../pic32c/lib/thumb/v6-m/nofp\libm-fast-emfloat.a(__aeabi_dcmpeq.o)
 .ARM.attributes
                0x000011a8       0x1c c:/program files/microchip/xc32/v4.35/bin/bin/../../lib/gcc/pic32c/8.3.1/../../../../pic32c/lib/thumb/v6-m/nofp\libm-fast-emfloat.a(__aeabi_dcmpgt.o)
 .ARM.attributes
                0x000011c4       0x1c c:/program files/microchip/xc32/v4.35/bin/bin/../../lib/gcc/pic32c/8.3.1/../../../../pic32c/lib/thumb/v6-m/nofp\libm-fast-emfloat.a(__aeabi_dcmplt.o)
 .ARM.attributes
                0x000011e0       0x1c c:/program files/microchip/xc32/v4.35/bin/bin/../../lib/gcc/pic32c/8.3.1/../../../../pic32c/lib/thumb/v6-m/nofp\libm-fast-emfloat.a(__aeabi_d2iz.o)
 .ARM.attributes
                0x000011fc       0x1c c:/program files/microchip/xc32/v4.35/bin/bin/../../lib/gcc/pic32c/8.3.1/../../../../pic32c/lib/thumb/v6-m/nofp\libm-fast-emfloat.a(__aeabi_d2uiz.o)
 .ARM.attributes
                0x00001218       0x1e c:/program files/microchip/xc32/v4.35/bin/bin/../../lib/gcc/pic32c/8.3.1/thumb/v6-m/nofp\libgcc.a(_udivsi3.o)
 .ARM.attributes
                0x00001236       0x1e c:/program files/microchip/xc32/v4.35/bin/bin/../../lib/gcc/pic32c/8.3.1/thumb/v6-m/nofp\libgcc.a(_divsi3.o)
 .ARM.attributes
                0x00001254       0x1e c:/program files/microchip/xc32/v4.35/bin/bin/../../lib/gcc/pic32c/8.3.1/thumb/v6-m/nofp\libgcc.a(_dvmd_tls.o)
 .ARM.attributes
                0x00001272       0x1e c:/program files/microchip/xc32/v4.35/bin/bin/../../lib/gcc/pic32c/8.3.1/thumb/v6-m/nofp\libgcc.a(_aeabi_uldivmod.o)
 .ARM.attributes
                0x00001290       0x2c c:/program files/microchip/xc32/v4.35/bin/bin/../../lib/gcc/pic32c/8.3.1/thumb/v6-m/nofp\libgcc.a(_muldi3.o)
 .ARM.attributes
                0x000012bc       0x2c c:/program files/microchip/xc32/v4.35/bin/bin/../../lib/gcc/pic32c/8.3.1/thumb/v6-m/nofp\libgcc.a(_udivmoddi4.o)
 .ARM.attributes
                0x000012e8       0x1e c:/program files/microchip/xc32/v4.35/bin/bin/../../lib/gcc/pic32c/8.3.1/thumb/v6-m/nofp\libgcc.a(_lshrdi3.o)
 .ARM.attributes
                0x00001306       0x1e c:/program files/microchip/xc32/v4.35/bin/bin/../../lib/gcc/pic32c/8.3.1/thumb/v6-m/nofp\libgcc.a(_ashldi3.o)
 .ARM.attributes
                0x00001324       0x1e c:/program files/microchip/xc32/v4.35/bin/bin/../../lib/gcc/pic32c/8.3.1/thumb/v6-m/nofp\libgcc.a(_clzdi2.o)
 .ARM.attributes
                0x00001342       0x1e c:/program files/microchip/xc32/v4.35/bin/bin/../../lib/gcc/pic32c/8.3.1/thumb/v6-m/nofp\libgcc.a(_clzsi2.o)
 .ARM.attributes
                0x00001360       0x1e c:/program files/microchip/xc32/v4.35/bin/bin/../../lib/gcc/pic32c/8.3.1/thumb/v6-m/nofp/crtn.o
 .ARM.attributes
                0x0000137e       0x2c c:/program files/microchip/xc32/v4.35/bin/bin/../../lib/gcc/pic32c/8.3.1/../../../../pic32c/lib/thumb/v6-m/nofp\libpic32c.a(pic32_data_init_clear.o)
 .ARM.attributes
                0x000013aa       0x2c c:/program files/microchip/xc32/v4.35/bin/bin/../../lib/gcc/pic32c/8.3.1/../../../../pic32c/lib/thumb/v6-m/nofp\libpic32c.a(pic32_data_init_copy.o)

.comment        0x00000000       0x2b
 .comment       0x00000000       0x2b c:/program files/microchip/xc32/v4.35/bin/bin/../../lib/gcc/pic32c/8.3.1/thumb/v6-m/nofp/crtbegin.o
                                 0x2c (size before relaxing)
 .comment       0x0000002b       0x2c build/default/debug/_ext/1655452824/mac_task.o
 .comment       0x0000002b       0x2c build/default/debug/_ext/1655452824/mac_process_beacon_frame.o
 .comment       0x0000002b       0x2c build/default/debug/_ext/1655452824/mac_sync.o
 .comment       0x0000002b       0x2c build/default/debug/_ext/1655452824/mac_data_req.o
 .comment       0x0000002b       0x2c build/default/debug/_ext/1655452824/mac_dispatcher.o
 .comment       0x0000002b       0x2c build/default/debug/_ext/1655452824/mac_data_extract_mhr.o
 .comment       0x0000002b       0x2c build/default/debug/_ext/1655452824/usr_mlme_sync_loss_ind.o
 .comment       0x0000002b       0x2c build/default/debug/_ext/1655452824/mac_associate.o
 .comment       0x0000002b       0x2c build/default/debug/_ext/1655452824/mac_pib.o
 .comment       0x0000002b       0x2c build/default/debug/_ext/1655452824/mac_rx_enable.o
 .comment       0x0000002b       0x2c build/default/debug/_ext/1655452824/mac.o
 .comment       0x0000002b       0x2c build/default/debug/_ext/1655452824/mac_disassociate.o
 .comment       0x0000002b       0x2c build/default/debug/_ext/1655452824/mac_process_phy_tx_frame_status.o
 .comment       0x0000002b       0x2c build/default/debug/_ext/1655452824/mac_callback_wrapper.o
 .comment       0x0000002b       0x2c build/default/debug/_ext/1655452824/mac_api.o
 .comment       0x0000002b       0x2c build/default/debug/_ext/1655452824/mac_misc.o
 .comment       0x0000002b       0x2c build/default/debug/_ext/1655452824/mac_mcps_data.o
 .comment       0x0000002b       0x2c build/default/debug/_ext/1655452824/mac_data_ind.o
 .comment       0x0000002b       0x2c build/default/debug/_ext/1655452824/mac_scan.o
 .comment       0x0000002b       0x2c build/default/debug/_ext/1655452824/mac_poll.o
 .comment       0x0000002b       0x2c build/default/debug/_ext/745501718/pal.o
 .comment       0x0000002b       0x2c build/default/debug/_ext/559172130/phy_init.o
 .comment       0x0000002b       0x2c build/default/debug/_ext/559172130/phy_rx_enable.o
 .comment       0x0000002b       0x2c build/default/debug/_ext/559172130/phy_pwr_mgmt.o
 .comment       0x0000002b       0x2c build/default/debug/_ext/559172130/phy_tx.o
 .comment       0x0000002b       0x2c build/default/debug/_ext/559172130/phy_pib.o
 .comment       0x0000002b       0x2c build/default/debug/_ext/559172130/phy.o
 .comment       0x0000002b       0x2c build/default/debug/_ext/559172130/phy_helper.o
 .comment       0x0000002b       0x2c build/default/debug/_ext/559172130/phy_irq_handler.o
 .comment       0x0000002b       0x2c build/default/debug/_ext/559172130/phy_trx_reg_access.o
 .comment       0x0000002b       0x2c build/default/debug/_ext/559172130/phy_ed.o
 .comment       0x0000002b       0x2c build/default/debug/_ext/559172130/phy_rx.o
 .comment       0x0000002b       0x2c build/default/debug/_ext/957911548/phy_task.o
 .comment       0x0000002b       0x2c build/default/debug/_ext/957911548/phy_ed_end_cb.o
 .comment       0x0000002b       0x2c build/default/debug/_ext/1374435801/bmm.o
 .comment       0x0000002b       0x2c build/default/debug/_ext/874725666/qmm.o
 .comment       0x0000002b       0x2c build/default/debug/_ext/1529399856/osal_freertos_extend.o
 .comment       0x0000002b       0x2c build/default/debug/_ext/1529399856/osal_freertos.o
 .comment       0x0000002b       0x2c build/default/debug/_ext/1984496892/plib_clock.o
 .comment       0x0000002b       0x2c build/default/debug/_ext/60167341/plib_eic.o
 .comment       0x0000002b       0x2c build/default/debug/_ext/1865468468/plib_nvic.o
 .comment       0x0000002b       0x2c build/default/debug/_ext/1593096446/plib_nvmctrl.o
 .comment       0x0000002b       0x2c build/default/debug/_ext/1865521619/plib_port.o
 .comment       0x0000002b       0x2c build/default/debug/_ext/17022449/plib_sercom4_spi_master.o
 .comment       0x0000002b       0x2c build/default/debug/_ext/504274921/plib_sercom0_usart.o
 .comment       0x0000002b       0x2c build/default/debug/_ext/829342655/plib_tc3.o
 .comment       0x0000002b       0x2c build/default/debug/_ext/1832805299/sys_console.o
 .comment       0x0000002b       0x2c build/default/debug/_ext/1832805299/sys_console_uart.o
 .comment       0x0000002b       0x2c build/default/debug/_ext/1881668453/sys_int.o
 .comment       0x0000002b       0x2c build/default/debug/_ext/101884895/sys_time.o
 .comment       0x0000002b       0x2c build/default/debug/_ext/1171490990/exceptions.o
 .comment       0x0000002b       0x2c build/default/debug/_ext/1171490990/freertos_hooks.o
 .comment       0x0000002b       0x2c build/default/debug/_ext/1171490990/interrupts.o
 .comment       0x0000002b       0x2c build/default/debug/_ext/1171490990/startup_xc32.o
 .comment       0x0000002b       0x2c build/default/debug/_ext/1171490990/initialization.o
 .comment       0x0000002b       0x2c build/default/debug/_ext/1171490990/tasks.o
 .comment       0x0000002b       0x2c build/default/debug/_ext/1624415188/port.o
 .comment       0x0000002b       0x2c build/default/debug/_ext/1665200909/heap_4.o
 .comment       0x0000002b       0x2c build/default/debug/_ext/404212886/FreeRTOS_tasks.o
 .comment       0x0000002b       0x2c build/default/debug/_ext/404212886/timers.o
 .comment       0x0000002b       0x2c build/default/debug/_ext/404212886/queue.o
 .comment       0x0000002b       0x2c build/default/debug/_ext/404212886/list.o
 .comment       0x0000002b       0x2c build/default/debug/_ext/1360937237/app.o
 .comment       0x0000002b       0x2c build/default/debug/_ext/1360937237/main.o
 .comment       0x0000002b       0x2c build/default/debug/_ext/85617168/demo_app_rfd.o
 .comment       0x0000002b       0x2c build/default/debug/_ext/85617168/usr_mac_callbacks.o
 .comment       0x0000002b       0x2c c:/program files/microchip/xc32/v4.35/bin/bin/../../lib/gcc/pic32c/8.3.1/../../../../pic32c/lib/thumb/v6-m/nofp\libpic32c.a(data_init.o)
 .comment       0x0000002b       0x2c c:/program files/microchip/xc32/v4.35/bin/bin/../../lib/gcc/pic32c/8.3.1/../../../../pic32c/lib/thumb/v6-m/nofp\libg-musl.a(__libc_start_main.o)
 .comment       0x0000002b       0x2c c:/program files/microchip/xc32/v4.35/bin/bin/../../lib/gcc/pic32c/8.3.1/../../../../pic32c/lib/thumb/v6-m/nofp\libg-musl.a(libc.o)
 .comment       0x0000002b       0x2c c:/program files/microchip/xc32/v4.35/bin/bin/../../lib/gcc/pic32c/8.3.1/../../../../pic32c/lib/thumb/v6-m/nofp\libg-musl.a(rand.o)
 .comment       0x0000002b       0x2c c:/program files/microchip/xc32/v4.35/bin/bin/../../lib/gcc/pic32c/8.3.1/../../../../pic32c/lib/thumb/v6-m/nofp\libg-musl.a(vsnprintf.o)
 .comment       0x0000002b       0x2c c:/program files/microchip/xc32/v4.35/bin/bin/../../lib/gcc/pic32c/8.3.1/../../../../pic32c/lib/thumb/v6-m/nofp\libg-musl.a(memcpy.o)
 .comment       0x0000002b       0x2c c:/program files/microchip/xc32/v4.35/bin/bin/../../lib/gcc/pic32c/8.3.1/../../../../pic32c/lib/thumb/v6-m/nofp\libg-musl.a(memset.o)
 .comment       0x0000002b       0x2c c:/program files/microchip/xc32/v4.35/bin/bin/../../lib/gcc/pic32c/8.3.1/../../../../pic32c/lib/thumb/v6-m/nofp\libg-musl.a(strlen.o)
 .comment       0x0000002b       0x2c c:/program files/microchip/xc32/v4.35/bin/bin/../../lib/gcc/pic32c/8.3.1/../../../../pic32c/lib/thumb/v6-m/nofp\libg-musl.a(__environ.o)
 .comment       0x0000002b       0x2c c:/program files/microchip/xc32/v4.35/bin/bin/../../lib/gcc/pic32c/8.3.1/../../../../pic32c/lib/thumb/v6-m/nofp\libg-musl.a(__errno_location.o)
 .comment       0x0000002b       0x2c c:/program files/microchip/xc32/v4.35/bin/bin/../../lib/gcc/pic32c/8.3.1/../../../../pic32c/lib/thumb/v6-m/nofp\libg-musl.a(vfprintf.o)
 .comment       0x0000002b       0x2c c:/program files/microchip/xc32/v4.35/bin/bin/../../lib/gcc/pic32c/8.3.1/../../../../pic32c/lib/thumb/v6-m/nofp\libg-musl.a(__pop_float.o)
 .comment       0x0000002b       0x2c c:/program files/microchip/xc32/v4.35/bin/bin/../../lib/gcc/pic32c/8.3.1/../../../../pic32c/lib/thumb/v6-m/nofp\libg-musl.a(__pop_int.o)
 .comment       0x0000002b       0x2c c:/program files/microchip/xc32/v4.35/bin/bin/../../lib/gcc/pic32c/8.3.1/../../../../pic32c/lib/thumb/v6-m/nofp\libg-musl.a(__pop_ptr.o)
 .comment       0x0000002b       0x2c c:/program files/microchip/xc32/v4.35/bin/bin/../../lib/gcc/pic32c/8.3.1/../../../../pic32c/lib/thumb/v6-m/nofp\libg-musl.a(__printf_core.o)
 .comment       0x0000002b       0x2c c:/program files/microchip/xc32/v4.35/bin/bin/../../lib/gcc/pic32c/8.3.1/../../../../pic32c/lib/thumb/v6-m/nofp\libg-musl.a(atoi.o)
 .comment       0x0000002b       0x2c c:/program files/microchip/xc32/v4.35/bin/bin/../../lib/gcc/pic32c/8.3.1/../../../../pic32c/lib/thumb/v6-m/nofp\libg-musl.a(tolower.o)
 .comment       0x0000002b       0x2c c:/program files/microchip/xc32/v4.35/bin/bin/../../lib/gcc/pic32c/8.3.1/../../../../pic32c/lib/thumb/v6-m/nofp\libg-musl.a(__fmt_a.o)
 .comment       0x0000002b       0x2c c:/program files/microchip/xc32/v4.35/bin/bin/../../lib/gcc/pic32c/8.3.1/../../../../pic32c/lib/thumb/v6-m/nofp\libg-musl.a(__fmt_d.o)
 .comment       0x0000002b       0x2c c:/program files/microchip/xc32/v4.35/bin/bin/../../lib/gcc/pic32c/8.3.1/../../../../pic32c/lib/thumb/v6-m/nofp\libg-musl.a(__fmt_fp.o)
 .comment       0x0000002b       0x2c c:/program files/microchip/xc32/v4.35/bin/bin/../../lib/gcc/pic32c/8.3.1/../../../../pic32c/lib/thumb/v6-m/nofp\libg-musl.a(__fmt_o.o)
 .comment       0x0000002b       0x2c c:/program files/microchip/xc32/v4.35/bin/bin/../../lib/gcc/pic32c/8.3.1/../../../../pic32c/lib/thumb/v6-m/nofp\libg-musl.a(__fmt_s.o)
 .comment       0x0000002b       0x2c c:/program files/microchip/xc32/v4.35/bin/bin/../../lib/gcc/pic32c/8.3.1/../../../../pic32c/lib/thumb/v6-m/nofp\libg-musl.a(__fmt_u.o)
 .comment       0x0000002b       0x2c c:/program files/microchip/xc32/v4.35/bin/bin/../../lib/gcc/pic32c/8.3.1/../../../../pic32c/lib/thumb/v6-m/nofp\libg-musl.a(__fmt_x.o)
 .comment       0x0000002b       0x2c c:/program files/microchip/xc32/v4.35/bin/bin/../../lib/gcc/pic32c/8.3.1/../../../../pic32c/lib/thumb/v6-m/nofp\libg-musl.a(strcpy.o)
 .comment       0x0000002b       0x2c c:/program files/microchip/xc32/v4.35/bin/bin/../../lib/gcc/pic32c/8.3.1/../../../../pic32c/lib/thumb/v6-m/nofp\libg-musl.a(toupper.o)
 .comment       0x0000002b       0x2c c:/program files/microchip/xc32/v4.35/bin/bin/../../lib/gcc/pic32c/8.3.1/../../../../pic32c/lib/thumb/v6-m/nofp\libg-musl.a(__cvt_u.o)
 .comment       0x0000002b       0x2c c:/program files/microchip/xc32/v4.35/bin/bin/../../lib/gcc/pic32c/8.3.1/../../../../pic32c/lib/thumb/v6-m/nofp\libg-musl.a(stpcpy.o)
 .comment       0x0000002b       0x2c c:/program files/microchip/xc32/v4.35/bin/bin/../../lib/gcc/pic32c/8.3.1/../../../../pic32c/lib/thumb/v6-m/nofp\libm-fast-emfloat.a(fma.o)
 .comment       0x0000002b       0x2c c:/program files/microchip/xc32/v4.35/bin/bin/../../lib/gcc/pic32c/8.3.1/../../../../pic32c/lib/thumb/v6-m/nofp\libm-fast-emfloat.a(floor.o)
 .comment       0x0000002b       0x2c c:/program files/microchip/xc32/v4.35/bin/bin/../../lib/gcc/pic32c/8.3.1/thumb/v6-m/nofp\libgcc.a(_muldi3.o)
 .comment       0x0000002b       0x2c c:/program files/microchip/xc32/v4.35/bin/bin/../../lib/gcc/pic32c/8.3.1/thumb/v6-m/nofp\libgcc.a(_udivmoddi4.o)
 .comment       0x0000002b       0x2c c:/program files/microchip/xc32/v4.35/bin/bin/../../lib/gcc/pic32c/8.3.1/../../../../pic32c/lib/thumb/v6-m/nofp\libpic32c.a(pic32_data_init_clear.o)
 .comment       0x0000002b       0x2c c:/program files/microchip/xc32/v4.35/bin/bin/../../lib/gcc/pic32c/8.3.1/../../../../pic32c/lib/thumb/v6-m/nofp\libpic32c.a(pic32_data_init_copy.o)

.debug_info     0x00000000    0x52997
 .debug_info    0x00000000      0x6ef build/default/debug/_ext/1655452824/mac_task.o
 .debug_info    0x000006ef     0x1702 build/default/debug/_ext/1655452824/mac_process_beacon_frame.o
 .debug_info    0x00001df1     0x197a build/default/debug/_ext/1655452824/mac_sync.o
 .debug_info    0x0000376b      0xf97 build/default/debug/_ext/1655452824/mac_data_req.o
 .debug_info    0x00004702      0x7d8 build/default/debug/_ext/1655452824/mac_dispatcher.o
 .debug_info    0x00004eda      0xb39 build/default/debug/_ext/1655452824/mac_data_extract_mhr.o
 .debug_info    0x00005a13      0x3ae build/default/debug/_ext/1655452824/usr_mlme_sync_loss_ind.o
 .debug_info    0x00005dc1     0x23e6 build/default/debug/_ext/1655452824/mac_associate.o
 .debug_info    0x000081a7     0x1b15 build/default/debug/_ext/1655452824/mac_pib.o
 .debug_info    0x00009cbc     0x158c build/default/debug/_ext/1655452824/mac_rx_enable.o
 .debug_info    0x0000b248     0x16fe build/default/debug/_ext/1655452824/mac.o
 .debug_info    0x0000c946     0x201e build/default/debug/_ext/1655452824/mac_disassociate.o
 .debug_info    0x0000e964     0x17ee build/default/debug/_ext/1655452824/mac_process_phy_tx_frame_status.o
 .debug_info    0x00010152     0x181b build/default/debug/_ext/1655452824/mac_callback_wrapper.o
 .debug_info    0x0001196d     0x1b41 build/default/debug/_ext/1655452824/mac_api.o
 .debug_info    0x000134ae     0x1c0f build/default/debug/_ext/1655452824/mac_misc.o
 .debug_info    0x000150bd     0x2272 build/default/debug/_ext/1655452824/mac_mcps_data.o
 .debug_info    0x0001732f     0x221b build/default/debug/_ext/1655452824/mac_data_ind.o
 .debug_info    0x0001954a     0x2a93 build/default/debug/_ext/1655452824/mac_scan.o
 .debug_info    0x0001bfdd     0x1611 build/default/debug/_ext/1655452824/mac_poll.o
 .debug_info    0x0001d5ee      0xee4 build/default/debug/_ext/745501718/pal.o
 .debug_info    0x0001e4d2     0x1aff build/default/debug/_ext/559172130/phy_init.o
 .debug_info    0x0001ffd1      0xa2c build/default/debug/_ext/559172130/phy_rx_enable.o
 .debug_info    0x000209fd      0xcec build/default/debug/_ext/559172130/phy_pwr_mgmt.o
 .debug_info    0x000216e9     0x15a9 build/default/debug/_ext/559172130/phy_tx.o
 .debug_info    0x00022c92     0x1323 build/default/debug/_ext/559172130/phy_pib.o
 .debug_info    0x00023fb5     0x19b7 build/default/debug/_ext/559172130/phy.o
 .debug_info    0x0002596c     0x1bb6 build/default/debug/_ext/559172130/phy_helper.o
 .debug_info    0x00027522      0x9ca build/default/debug/_ext/559172130/phy_irq_handler.o
 .debug_info    0x00027eec      0xc30 build/default/debug/_ext/559172130/phy_trx_reg_access.o
 .debug_info    0x00028b1c      0xd5c build/default/debug/_ext/559172130/phy_ed.o
 .debug_info    0x00029878      0xc9b build/default/debug/_ext/559172130/phy_rx.o
 .debug_info    0x0002a513      0x603 build/default/debug/_ext/957911548/phy_task.o
 .debug_info    0x0002ab16      0x340 build/default/debug/_ext/957911548/phy_ed_end_cb.o
 .debug_info    0x0002ae56      0x726 build/default/debug/_ext/1374435801/bmm.o
 .debug_info    0x0002b57c      0x835 build/default/debug/_ext/874725666/qmm.o
 .debug_info    0x0002bdb1      0x8fc build/default/debug/_ext/1529399856/osal_freertos_extend.o
 .debug_info    0x0002c6ad      0xbc3 build/default/debug/_ext/1529399856/osal_freertos.o
 .debug_info    0x0002d270      0xa0b build/default/debug/_ext/1984496892/plib_clock.o
 .debug_info    0x0002dc7b      0x6ba build/default/debug/_ext/60167341/plib_eic.o
 .debug_info    0x0002e335      0xae4 build/default/debug/_ext/1865468468/plib_nvic.o
 .debug_info    0x0002ee19      0x9cc build/default/debug/_ext/1593096446/plib_nvmctrl.o
 .debug_info    0x0002f7e5      0xcc5 build/default/debug/_ext/1865521619/plib_port.o
 .debug_info    0x000304aa     0x14b1 build/default/debug/_ext/17022449/plib_sercom4_spi_master.o
 .debug_info    0x0003195b     0x2158 build/default/debug/_ext/504274921/plib_sercom0_usart.o
 .debug_info    0x00033ab3      0xbcb build/default/debug/_ext/829342655/plib_tc3.o
 .debug_info    0x0003467e     0x1433 build/default/debug/_ext/1832805299/sys_console.o
 .debug_info    0x00035ab1     0x13f7 build/default/debug/_ext/1832805299/sys_console_uart.o
 .debug_info    0x00036ea8      0x971 build/default/debug/_ext/1881668453/sys_int.o
 .debug_info    0x00037819     0x2707 build/default/debug/_ext/101884895/sys_time.o
 .debug_info    0x00039f20      0x333 build/default/debug/_ext/1171490990/exceptions.o
 .debug_info    0x0003a253      0x48d build/default/debug/_ext/1171490990/freertos_hooks.o
 .debug_info    0x0003a6e0      0x847 build/default/debug/_ext/1171490990/interrupts.o
 .debug_info    0x0003af27      0x494 build/default/debug/_ext/1171490990/startup_xc32.o
 .debug_info    0x0003b3bb     0x1b6d build/default/debug/_ext/1171490990/initialization.o
 .debug_info    0x0003cf28      0x59b build/default/debug/_ext/1171490990/tasks.o
 .debug_info    0x0003d4c3      0x6e6 build/default/debug/_ext/1624415188/port.o
 .debug_info    0x0003dba9      0xa3b build/default/debug/_ext/1665200909/heap_4.o
 .debug_info    0x0003e5e4     0x3073 build/default/debug/_ext/404212886/FreeRTOS_tasks.o
 .debug_info    0x00041657     0x17d0 build/default/debug/_ext/404212886/timers.o
 .debug_info    0x00042e27     0x2570 build/default/debug/_ext/404212886/queue.o
 .debug_info    0x00045397      0x629 build/default/debug/_ext/404212886/list.o
 .debug_info    0x000459c0      0x568 build/default/debug/_ext/1360937237/app.o
 .debug_info    0x00045f28      0x328 build/default/debug/_ext/1360937237/main.o
 .debug_info    0x00046250     0x1e93 build/default/debug/_ext/85617168/demo_app_rfd.o
 .debug_info    0x000480e3     0x13c8 build/default/debug/_ext/85617168/usr_mac_callbacks.o
 .debug_info    0x000494ab      0x2b9 c:/program files/microchip/xc32/v4.35/bin/bin/../../lib/gcc/pic32c/8.3.1/../../../../pic32c/lib/thumb/v6-m/nofp\libpic32c.a(data_init.o)
 .debug_info    0x00049764      0x616 c:/program files/microchip/xc32/v4.35/bin/bin/../../lib/gcc/pic32c/8.3.1/../../../../pic32c/lib/thumb/v6-m/nofp\libg-musl.a(__libc_start_main.o)
 .debug_info    0x00049d7a      0x528 c:/program files/microchip/xc32/v4.35/bin/bin/../../lib/gcc/pic32c/8.3.1/../../../../pic32c/lib/thumb/v6-m/nofp\libg-musl.a(libc.o)
 .debug_info    0x0004a2a2      0x31f c:/program files/microchip/xc32/v4.35/bin/bin/../../lib/gcc/pic32c/8.3.1/../../../../pic32c/lib/thumb/v6-m/nofp\libg-musl.a(rand.o)
 .debug_info    0x0004a5c1      0x6f4 c:/program files/microchip/xc32/v4.35/bin/bin/../../lib/gcc/pic32c/8.3.1/../../../../pic32c/lib/thumb/v6-m/nofp\libg-musl.a(vsnprintf.o)
 .debug_info    0x0004acb5      0x2e8 c:/program files/microchip/xc32/v4.35/bin/bin/../../lib/gcc/pic32c/8.3.1/../../../../pic32c/lib/thumb/v6-m/nofp\libg-musl.a(memcpy.o)
 .debug_info    0x0004af9d      0x2b2 c:/program files/microchip/xc32/v4.35/bin/bin/../../lib/gcc/pic32c/8.3.1/../../../../pic32c/lib/thumb/v6-m/nofp\libg-musl.a(memset.o)
 .debug_info    0x0004b24f      0x29d c:/program files/microchip/xc32/v4.35/bin/bin/../../lib/gcc/pic32c/8.3.1/../../../../pic32c/lib/thumb/v6-m/nofp\libg-musl.a(strlen.o)
 .debug_info    0x0004b4ec      0x2a2 c:/program files/microchip/xc32/v4.35/bin/bin/../../lib/gcc/pic32c/8.3.1/../../../../pic32c/lib/thumb/v6-m/nofp\libg-musl.a(__environ.o)
 .debug_info    0x0004b78e      0x266 c:/program files/microchip/xc32/v4.35/bin/bin/../../lib/gcc/pic32c/8.3.1/../../../../pic32c/lib/thumb/v6-m/nofp\libg-musl.a(__errno_location.o)
 .debug_info    0x0004b9f4      0x6bd c:/program files/microchip/xc32/v4.35/bin/bin/../../lib/gcc/pic32c/8.3.1/../../../../pic32c/lib/thumb/v6-m/nofp\libg-musl.a(vfprintf.o)
 .debug_info    0x0004c0b1      0x3d0 c:/program files/microchip/xc32/v4.35/bin/bin/../../lib/gcc/pic32c/8.3.1/../../../../pic32c/lib/thumb/v6-m/nofp\libg-musl.a(__pop_float.o)
 .debug_info    0x0004c481      0x3f4 c:/program files/microchip/xc32/v4.35/bin/bin/../../lib/gcc/pic32c/8.3.1/../../../../pic32c/lib/thumb/v6-m/nofp\libg-musl.a(__pop_int.o)
 .debug_info    0x0004c875      0x400 c:/program files/microchip/xc32/v4.35/bin/bin/../../lib/gcc/pic32c/8.3.1/../../../../pic32c/lib/thumb/v6-m/nofp\libg-musl.a(__pop_ptr.o)
 .debug_info    0x0004cc75      0xd73 c:/program files/microchip/xc32/v4.35/bin/bin/../../lib/gcc/pic32c/8.3.1/../../../../pic32c/lib/thumb/v6-m/nofp\libg-musl.a(__printf_core.o)
 .debug_info    0x0004d9e8      0x2ee c:/program files/microchip/xc32/v4.35/bin/bin/../../lib/gcc/pic32c/8.3.1/../../../../pic32c/lib/thumb/v6-m/nofp\libg-musl.a(atoi.o)
 .debug_info    0x0004dcd6      0x34c c:/program files/microchip/xc32/v4.35/bin/bin/../../lib/gcc/pic32c/8.3.1/../../../../pic32c/lib/thumb/v6-m/nofp\libg-musl.a(tolower.o)
 .debug_info    0x0004e022      0x8b8 c:/program files/microchip/xc32/v4.35/bin/bin/../../lib/gcc/pic32c/8.3.1/../../../../pic32c/lib/thumb/v6-m/nofp\libg-musl.a(__fmt_a.o)
 .debug_info    0x0004e8da      0x5b5 c:/program files/microchip/xc32/v4.35/bin/bin/../../lib/gcc/pic32c/8.3.1/../../../../pic32c/lib/thumb/v6-m/nofp\libg-musl.a(__fmt_d.o)
 .debug_info    0x0004ee8f      0x93f c:/program files/microchip/xc32/v4.35/bin/bin/../../lib/gcc/pic32c/8.3.1/../../../../pic32c/lib/thumb/v6-m/nofp\libg-musl.a(__fmt_fp.o)
 .debug_info    0x0004f7ce      0x586 c:/program files/microchip/xc32/v4.35/bin/bin/../../lib/gcc/pic32c/8.3.1/../../../../pic32c/lib/thumb/v6-m/nofp\libg-musl.a(__fmt_o.o)
 .debug_info    0x0004fd54      0x571 c:/program files/microchip/xc32/v4.35/bin/bin/../../lib/gcc/pic32c/8.3.1/../../../../pic32c/lib/thumb/v6-m/nofp\libg-musl.a(__fmt_s.o)
 .debug_info    0x000502c5      0x586 c:/program files/microchip/xc32/v4.35/bin/bin/../../lib/gcc/pic32c/8.3.1/../../../../pic32c/lib/thumb/v6-m/nofp\libg-musl.a(__fmt_u.o)
 .debug_info    0x0005084b      0x5ba c:/program files/microchip/xc32/v4.35/bin/bin/../../lib/gcc/pic32c/8.3.1/../../../../pic32c/lib/thumb/v6-m/nofp\libg-musl.a(__fmt_x.o)
 .debug_info    0x00050e05      0x2a7 c:/program files/microchip/xc32/v4.35/bin/bin/../../lib/gcc/pic32c/8.3.1/../../../../pic32c/lib/thumb/v6-m/nofp\libg-musl.a(strcpy.o)
 .debug_info    0x000510ac      0x34c c:/program files/microchip/xc32/v4.35/bin/bin/../../lib/gcc/pic32c/8.3.1/../../../../pic32c/lib/thumb/v6-m/nofp\libg-musl.a(toupper.o)
 .debug_info    0x000513f8      0x42c c:/program files/microchip/xc32/v4.35/bin/bin/../../lib/gcc/pic32c/8.3.1/../../../../pic32c/lib/thumb/v6-m/nofp\libg-musl.a(__cvt_u.o)
 .debug_info    0x00051824      0x2af c:/program files/microchip/xc32/v4.35/bin/bin/../../lib/gcc/pic32c/8.3.1/../../../../pic32c/lib/thumb/v6-m/nofp\libg-musl.a(stpcpy.o)
 .debug_info    0x00051ad3       0x26 c:/program files/microchip/xc32/v4.35/bin/bin/../../lib/gcc/pic32c/8.3.1/thumb/v6-m/nofp\libgcc.a(_udivsi3.o)
 .debug_info    0x00051af9       0x26 c:/program files/microchip/xc32/v4.35/bin/bin/../../lib/gcc/pic32c/8.3.1/thumb/v6-m/nofp\libgcc.a(_divsi3.o)
 .debug_info    0x00051b1f       0x26 c:/program files/microchip/xc32/v4.35/bin/bin/../../lib/gcc/pic32c/8.3.1/thumb/v6-m/nofp\libgcc.a(_dvmd_tls.o)
 .debug_info    0x00051b45       0x26 c:/program files/microchip/xc32/v4.35/bin/bin/../../lib/gcc/pic32c/8.3.1/thumb/v6-m/nofp\libgcc.a(_aeabi_uldivmod.o)
 .debug_info    0x00051b6b      0x492 c:/program files/microchip/xc32/v4.35/bin/bin/../../lib/gcc/pic32c/8.3.1/thumb/v6-m/nofp\libgcc.a(_muldi3.o)
 .debug_info    0x00051ffd      0x3df c:/program files/microchip/xc32/v4.35/bin/bin/../../lib/gcc/pic32c/8.3.1/thumb/v6-m/nofp\libgcc.a(_udivmoddi4.o)
 .debug_info    0x000523dc       0x26 c:/program files/microchip/xc32/v4.35/bin/bin/../../lib/gcc/pic32c/8.3.1/thumb/v6-m/nofp\libgcc.a(_lshrdi3.o)
 .debug_info    0x00052402       0x26 c:/program files/microchip/xc32/v4.35/bin/bin/../../lib/gcc/pic32c/8.3.1/thumb/v6-m/nofp\libgcc.a(_ashldi3.o)
 .debug_info    0x00052428       0x26 c:/program files/microchip/xc32/v4.35/bin/bin/../../lib/gcc/pic32c/8.3.1/thumb/v6-m/nofp\libgcc.a(_clzdi2.o)
 .debug_info    0x0005244e       0x26 c:/program files/microchip/xc32/v4.35/bin/bin/../../lib/gcc/pic32c/8.3.1/thumb/v6-m/nofp\libgcc.a(_clzsi2.o)
 .debug_info    0x00052474      0x292 c:/program files/microchip/xc32/v4.35/bin/bin/../../lib/gcc/pic32c/8.3.1/../../../../pic32c/lib/thumb/v6-m/nofp\libpic32c.a(pic32_data_init_clear.o)
 .debug_info    0x00052706      0x291 c:/program files/microchip/xc32/v4.35/bin/bin/../../lib/gcc/pic32c/8.3.1/../../../../pic32c/lib/thumb/v6-m/nofp\libpic32c.a(pic32_data_init_copy.o)

.debug_abbrev   0x00000000     0xb1cd
 .debug_abbrev  0x00000000      0x13c build/default/debug/_ext/1655452824/mac_task.o
 .debug_abbrev  0x0000013c      0x21b build/default/debug/_ext/1655452824/mac_process_beacon_frame.o
 .debug_abbrev  0x00000357      0x1bf build/default/debug/_ext/1655452824/mac_sync.o
 .debug_abbrev  0x00000516      0x213 build/default/debug/_ext/1655452824/mac_data_req.o
 .debug_abbrev  0x00000729      0x14a build/default/debug/_ext/1655452824/mac_dispatcher.o
 .debug_abbrev  0x00000873      0x1e2 build/default/debug/_ext/1655452824/mac_data_extract_mhr.o
 .debug_abbrev  0x00000a55       0x6d build/default/debug/_ext/1655452824/usr_mlme_sync_loss_ind.o
 .debug_abbrev  0x00000ac2      0x2e5 build/default/debug/_ext/1655452824/mac_associate.o
 .debug_abbrev  0x00000da7      0x341 build/default/debug/_ext/1655452824/mac_pib.o
 .debug_abbrev  0x000010e8      0x2a6 build/default/debug/_ext/1655452824/mac_rx_enable.o
 .debug_abbrev  0x0000138e      0x200 build/default/debug/_ext/1655452824/mac.o
 .debug_abbrev  0x0000158e      0x363 build/default/debug/_ext/1655452824/mac_disassociate.o
 .debug_abbrev  0x000018f1      0x262 build/default/debug/_ext/1655452824/mac_process_phy_tx_frame_status.o
 .debug_abbrev  0x00001b53      0x204 build/default/debug/_ext/1655452824/mac_callback_wrapper.o
 .debug_abbrev  0x00001d57      0x258 build/default/debug/_ext/1655452824/mac_api.o
 .debug_abbrev  0x00001faf      0x351 build/default/debug/_ext/1655452824/mac_misc.o
 .debug_abbrev  0x00002300      0x33f build/default/debug/_ext/1655452824/mac_mcps_data.o
 .debug_abbrev  0x0000263f      0x38e build/default/debug/_ext/1655452824/mac_data_ind.o
 .debug_abbrev  0x000029cd      0x385 build/default/debug/_ext/1655452824/mac_scan.o
 .debug_abbrev  0x00002d52      0x22a build/default/debug/_ext/1655452824/mac_poll.o
 .debug_abbrev  0x00002f7c      0x3a5 build/default/debug/_ext/745501718/pal.o
 .debug_abbrev  0x00003321      0x38d build/default/debug/_ext/559172130/phy_init.o
 .debug_abbrev  0x000036ae      0x162 build/default/debug/_ext/559172130/phy_rx_enable.o
 .debug_abbrev  0x00003810      0x1c0 build/default/debug/_ext/559172130/phy_pwr_mgmt.o
 .debug_abbrev  0x000039d0      0x2a4 build/default/debug/_ext/559172130/phy_tx.o
 .debug_abbrev  0x00003c74      0x34f build/default/debug/_ext/559172130/phy_pib.o
 .debug_abbrev  0x00003fc3      0x371 build/default/debug/_ext/559172130/phy.o
 .debug_abbrev  0x00004334      0x347 build/default/debug/_ext/559172130/phy_helper.o
 .debug_abbrev  0x0000467b      0x16b build/default/debug/_ext/559172130/phy_irq_handler.o
 .debug_abbrev  0x000047e6      0x191 build/default/debug/_ext/559172130/phy_trx_reg_access.o
 .debug_abbrev  0x00004977      0x1c9 build/default/debug/_ext/559172130/phy_ed.o
 .debug_abbrev  0x00004b40      0x231 build/default/debug/_ext/559172130/phy_rx.o
 .debug_abbrev  0x00004d71      0x12a build/default/debug/_ext/957911548/phy_task.o
 .debug_abbrev  0x00004e9b       0x5e build/default/debug/_ext/957911548/phy_ed_end_cb.o
 .debug_abbrev  0x00004ef9      0x190 build/default/debug/_ext/1374435801/bmm.o
 .debug_abbrev  0x00005089      0x2b4 build/default/debug/_ext/874725666/qmm.o
 .debug_abbrev  0x0000533d      0x189 build/default/debug/_ext/1529399856/osal_freertos_extend.o
 .debug_abbrev  0x000054c6      0x1f9 build/default/debug/_ext/1529399856/osal_freertos.o
 .debug_abbrev  0x000056bf      0x13e build/default/debug/_ext/1984496892/plib_clock.o
 .debug_abbrev  0x000057fd      0x1cb build/default/debug/_ext/60167341/plib_eic.o
 .debug_abbrev  0x000059c8      0x1fd build/default/debug/_ext/1865468468/plib_nvic.o
 .debug_abbrev  0x00005bc5      0x1af build/default/debug/_ext/1593096446/plib_nvmctrl.o
 .debug_abbrev  0x00005d74      0x1d6 build/default/debug/_ext/1865521619/plib_port.o
 .debug_abbrev  0x00005f4a      0x2b2 build/default/debug/_ext/17022449/plib_sercom4_spi_master.o
 .debug_abbrev  0x000061fc      0x471 build/default/debug/_ext/504274921/plib_sercom0_usart.o
 .debug_abbrev  0x0000666d      0x1e9 build/default/debug/_ext/829342655/plib_tc3.o
 .debug_abbrev  0x00006856      0x382 build/default/debug/_ext/1832805299/sys_console.o
 .debug_abbrev  0x00006bd8      0x338 build/default/debug/_ext/1832805299/sys_console_uart.o
 .debug_abbrev  0x00006f10      0x246 build/default/debug/_ext/1881668453/sys_int.o
 .debug_abbrev  0x00007156      0x516 build/default/debug/_ext/101884895/sys_time.o
 .debug_abbrev  0x0000766c       0x3e build/default/debug/_ext/1171490990/exceptions.o
 .debug_abbrev  0x000076aa       0xf7 build/default/debug/_ext/1171490990/freertos_hooks.o
 .debug_abbrev  0x000077a1       0xb5 build/default/debug/_ext/1171490990/interrupts.o
 .debug_abbrev  0x00007856      0x110 build/default/debug/_ext/1171490990/startup_xc32.o
 .debug_abbrev  0x00007966      0x283 build/default/debug/_ext/1171490990/initialization.o
 .debug_abbrev  0x00007be9      0x133 build/default/debug/_ext/1171490990/tasks.o
 .debug_abbrev  0x00007d1c      0x1cf build/default/debug/_ext/1624415188/port.o
 .debug_abbrev  0x00007eeb      0x261 build/default/debug/_ext/1665200909/heap_4.o
 .debug_abbrev  0x0000814c      0x418 build/default/debug/_ext/404212886/FreeRTOS_tasks.o
 .debug_abbrev  0x00008564      0x3a7 build/default/debug/_ext/404212886/timers.o
 .debug_abbrev  0x0000890b      0x336 build/default/debug/_ext/404212886/queue.o
 .debug_abbrev  0x00008c41      0x15e build/default/debug/_ext/404212886/list.o
 .debug_abbrev  0x00008d9f      0x184 build/default/debug/_ext/1360937237/app.o
 .debug_abbrev  0x00008f23       0x77 build/default/debug/_ext/1360937237/main.o
 .debug_abbrev  0x00008f9a      0x39e build/default/debug/_ext/85617168/demo_app_rfd.o
 .debug_abbrev  0x00009338      0x282 build/default/debug/_ext/85617168/usr_mac_callbacks.o
 .debug_abbrev  0x000095ba       0x44 c:/program files/microchip/xc32/v4.35/bin/bin/../../lib/gcc/pic32c/8.3.1/../../../../pic32c/lib/thumb/v6-m/nofp\libpic32c.a(data_init.o)
 .debug_abbrev  0x000095fe      0x117 c:/program files/microchip/xc32/v4.35/bin/bin/../../lib/gcc/pic32c/8.3.1/../../../../pic32c/lib/thumb/v6-m/nofp\libg-musl.a(__libc_start_main.o)
 .debug_abbrev  0x00009715       0xb8 c:/program files/microchip/xc32/v4.35/bin/bin/../../lib/gcc/pic32c/8.3.1/../../../../pic32c/lib/thumb/v6-m/nofp\libg-musl.a(libc.o)
 .debug_abbrev  0x000097cd       0x8b c:/program files/microchip/xc32/v4.35/bin/bin/../../lib/gcc/pic32c/8.3.1/../../../../pic32c/lib/thumb/v6-m/nofp\libg-musl.a(rand.o)
 .debug_abbrev  0x00009858      0x168 c:/program files/microchip/xc32/v4.35/bin/bin/../../lib/gcc/pic32c/8.3.1/../../../../pic32c/lib/thumb/v6-m/nofp\libg-musl.a(vsnprintf.o)
 .debug_abbrev  0x000099c0       0x9c c:/program files/microchip/xc32/v4.35/bin/bin/../../lib/gcc/pic32c/8.3.1/../../../../pic32c/lib/thumb/v6-m/nofp\libg-musl.a(memcpy.o)
 .debug_abbrev  0x00009a5c       0x97 c:/program files/microchip/xc32/v4.35/bin/bin/../../lib/gcc/pic32c/8.3.1/../../../../pic32c/lib/thumb/v6-m/nofp\libg-musl.a(memset.o)
 .debug_abbrev  0x00009af3       0x86 c:/program files/microchip/xc32/v4.35/bin/bin/../../lib/gcc/pic32c/8.3.1/../../../../pic32c/lib/thumb/v6-m/nofp\libg-musl.a(strlen.o)
 .debug_abbrev  0x00009b79       0x57 c:/program files/microchip/xc32/v4.35/bin/bin/../../lib/gcc/pic32c/8.3.1/../../../../pic32c/lib/thumb/v6-m/nofp\libg-musl.a(__environ.o)
 .debug_abbrev  0x00009bd0       0x2e c:/program files/microchip/xc32/v4.35/bin/bin/../../lib/gcc/pic32c/8.3.1/../../../../pic32c/lib/thumb/v6-m/nofp\libg-musl.a(__errno_location.o)
 .debug_abbrev  0x00009bfe      0x16f c:/program files/microchip/xc32/v4.35/bin/bin/../../lib/gcc/pic32c/8.3.1/../../../../pic32c/lib/thumb/v6-m/nofp\libg-musl.a(vfprintf.o)
 .debug_abbrev  0x00009d6d       0xbd c:/program files/microchip/xc32/v4.35/bin/bin/../../lib/gcc/pic32c/8.3.1/../../../../pic32c/lib/thumb/v6-m/nofp\libg-musl.a(__pop_float.o)
 .debug_abbrev  0x00009e2a       0xbd c:/program files/microchip/xc32/v4.35/bin/bin/../../lib/gcc/pic32c/8.3.1/../../../../pic32c/lib/thumb/v6-m/nofp\libg-musl.a(__pop_int.o)
 .debug_abbrev  0x00009ee7       0xbd c:/program files/microchip/xc32/v4.35/bin/bin/../../lib/gcc/pic32c/8.3.1/../../../../pic32c/lib/thumb/v6-m/nofp\libg-musl.a(__pop_ptr.o)
 .debug_abbrev  0x00009fa4      0x2be c:/program files/microchip/xc32/v4.35/bin/bin/../../lib/gcc/pic32c/8.3.1/../../../../pic32c/lib/thumb/v6-m/nofp\libg-musl.a(__printf_core.o)
 .debug_abbrev  0x0000a262       0xbb c:/program files/microchip/xc32/v4.35/bin/bin/../../lib/gcc/pic32c/8.3.1/../../../../pic32c/lib/thumb/v6-m/nofp\libg-musl.a(atoi.o)
 .debug_abbrev  0x0000a31d       0xe9 c:/program files/microchip/xc32/v4.35/bin/bin/../../lib/gcc/pic32c/8.3.1/../../../../pic32c/lib/thumb/v6-m/nofp\libg-musl.a(tolower.o)
 .debug_abbrev  0x0000a406      0x194 c:/program files/microchip/xc32/v4.35/bin/bin/../../lib/gcc/pic32c/8.3.1/../../../../pic32c/lib/thumb/v6-m/nofp\libg-musl.a(__fmt_a.o)
 .debug_abbrev  0x0000a59a      0x120 c:/program files/microchip/xc32/v4.35/bin/bin/../../lib/gcc/pic32c/8.3.1/../../../../pic32c/lib/thumb/v6-m/nofp\libg-musl.a(__fmt_d.o)
 .debug_abbrev  0x0000a6ba      0x1a2 c:/program files/microchip/xc32/v4.35/bin/bin/../../lib/gcc/pic32c/8.3.1/../../../../pic32c/lib/thumb/v6-m/nofp\libg-musl.a(__fmt_fp.o)
 .debug_abbrev  0x0000a85c      0x120 c:/program files/microchip/xc32/v4.35/bin/bin/../../lib/gcc/pic32c/8.3.1/../../../../pic32c/lib/thumb/v6-m/nofp\libg-musl.a(__fmt_o.o)
 .debug_abbrev  0x0000a97c      0x11d c:/program files/microchip/xc32/v4.35/bin/bin/../../lib/gcc/pic32c/8.3.1/../../../../pic32c/lib/thumb/v6-m/nofp\libg-musl.a(__fmt_s.o)
 .debug_abbrev  0x0000aa99      0x120 c:/program files/microchip/xc32/v4.35/bin/bin/../../lib/gcc/pic32c/8.3.1/../../../../pic32c/lib/thumb/v6-m/nofp\libg-musl.a(__fmt_u.o)
 .debug_abbrev  0x0000abb9      0x10f c:/program files/microchip/xc32/v4.35/bin/bin/../../lib/gcc/pic32c/8.3.1/../../../../pic32c/lib/thumb/v6-m/nofp\libg-musl.a(__fmt_x.o)
 .debug_abbrev  0x0000acc8       0x8e c:/program files/microchip/xc32/v4.35/bin/bin/../../lib/gcc/pic32c/8.3.1/../../../../pic32c/lib/thumb/v6-m/nofp\libg-musl.a(strcpy.o)
 .debug_abbrev  0x0000ad56       0xe9 c:/program files/microchip/xc32/v4.35/bin/bin/../../lib/gcc/pic32c/8.3.1/../../../../pic32c/lib/thumb/v6-m/nofp\libg-musl.a(toupper.o)
 .debug_abbrev  0x0000ae3f       0xb2 c:/program files/microchip/xc32/v4.35/bin/bin/../../lib/gcc/pic32c/8.3.1/../../../../pic32c/lib/thumb/v6-m/nofp\libg-musl.a(__cvt_u.o)
 .debug_abbrev  0x0000aef1       0x63 c:/program files/microchip/xc32/v4.35/bin/bin/../../lib/gcc/pic32c/8.3.1/../../../../pic32c/lib/thumb/v6-m/nofp\libg-musl.a(stpcpy.o)
 .debug_abbrev  0x0000af54       0x14 c:/program files/microchip/xc32/v4.35/bin/bin/../../lib/gcc/pic32c/8.3.1/thumb/v6-m/nofp\libgcc.a(_udivsi3.o)
 .debug_abbrev  0x0000af68       0x14 c:/program files/microchip/xc32/v4.35/bin/bin/../../lib/gcc/pic32c/8.3.1/thumb/v6-m/nofp\libgcc.a(_divsi3.o)
 .debug_abbrev  0x0000af7c       0x14 c:/program files/microchip/xc32/v4.35/bin/bin/../../lib/gcc/pic32c/8.3.1/thumb/v6-m/nofp\libgcc.a(_dvmd_tls.o)
 .debug_abbrev  0x0000af90       0x14 c:/program files/microchip/xc32/v4.35/bin/bin/../../lib/gcc/pic32c/8.3.1/thumb/v6-m/nofp\libgcc.a(_aeabi_uldivmod.o)
 .debug_abbrev  0x0000afa4       0xef c:/program files/microchip/xc32/v4.35/bin/bin/../../lib/gcc/pic32c/8.3.1/thumb/v6-m/nofp\libgcc.a(_muldi3.o)
 .debug_abbrev  0x0000b093       0x8e c:/program files/microchip/xc32/v4.35/bin/bin/../../lib/gcc/pic32c/8.3.1/thumb/v6-m/nofp\libgcc.a(_udivmoddi4.o)
 .debug_abbrev  0x0000b121       0x14 c:/program files/microchip/xc32/v4.35/bin/bin/../../lib/gcc/pic32c/8.3.1/thumb/v6-m/nofp\libgcc.a(_lshrdi3.o)
 .debug_abbrev  0x0000b135       0x14 c:/program files/microchip/xc32/v4.35/bin/bin/../../lib/gcc/pic32c/8.3.1/thumb/v6-m/nofp\libgcc.a(_ashldi3.o)
 .debug_abbrev  0x0000b149       0x14 c:/program files/microchip/xc32/v4.35/bin/bin/../../lib/gcc/pic32c/8.3.1/thumb/v6-m/nofp\libgcc.a(_clzdi2.o)
 .debug_abbrev  0x0000b15d       0x14 c:/program files/microchip/xc32/v4.35/bin/bin/../../lib/gcc/pic32c/8.3.1/thumb/v6-m/nofp\libgcc.a(_clzsi2.o)
 .debug_abbrev  0x0000b171       0x2e c:/program files/microchip/xc32/v4.35/bin/bin/../../lib/gcc/pic32c/8.3.1/../../../../pic32c/lib/thumb/v6-m/nofp\libpic32c.a(pic32_data_init_clear.o)
 .debug_abbrev  0x0000b19f       0x2e c:/program files/microchip/xc32/v4.35/bin/bin/../../lib/gcc/pic32c/8.3.1/../../../../pic32c/lib/thumb/v6-m/nofp\libpic32c.a(pic32_data_init_copy.o)

.debug_loc      0x00000000    0x1ae2b
 .debug_loc     0x00000000       0x7a build/default/debug/_ext/1655452824/mac_task.o
 .debug_loc     0x0000007a      0x217 build/default/debug/_ext/1655452824/mac_process_beacon_frame.o
 .debug_loc     0x00000291      0x132 build/default/debug/_ext/1655452824/mac_sync.o
 .debug_loc     0x000003c3      0x6f6 build/default/debug/_ext/1655452824/mac_data_req.o
 .debug_loc     0x00000ab9       0xa8 build/default/debug/_ext/1655452824/mac_dispatcher.o
 .debug_loc     0x00000b61      0x33d build/default/debug/_ext/1655452824/mac_data_extract_mhr.o
 .debug_loc     0x00000e9e       0x94 build/default/debug/_ext/1655452824/usr_mlme_sync_loss_ind.o
 .debug_loc     0x00000f32      0x7ee build/default/debug/_ext/1655452824/mac_associate.o
 .debug_loc     0x00001720      0xd11 build/default/debug/_ext/1655452824/mac_pib.o
 .debug_loc     0x00002431      0x28a build/default/debug/_ext/1655452824/mac_rx_enable.o
 .debug_loc     0x000026bb      0x19e build/default/debug/_ext/1655452824/mac.o
 .debug_loc     0x00002859      0x793 build/default/debug/_ext/1655452824/mac_disassociate.o
 .debug_loc     0x00002fec      0x38c build/default/debug/_ext/1655452824/mac_process_phy_tx_frame_status.o
 .debug_loc     0x00003378      0x5b6 build/default/debug/_ext/1655452824/mac_callback_wrapper.o
 .debug_loc     0x0000392e      0xaf6 build/default/debug/_ext/1655452824/mac_api.o
 .debug_loc     0x00004424      0x2e0 build/default/debug/_ext/1655452824/mac_misc.o
 .debug_loc     0x00004704      0x8b9 build/default/debug/_ext/1655452824/mac_mcps_data.o
 .debug_loc     0x00004fbd      0x8e0 build/default/debug/_ext/1655452824/mac_data_ind.o
 .debug_loc     0x0000589d      0xa7f build/default/debug/_ext/1655452824/mac_scan.o
 .debug_loc     0x0000631c      0x28d build/default/debug/_ext/1655452824/mac_poll.o
 .debug_loc     0x000065a9      0x7d2 build/default/debug/_ext/745501718/pal.o
 .debug_loc     0x00006d7b      0x360 build/default/debug/_ext/559172130/phy_init.o
 .debug_loc     0x000070db       0x9c build/default/debug/_ext/559172130/phy_rx_enable.o
 .debug_loc     0x00007177       0xc9 build/default/debug/_ext/559172130/phy_pwr_mgmt.o
 .debug_loc     0x00007240      0x2ea build/default/debug/_ext/559172130/phy_tx.o
 .debug_loc     0x0000752a      0x954 build/default/debug/_ext/559172130/phy_pib.o
 .debug_loc     0x00007e7e      0x418 build/default/debug/_ext/559172130/phy.o
 .debug_loc     0x00008296      0xf4b build/default/debug/_ext/559172130/phy_helper.o
 .debug_loc     0x000091e1       0xdb build/default/debug/_ext/559172130/phy_irq_handler.o
 .debug_loc     0x000092bc      0x4ad build/default/debug/_ext/559172130/phy_trx_reg_access.o
 .debug_loc     0x00009769       0xc4 build/default/debug/_ext/559172130/phy_ed.o
 .debug_loc     0x0000982d      0x276 build/default/debug/_ext/559172130/phy_rx.o
 .debug_loc     0x00009aa3      0x1ce build/default/debug/_ext/957911548/phy_task.o
 .debug_loc     0x00009c71       0x25 build/default/debug/_ext/957911548/phy_ed_end_cb.o
 .debug_loc     0x00009c96      0x1d1 build/default/debug/_ext/1374435801/bmm.o
 .debug_loc     0x00009e67      0x541 build/default/debug/_ext/874725666/qmm.o
 .debug_loc     0x0000a3a8      0x4dc build/default/debug/_ext/1529399856/osal_freertos_extend.o
 .debug_loc     0x0000a884      0x70a build/default/debug/_ext/1529399856/osal_freertos.o
 .debug_loc     0x0000af8e       0x31 build/default/debug/_ext/1984496892/plib_clock.o
 .debug_loc     0x0000afbf       0xf0 build/default/debug/_ext/60167341/plib_eic.o
 .debug_loc     0x0000b0af      0x156 build/default/debug/_ext/1865468468/plib_nvic.o
 .debug_loc     0x0000b205      0x42e build/default/debug/_ext/1593096446/plib_nvmctrl.o
 .debug_loc     0x0000b633      0x246 build/default/debug/_ext/1865521619/plib_port.o
 .debug_loc     0x0000b879      0x68a build/default/debug/_ext/17022449/plib_sercom4_spi_master.o
 .debug_loc     0x0000bf03      0xdd8 build/default/debug/_ext/504274921/plib_sercom0_usart.o
 .debug_loc     0x0000ccdb       0x6f build/default/debug/_ext/829342655/plib_tc3.o
 .debug_loc     0x0000cd4a      0xb69 build/default/debug/_ext/1832805299/sys_console.o
 .debug_loc     0x0000d8b3      0x83c build/default/debug/_ext/1832805299/sys_console_uart.o
 .debug_loc     0x0000e0ef      0x17d build/default/debug/_ext/1881668453/sys_int.o
 .debug_loc     0x0000e26c     0x2371 build/default/debug/_ext/101884895/sys_time.o
 .debug_loc     0x000105dd       0x76 build/default/debug/_ext/1171490990/freertos_hooks.o
 .debug_loc     0x00010653       0x20 build/default/debug/_ext/1171490990/startup_xc32.o
 .debug_loc     0x00010673       0x45 build/default/debug/_ext/1171490990/initialization.o
 .debug_loc     0x000106b8       0xfb build/default/debug/_ext/1171490990/tasks.o
 .debug_loc     0x000107b3      0x14d build/default/debug/_ext/1624415188/port.o
 .debug_loc     0x00010900      0x588 build/default/debug/_ext/1665200909/heap_4.o
 .debug_loc     0x00010e88     0x22d4 build/default/debug/_ext/404212886/FreeRTOS_tasks.o
 .debug_loc     0x0001315c      0xe33 build/default/debug/_ext/404212886/timers.o
 .debug_loc     0x00013f8f     0x1e45 build/default/debug/_ext/404212886/queue.o
 .debug_loc     0x00015dd4       0xa6 build/default/debug/_ext/404212886/list.o
 .debug_loc     0x00015e7a       0x63 build/default/debug/_ext/1360937237/app.o
 .debug_loc     0x00015edd       0x20 build/default/debug/_ext/1360937237/main.o
 .debug_loc     0x00015efd      0x76c build/default/debug/_ext/85617168/demo_app_rfd.o
 .debug_loc     0x00016669      0x8cf build/default/debug/_ext/85617168/usr_mac_callbacks.o
 .debug_loc     0x00016f38       0x14 c:/program files/microchip/xc32/v4.35/bin/bin/../../lib/gcc/pic32c/8.3.1/../../../../pic32c/lib/thumb/v6-m/nofp\libpic32c.a(data_init.o)
 .debug_loc     0x00016f4c       0x5e c:/program files/microchip/xc32/v4.35/bin/bin/../../lib/gcc/pic32c/8.3.1/../../../../pic32c/lib/thumb/v6-m/nofp\libg-musl.a(__libc_start_main.o)
 .debug_loc     0x00016faa       0x24 c:/program files/microchip/xc32/v4.35/bin/bin/../../lib/gcc/pic32c/8.3.1/../../../../pic32c/lib/thumb/v6-m/nofp\libg-musl.a(rand.o)
 .debug_loc     0x00016fce      0x10c c:/program files/microchip/xc32/v4.35/bin/bin/../../lib/gcc/pic32c/8.3.1/../../../../pic32c/lib/thumb/v6-m/nofp\libg-musl.a(vsnprintf.o)
 .debug_loc     0x000170da      0x12d c:/program files/microchip/xc32/v4.35/bin/bin/../../lib/gcc/pic32c/8.3.1/../../../../pic32c/lib/thumb/v6-m/nofp\libg-musl.a(memcpy.o)
 .debug_loc     0x00017207       0xcd c:/program files/microchip/xc32/v4.35/bin/bin/../../lib/gcc/pic32c/8.3.1/../../../../pic32c/lib/thumb/v6-m/nofp\libg-musl.a(memset.o)
 .debug_loc     0x000172d4       0x81 c:/program files/microchip/xc32/v4.35/bin/bin/../../lib/gcc/pic32c/8.3.1/../../../../pic32c/lib/thumb/v6-m/nofp\libg-musl.a(strlen.o)
 .debug_loc     0x00017355       0xd0 c:/program files/microchip/xc32/v4.35/bin/bin/../../lib/gcc/pic32c/8.3.1/../../../../pic32c/lib/thumb/v6-m/nofp\libg-musl.a(vfprintf.o)
 .debug_loc     0x00017425       0x6f c:/program files/microchip/xc32/v4.35/bin/bin/../../lib/gcc/pic32c/8.3.1/../../../../pic32c/lib/thumb/v6-m/nofp\libg-musl.a(__pop_float.o)
 .debug_loc     0x00017494      0x34c c:/program files/microchip/xc32/v4.35/bin/bin/../../lib/gcc/pic32c/8.3.1/../../../../pic32c/lib/thumb/v6-m/nofp\libg-musl.a(__pop_int.o)
 .debug_loc     0x000177e0      0x1fe c:/program files/microchip/xc32/v4.35/bin/bin/../../lib/gcc/pic32c/8.3.1/../../../../pic32c/lib/thumb/v6-m/nofp\libg-musl.a(__pop_ptr.o)
 .debug_loc     0x000179de      0x6d9 c:/program files/microchip/xc32/v4.35/bin/bin/../../lib/gcc/pic32c/8.3.1/../../../../pic32c/lib/thumb/v6-m/nofp\libg-musl.a(__printf_core.o)
 .debug_loc     0x000180b7       0xdc c:/program files/microchip/xc32/v4.35/bin/bin/../../lib/gcc/pic32c/8.3.1/../../../../pic32c/lib/thumb/v6-m/nofp\libg-musl.a(atoi.o)
 .debug_loc     0x00018193       0x8f c:/program files/microchip/xc32/v4.35/bin/bin/../../lib/gcc/pic32c/8.3.1/../../../../pic32c/lib/thumb/v6-m/nofp\libg-musl.a(tolower.o)
 .debug_loc     0x00018222      0xd9a c:/program files/microchip/xc32/v4.35/bin/bin/../../lib/gcc/pic32c/8.3.1/../../../../pic32c/lib/thumb/v6-m/nofp\libg-musl.a(__fmt_a.o)
 .debug_loc     0x00018fbc      0x2a6 c:/program files/microchip/xc32/v4.35/bin/bin/../../lib/gcc/pic32c/8.3.1/../../../../pic32c/lib/thumb/v6-m/nofp\libg-musl.a(__fmt_d.o)
 .debug_loc     0x00019262      0xc94 c:/program files/microchip/xc32/v4.35/bin/bin/../../lib/gcc/pic32c/8.3.1/../../../../pic32c/lib/thumb/v6-m/nofp\libg-musl.a(__fmt_fp.o)
 .debug_loc     0x00019ef6      0x12d c:/program files/microchip/xc32/v4.35/bin/bin/../../lib/gcc/pic32c/8.3.1/../../../../pic32c/lib/thumb/v6-m/nofp\libg-musl.a(__fmt_o.o)
 .debug_loc     0x0001a023      0x144 c:/program files/microchip/xc32/v4.35/bin/bin/../../lib/gcc/pic32c/8.3.1/../../../../pic32c/lib/thumb/v6-m/nofp\libg-musl.a(__fmt_s.o)
 .debug_loc     0x0001a167      0x12d c:/program files/microchip/xc32/v4.35/bin/bin/../../lib/gcc/pic32c/8.3.1/../../../../pic32c/lib/thumb/v6-m/nofp\libg-musl.a(__fmt_u.o)
 .debug_loc     0x0001a294      0x3be c:/program files/microchip/xc32/v4.35/bin/bin/../../lib/gcc/pic32c/8.3.1/../../../../pic32c/lib/thumb/v6-m/nofp\libg-musl.a(__fmt_x.o)
 .debug_loc     0x0001a652       0x74 c:/program files/microchip/xc32/v4.35/bin/bin/../../lib/gcc/pic32c/8.3.1/../../../../pic32c/lib/thumb/v6-m/nofp\libg-musl.a(strcpy.o)
 .debug_loc     0x0001a6c6       0x8f c:/program files/microchip/xc32/v4.35/bin/bin/../../lib/gcc/pic32c/8.3.1/../../../../pic32c/lib/thumb/v6-m/nofp\libg-musl.a(toupper.o)
 .debug_loc     0x0001a755      0x1d4 c:/program files/microchip/xc32/v4.35/bin/bin/../../lib/gcc/pic32c/8.3.1/../../../../pic32c/lib/thumb/v6-m/nofp\libg-musl.a(__cvt_u.o)
 .debug_loc     0x0001a929       0x90 c:/program files/microchip/xc32/v4.35/bin/bin/../../lib/gcc/pic32c/8.3.1/../../../../pic32c/lib/thumb/v6-m/nofp\libg-musl.a(stpcpy.o)
 .debug_loc     0x0001a9b9      0x177 c:/program files/microchip/xc32/v4.35/bin/bin/../../lib/gcc/pic32c/8.3.1/thumb/v6-m/nofp\libgcc.a(_muldi3.o)
 .debug_loc     0x0001ab30      0x2e7 c:/program files/microchip/xc32/v4.35/bin/bin/../../lib/gcc/pic32c/8.3.1/thumb/v6-m/nofp\libgcc.a(_udivmoddi4.o)
 .debug_loc     0x0001ae17       0x14 c:/program files/microchip/xc32/v4.35/bin/bin/../../lib/gcc/pic32c/8.3.1/../../../../pic32c/lib/thumb/v6-m/nofp\libpic32c.a(pic32_data_init_copy.o)

.debug_aranges  0x00000000     0x1b38
 .debug_aranges
                0x00000000       0x28 build/default/debug/_ext/1655452824/mac_task.o
 .debug_aranges
                0x00000028       0x20 build/default/debug/_ext/1655452824/mac_process_beacon_frame.o
 .debug_aranges
                0x00000048       0x28 build/default/debug/_ext/1655452824/mac_sync.o
 .debug_aranges
                0x00000070       0x20 build/default/debug/_ext/1655452824/mac_data_req.o
 .debug_aranges
                0x00000090       0x20 build/default/debug/_ext/1655452824/mac_dispatcher.o
 .debug_aranges
                0x000000b0       0x20 build/default/debug/_ext/1655452824/mac_data_extract_mhr.o
 .debug_aranges
                0x000000d0       0x20 build/default/debug/_ext/1655452824/usr_mlme_sync_loss_ind.o
 .debug_aranges
                0x000000f0       0x40 build/default/debug/_ext/1655452824/mac_associate.o
 .debug_aranges
                0x00000130       0x48 build/default/debug/_ext/1655452824/mac_pib.o
 .debug_aranges
                0x00000178       0x30 build/default/debug/_ext/1655452824/mac_rx_enable.o
 .debug_aranges
                0x000001a8       0x30 build/default/debug/_ext/1655452824/mac.o
 .debug_aranges
                0x000001d8       0x38 build/default/debug/_ext/1655452824/mac_disassociate.o
 .debug_aranges
                0x00000210       0x20 build/default/debug/_ext/1655452824/mac_process_phy_tx_frame_status.o
 .debug_aranges
                0x00000230       0x80 build/default/debug/_ext/1655452824/mac_callback_wrapper.o
 .debug_aranges
                0x000002b0       0x70 build/default/debug/_ext/1655452824/mac_api.o
 .debug_aranges
                0x00000320       0x60 build/default/debug/_ext/1655452824/mac_misc.o
 .debug_aranges
                0x00000380       0x30 build/default/debug/_ext/1655452824/mac_mcps_data.o
 .debug_aranges
                0x000003b0       0x30 build/default/debug/_ext/1655452824/mac_data_ind.o
 .debug_aranges
                0x000003e0       0x58 build/default/debug/_ext/1655452824/mac_scan.o
 .debug_aranges
                0x00000438       0x38 build/default/debug/_ext/1655452824/mac_poll.o
 .debug_aranges
                0x00000470       0x70 build/default/debug/_ext/745501718/pal.o
 .debug_aranges
                0x000004e0       0x48 build/default/debug/_ext/559172130/phy_init.o
 .debug_aranges
                0x00000528       0x20 build/default/debug/_ext/559172130/phy_rx_enable.o
 .debug_aranges
                0x00000548       0x30 build/default/debug/_ext/559172130/phy_pwr_mgmt.o
 .debug_aranges
                0x00000578       0x48 build/default/debug/_ext/559172130/phy_tx.o
 .debug_aranges
                0x000005c0       0x40 build/default/debug/_ext/559172130/phy_pib.o
 .debug_aranges
                0x00000600       0x70 build/default/debug/_ext/559172130/phy.o
 .debug_aranges
                0x00000670       0x90 build/default/debug/_ext/559172130/phy_helper.o
 .debug_aranges
                0x00000700       0x30 build/default/debug/_ext/559172130/phy_irq_handler.o
 .debug_aranges
                0x00000730       0x58 build/default/debug/_ext/559172130/phy_trx_reg_access.o
 .debug_aranges
                0x00000788       0x30 build/default/debug/_ext/559172130/phy_ed.o
 .debug_aranges
                0x000007b8       0x28 build/default/debug/_ext/559172130/phy_rx.o
 .debug_aranges
                0x000007e0       0x38 build/default/debug/_ext/957911548/phy_task.o
 .debug_aranges
                0x00000818       0x20 build/default/debug/_ext/957911548/phy_ed_end_cb.o
 .debug_aranges
                0x00000838       0x38 build/default/debug/_ext/1374435801/bmm.o
 .debug_aranges
                0x00000870       0x40 build/default/debug/_ext/874725666/qmm.o
 .debug_aranges
                0x000008b0       0x58 build/default/debug/_ext/1529399856/osal_freertos_extend.o
 .debug_aranges
                0x00000908       0x90 build/default/debug/_ext/1529399856/osal_freertos.o
 .debug_aranges
                0x00000998       0x20 build/default/debug/_ext/1984496892/plib_clock.o
 .debug_aranges
                0x000009b8       0x40 build/default/debug/_ext/60167341/plib_eic.o
 .debug_aranges
                0x000009f8       0x38 build/default/debug/_ext/1865468468/plib_nvic.o
 .debug_aranges
                0x00000a30       0x88 build/default/debug/_ext/1593096446/plib_nvmctrl.o
 .debug_aranges
                0x00000ab8       0x70 build/default/debug/_ext/1865521619/plib_port.o
 .debug_aranges
                0x00000b28       0x60 build/default/debug/_ext/17022449/plib_sercom4_spi_master.o
 .debug_aranges
                0x00000b88       0xe8 build/default/debug/_ext/504274921/plib_sercom0_usart.o
 .debug_aranges
                0x00000c70       0x78 build/default/debug/_ext/829342655/plib_tc3.o
 .debug_aranges
                0x00000ce8       0x88 build/default/debug/_ext/1832805299/sys_console.o
 .debug_aranges
                0x00000d70       0x70 build/default/debug/_ext/1832805299/sys_console_uart.o
 .debug_aranges
                0x00000de0       0x40 build/default/debug/_ext/1881668453/sys_int.o
 .debug_aranges
                0x00000e20      0x128 build/default/debug/_ext/101884895/sys_time.o
 .debug_aranges
                0x00000f48       0x28 build/default/debug/_ext/1171490990/exceptions.o
 .debug_aranges
                0x00000f70       0x40 build/default/debug/_ext/1171490990/freertos_hooks.o
 .debug_aranges
                0x00000fb0       0x20 build/default/debug/_ext/1171490990/interrupts.o
 .debug_aranges
                0x00000fd0       0x28 build/default/debug/_ext/1171490990/startup_xc32.o
 .debug_aranges
                0x00000ff8       0x20 build/default/debug/_ext/1171490990/initialization.o
 .debug_aranges
                0x00001018       0x38 build/default/debug/_ext/1171490990/tasks.o
 .debug_aranges
                0x00001050       0x88 build/default/debug/_ext/1624415188/port.o
 .debug_aranges
                0x000010d8       0x50 build/default/debug/_ext/1665200909/heap_4.o
 .debug_aranges
                0x00001128      0x198 build/default/debug/_ext/404212886/FreeRTOS_tasks.o
 .debug_aranges
                0x000012c0       0x98 build/default/debug/_ext/404212886/timers.o
 .debug_aranges
                0x00001358      0x100 build/default/debug/_ext/404212886/queue.o
 .debug_aranges
                0x00001458       0x40 build/default/debug/_ext/404212886/list.o
 .debug_aranges
                0x00001498       0x28 build/default/debug/_ext/1360937237/app.o
 .debug_aranges
                0x000014c0       0x20 build/default/debug/_ext/1360937237/main.o
 .debug_aranges
                0x000014e0       0x98 build/default/debug/_ext/85617168/demo_app_rfd.o
 .debug_aranges
                0x00001578       0x78 build/default/debug/_ext/85617168/usr_mac_callbacks.o
 .debug_aranges
                0x000015f0       0x28 c:/program files/microchip/xc32/v4.35/bin/bin/../../lib/gcc/pic32c/8.3.1/../../../../pic32c/lib/thumb/v6-m/nofp\libpic32c.a(data_init.o)
 .debug_aranges
                0x00001618       0x28 c:/program files/microchip/xc32/v4.35/bin/bin/../../lib/gcc/pic32c/8.3.1/../../../../pic32c/lib/thumb/v6-m/nofp\libg-musl.a(__libc_start_main.o)
 .debug_aranges
                0x00001640       0x18 c:/program files/microchip/xc32/v4.35/bin/bin/../../lib/gcc/pic32c/8.3.1/../../../../pic32c/lib/thumb/v6-m/nofp\libg-musl.a(libc.o)
 .debug_aranges
                0x00001658       0x28 c:/program files/microchip/xc32/v4.35/bin/bin/../../lib/gcc/pic32c/8.3.1/../../../../pic32c/lib/thumb/v6-m/nofp\libg-musl.a(rand.o)
 .debug_aranges
                0x00001680       0x20 c:/program files/microchip/xc32/v4.35/bin/bin/../../lib/gcc/pic32c/8.3.1/../../../../pic32c/lib/thumb/v6-m/nofp\libg-musl.a(vsnprintf.o)
 .debug_aranges
                0x000016a0       0x20 c:/program files/microchip/xc32/v4.35/bin/bin/../../lib/gcc/pic32c/8.3.1/../../../../pic32c/lib/thumb/v6-m/nofp\libg-musl.a(memcpy.o)
 .debug_aranges
                0x000016c0       0x20 c:/program files/microchip/xc32/v4.35/bin/bin/../../lib/gcc/pic32c/8.3.1/../../../../pic32c/lib/thumb/v6-m/nofp\libg-musl.a(memset.o)
 .debug_aranges
                0x000016e0       0x20 c:/program files/microchip/xc32/v4.35/bin/bin/../../lib/gcc/pic32c/8.3.1/../../../../pic32c/lib/thumb/v6-m/nofp\libg-musl.a(strlen.o)
 .debug_aranges
                0x00001700       0x18 c:/program files/microchip/xc32/v4.35/bin/bin/../../lib/gcc/pic32c/8.3.1/../../../../pic32c/lib/thumb/v6-m/nofp\libg-musl.a(__environ.o)
 .debug_aranges
                0x00001718       0x18 c:/program files/microchip/xc32/v4.35/bin/bin/../../lib/gcc/pic32c/8.3.1/../../../../pic32c/lib/thumb/v6-m/nofp\libg-musl.a(__errno_location.o)
 .debug_aranges
                0x00001730       0x28 c:/program files/microchip/xc32/v4.35/bin/bin/../../lib/gcc/pic32c/8.3.1/../../../../pic32c/lib/thumb/v6-m/nofp\libg-musl.a(vfprintf.o)
 .debug_aranges
                0x00001758       0x20 c:/program files/microchip/xc32/v4.35/bin/bin/../../lib/gcc/pic32c/8.3.1/../../../../pic32c/lib/thumb/v6-m/nofp\libg-musl.a(__pop_float.o)
 .debug_aranges
                0x00001778       0x20 c:/program files/microchip/xc32/v4.35/bin/bin/../../lib/gcc/pic32c/8.3.1/../../../../pic32c/lib/thumb/v6-m/nofp\libg-musl.a(__pop_int.o)
 .debug_aranges
                0x00001798       0x20 c:/program files/microchip/xc32/v4.35/bin/bin/../../lib/gcc/pic32c/8.3.1/../../../../pic32c/lib/thumb/v6-m/nofp\libg-musl.a(__pop_ptr.o)
 .debug_aranges
                0x000017b8       0x50 c:/program files/microchip/xc32/v4.35/bin/bin/../../lib/gcc/pic32c/8.3.1/../../../../pic32c/lib/thumb/v6-m/nofp\libg-musl.a(__printf_core.o)
 .debug_aranges
                0x00001808       0x20 c:/program files/microchip/xc32/v4.35/bin/bin/../../lib/gcc/pic32c/8.3.1/../../../../pic32c/lib/thumb/v6-m/nofp\libg-musl.a(atoi.o)
 .debug_aranges
                0x00001828       0x28 c:/program files/microchip/xc32/v4.35/bin/bin/../../lib/gcc/pic32c/8.3.1/../../../../pic32c/lib/thumb/v6-m/nofp\libg-musl.a(tolower.o)
 .debug_aranges
                0x00001850       0x20 c:/program files/microchip/xc32/v4.35/bin/bin/../../lib/gcc/pic32c/8.3.1/../../../../pic32c/lib/thumb/v6-m/nofp\libg-musl.a(__fmt_a.o)
 .debug_aranges
                0x00001870       0x20 c:/program files/microchip/xc32/v4.35/bin/bin/../../lib/gcc/pic32c/8.3.1/../../../../pic32c/lib/thumb/v6-m/nofp\libg-musl.a(__fmt_d.o)
 .debug_aranges
                0x00001890       0x20 c:/program files/microchip/xc32/v4.35/bin/bin/../../lib/gcc/pic32c/8.3.1/../../../../pic32c/lib/thumb/v6-m/nofp\libg-musl.a(__fmt_fp.o)
 .debug_aranges
                0x000018b0       0x20 c:/program files/microchip/xc32/v4.35/bin/bin/../../lib/gcc/pic32c/8.3.1/../../../../pic32c/lib/thumb/v6-m/nofp\libg-musl.a(__fmt_o.o)
 .debug_aranges
                0x000018d0       0x20 c:/program files/microchip/xc32/v4.35/bin/bin/../../lib/gcc/pic32c/8.3.1/../../../../pic32c/lib/thumb/v6-m/nofp\libg-musl.a(__fmt_s.o)
 .debug_aranges
                0x000018f0       0x20 c:/program files/microchip/xc32/v4.35/bin/bin/../../lib/gcc/pic32c/8.3.1/../../../../pic32c/lib/thumb/v6-m/nofp\libg-musl.a(__fmt_u.o)
 .debug_aranges
                0x00001910       0x20 c:/program files/microchip/xc32/v4.35/bin/bin/../../lib/gcc/pic32c/8.3.1/../../../../pic32c/lib/thumb/v6-m/nofp\libg-musl.a(__fmt_x.o)
 .debug_aranges
                0x00001930       0x20 c:/program files/microchip/xc32/v4.35/bin/bin/../../lib/gcc/pic32c/8.3.1/../../../../pic32c/lib/thumb/v6-m/nofp\libg-musl.a(strcpy.o)
 .debug_aranges
                0x00001950       0x28 c:/program files/microchip/xc32/v4.35/bin/bin/../../lib/gcc/pic32c/8.3.1/../../../../pic32c/lib/thumb/v6-m/nofp\libg-musl.a(toupper.o)
 .debug_aranges
                0x00001978       0x20 c:/program files/microchip/xc32/v4.35/bin/bin/../../lib/gcc/pic32c/8.3.1/../../../../pic32c/lib/thumb/v6-m/nofp\libg-musl.a(__cvt_u.o)
 .debug_aranges
                0x00001998       0x20 c:/program files/microchip/xc32/v4.35/bin/bin/../../lib/gcc/pic32c/8.3.1/../../../../pic32c/lib/thumb/v6-m/nofp\libg-musl.a(stpcpy.o)
 .debug_aranges
                0x000019b8       0x20 c:/program files/microchip/xc32/v4.35/bin/bin/../../lib/gcc/pic32c/8.3.1/thumb/v6-m/nofp\libgcc.a(_udivsi3.o)
 .debug_aranges
                0x000019d8       0x20 c:/program files/microchip/xc32/v4.35/bin/bin/../../lib/gcc/pic32c/8.3.1/thumb/v6-m/nofp\libgcc.a(_divsi3.o)
 .debug_aranges
                0x000019f8       0x20 c:/program files/microchip/xc32/v4.35/bin/bin/../../lib/gcc/pic32c/8.3.1/thumb/v6-m/nofp\libgcc.a(_dvmd_tls.o)
 .debug_aranges
                0x00001a18       0x20 c:/program files/microchip/xc32/v4.35/bin/bin/../../lib/gcc/pic32c/8.3.1/thumb/v6-m/nofp\libgcc.a(_aeabi_uldivmod.o)
 .debug_aranges
                0x00001a38       0x20 c:/program files/microchip/xc32/v4.35/bin/bin/../../lib/gcc/pic32c/8.3.1/thumb/v6-m/nofp\libgcc.a(_muldi3.o)
 .debug_aranges
                0x00001a58       0x20 c:/program files/microchip/xc32/v4.35/bin/bin/../../lib/gcc/pic32c/8.3.1/thumb/v6-m/nofp\libgcc.a(_udivmoddi4.o)
 .debug_aranges
                0x00001a78       0x20 c:/program files/microchip/xc32/v4.35/bin/bin/../../lib/gcc/pic32c/8.3.1/thumb/v6-m/nofp\libgcc.a(_lshrdi3.o)
 .debug_aranges
                0x00001a98       0x20 c:/program files/microchip/xc32/v4.35/bin/bin/../../lib/gcc/pic32c/8.3.1/thumb/v6-m/nofp\libgcc.a(_ashldi3.o)
 .debug_aranges
                0x00001ab8       0x20 c:/program files/microchip/xc32/v4.35/bin/bin/../../lib/gcc/pic32c/8.3.1/thumb/v6-m/nofp\libgcc.a(_clzdi2.o)
 .debug_aranges
                0x00001ad8       0x20 c:/program files/microchip/xc32/v4.35/bin/bin/../../lib/gcc/pic32c/8.3.1/thumb/v6-m/nofp\libgcc.a(_clzsi2.o)
 .debug_aranges
                0x00001af8       0x20 c:/program files/microchip/xc32/v4.35/bin/bin/../../lib/gcc/pic32c/8.3.1/../../../../pic32c/lib/thumb/v6-m/nofp\libpic32c.a(pic32_data_init_clear.o)
 .debug_aranges
                0x00001b18       0x20 c:/program files/microchip/xc32/v4.35/bin/bin/../../lib/gcc/pic32c/8.3.1/../../../../pic32c/lib/thumb/v6-m/nofp\libpic32c.a(pic32_data_init_copy.o)

.debug_ranges   0x00000000     0x1b78
 .debug_ranges  0x00000000       0x18 build/default/debug/_ext/1655452824/mac_task.o
 .debug_ranges  0x00000018       0x40 build/default/debug/_ext/1655452824/mac_process_beacon_frame.o
 .debug_ranges  0x00000058       0x18 build/default/debug/_ext/1655452824/mac_sync.o
 .debug_ranges  0x00000070       0x10 build/default/debug/_ext/1655452824/mac_data_req.o
 .debug_ranges  0x00000080       0x28 build/default/debug/_ext/1655452824/mac_dispatcher.o
 .debug_ranges  0x000000a8       0x10 build/default/debug/_ext/1655452824/mac_data_extract_mhr.o
 .debug_ranges  0x000000b8       0x10 build/default/debug/_ext/1655452824/usr_mlme_sync_loss_ind.o
 .debug_ranges  0x000000c8       0x30 build/default/debug/_ext/1655452824/mac_associate.o
 .debug_ranges  0x000000f8       0x38 build/default/debug/_ext/1655452824/mac_pib.o
 .debug_ranges  0x00000130       0x20 build/default/debug/_ext/1655452824/mac_rx_enable.o
 .debug_ranges  0x00000150       0x20 build/default/debug/_ext/1655452824/mac.o
 .debug_ranges  0x00000170       0x58 build/default/debug/_ext/1655452824/mac_disassociate.o
 .debug_ranges  0x000001c8       0x28 build/default/debug/_ext/1655452824/mac_process_phy_tx_frame_status.o
 .debug_ranges  0x000001f0       0x70 build/default/debug/_ext/1655452824/mac_callback_wrapper.o
 .debug_ranges  0x00000260       0x60 build/default/debug/_ext/1655452824/mac_api.o
 .debug_ranges  0x000002c0       0x50 build/default/debug/_ext/1655452824/mac_misc.o
 .debug_ranges  0x00000310       0x58 build/default/debug/_ext/1655452824/mac_mcps_data.o
 .debug_ranges  0x00000368       0x40 build/default/debug/_ext/1655452824/mac_data_ind.o
 .debug_ranges  0x000003a8       0x78 build/default/debug/_ext/1655452824/mac_scan.o
 .debug_ranges  0x00000420       0x40 build/default/debug/_ext/1655452824/mac_poll.o
 .debug_ranges  0x00000460       0x60 build/default/debug/_ext/745501718/pal.o
 .debug_ranges  0x000004c0       0x98 build/default/debug/_ext/559172130/phy_init.o
 .debug_ranges  0x00000558       0x10 build/default/debug/_ext/559172130/phy_rx_enable.o
 .debug_ranges  0x00000568       0x20 build/default/debug/_ext/559172130/phy_pwr_mgmt.o
 .debug_ranges  0x00000588       0x38 build/default/debug/_ext/559172130/phy_tx.o
 .debug_ranges  0x000005c0       0xc0 build/default/debug/_ext/559172130/phy_pib.o
 .debug_ranges  0x00000680       0x78 build/default/debug/_ext/559172130/phy.o
 .debug_ranges  0x000006f8       0x80 build/default/debug/_ext/559172130/phy_helper.o
 .debug_ranges  0x00000778       0x20 build/default/debug/_ext/559172130/phy_irq_handler.o
 .debug_ranges  0x00000798       0x48 build/default/debug/_ext/559172130/phy_trx_reg_access.o
 .debug_ranges  0x000007e0       0x20 build/default/debug/_ext/559172130/phy_ed.o
 .debug_ranges  0x00000800       0x30 build/default/debug/_ext/559172130/phy_rx.o
 .debug_ranges  0x00000830       0x28 build/default/debug/_ext/957911548/phy_task.o
 .debug_ranges  0x00000858       0x10 build/default/debug/_ext/957911548/phy_ed_end_cb.o
 .debug_ranges  0x00000868       0x28 build/default/debug/_ext/1374435801/bmm.o
 .debug_ranges  0x00000890       0x68 build/default/debug/_ext/874725666/qmm.o
 .debug_ranges  0x000008f8       0x48 build/default/debug/_ext/1529399856/osal_freertos_extend.o
 .debug_ranges  0x00000940       0x80 build/default/debug/_ext/1529399856/osal_freertos.o
 .debug_ranges  0x000009c0       0x28 build/default/debug/_ext/1984496892/plib_clock.o
 .debug_ranges  0x000009e8       0x30 build/default/debug/_ext/60167341/plib_eic.o
 .debug_ranges  0x00000a18       0x28 build/default/debug/_ext/1865468468/plib_nvic.o
 .debug_ranges  0x00000a40       0x78 build/default/debug/_ext/1593096446/plib_nvmctrl.o
 .debug_ranges  0x00000ab8       0x60 build/default/debug/_ext/1865521619/plib_port.o
 .debug_ranges  0x00000b18       0x68 build/default/debug/_ext/17022449/plib_sercom4_spi_master.o
 .debug_ranges  0x00000b80      0x1e8 build/default/debug/_ext/504274921/plib_sercom0_usart.o
 .debug_ranges  0x00000d68       0x68 build/default/debug/_ext/829342655/plib_tc3.o
 .debug_ranges  0x00000dd0       0x78 build/default/debug/_ext/1832805299/sys_console.o
 .debug_ranges  0x00000e48       0x60 build/default/debug/_ext/1832805299/sys_console_uart.o
 .debug_ranges  0x00000ea8       0x48 build/default/debug/_ext/1881668453/sys_int.o
 .debug_ranges  0x00000ef0      0x180 build/default/debug/_ext/101884895/sys_time.o
 .debug_ranges  0x00001070       0x18 build/default/debug/_ext/1171490990/exceptions.o
 .debug_ranges  0x00001088       0x30 build/default/debug/_ext/1171490990/freertos_hooks.o
 .debug_ranges  0x000010b8       0x10 build/default/debug/_ext/1171490990/interrupts.o
 .debug_ranges  0x000010c8       0x18 build/default/debug/_ext/1171490990/startup_xc32.o
 .debug_ranges  0x000010e0       0x10 build/default/debug/_ext/1171490990/initialization.o
 .debug_ranges  0x000010f0       0x28 build/default/debug/_ext/1171490990/tasks.o
 .debug_ranges  0x00001118       0x78 build/default/debug/_ext/1624415188/port.o
 .debug_ranges  0x00001190       0x40 build/default/debug/_ext/1665200909/heap_4.o
 .debug_ranges  0x000011d0      0x2b0 build/default/debug/_ext/404212886/FreeRTOS_tasks.o
 .debug_ranges  0x00001480      0x108 build/default/debug/_ext/404212886/timers.o
 .debug_ranges  0x00001588      0x1e8 build/default/debug/_ext/404212886/queue.o
 .debug_ranges  0x00001770       0x30 build/default/debug/_ext/404212886/list.o
 .debug_ranges  0x000017a0       0x18 build/default/debug/_ext/1360937237/app.o
 .debug_ranges  0x000017b8       0x10 build/default/debug/_ext/1360937237/main.o
 .debug_ranges  0x000017c8       0xe0 build/default/debug/_ext/85617168/demo_app_rfd.o
 .debug_ranges  0x000018a8       0x68 build/default/debug/_ext/85617168/usr_mac_callbacks.o
 .debug_ranges  0x00001910       0x18 c:/program files/microchip/xc32/v4.35/bin/bin/../../lib/gcc/pic32c/8.3.1/../../../../pic32c/lib/thumb/v6-m/nofp\libpic32c.a(data_init.o)
 .debug_ranges  0x00001928       0x30 c:/program files/microchip/xc32/v4.35/bin/bin/../../lib/gcc/pic32c/8.3.1/../../../../pic32c/lib/thumb/v6-m/nofp\libg-musl.a(__libc_start_main.o)
 .debug_ranges  0x00001958       0x18 c:/program files/microchip/xc32/v4.35/bin/bin/../../lib/gcc/pic32c/8.3.1/../../../../pic32c/lib/thumb/v6-m/nofp\libg-musl.a(rand.o)
 .debug_ranges  0x00001970       0x10 c:/program files/microchip/xc32/v4.35/bin/bin/../../lib/gcc/pic32c/8.3.1/../../../../pic32c/lib/thumb/v6-m/nofp\libg-musl.a(vsnprintf.o)
 .debug_ranges  0x00001980       0x10 c:/program files/microchip/xc32/v4.35/bin/bin/../../lib/gcc/pic32c/8.3.1/../../../../pic32c/lib/thumb/v6-m/nofp\libg-musl.a(memcpy.o)
 .debug_ranges  0x00001990       0x10 c:/program files/microchip/xc32/v4.35/bin/bin/../../lib/gcc/pic32c/8.3.1/../../../../pic32c/lib/thumb/v6-m/nofp\libg-musl.a(memset.o)
 .debug_ranges  0x000019a0       0x10 c:/program files/microchip/xc32/v4.35/bin/bin/../../lib/gcc/pic32c/8.3.1/../../../../pic32c/lib/thumb/v6-m/nofp\libg-musl.a(strlen.o)
 .debug_ranges  0x000019b0       0x18 c:/program files/microchip/xc32/v4.35/bin/bin/../../lib/gcc/pic32c/8.3.1/../../../../pic32c/lib/thumb/v6-m/nofp\libg-musl.a(vfprintf.o)
 .debug_ranges  0x000019c8       0x10 c:/program files/microchip/xc32/v4.35/bin/bin/../../lib/gcc/pic32c/8.3.1/../../../../pic32c/lib/thumb/v6-m/nofp\libg-musl.a(__pop_float.o)
 .debug_ranges  0x000019d8       0x10 c:/program files/microchip/xc32/v4.35/bin/bin/../../lib/gcc/pic32c/8.3.1/../../../../pic32c/lib/thumb/v6-m/nofp\libg-musl.a(__pop_int.o)
 .debug_ranges  0x000019e8       0x10 c:/program files/microchip/xc32/v4.35/bin/bin/../../lib/gcc/pic32c/8.3.1/../../../../pic32c/lib/thumb/v6-m/nofp\libg-musl.a(__pop_ptr.o)
 .debug_ranges  0x000019f8       0x58 c:/program files/microchip/xc32/v4.35/bin/bin/../../lib/gcc/pic32c/8.3.1/../../../../pic32c/lib/thumb/v6-m/nofp\libg-musl.a(__printf_core.o)
 .debug_ranges  0x00001a50       0x10 c:/program files/microchip/xc32/v4.35/bin/bin/../../lib/gcc/pic32c/8.3.1/../../../../pic32c/lib/thumb/v6-m/nofp\libg-musl.a(atoi.o)
 .debug_ranges  0x00001a60       0x18 c:/program files/microchip/xc32/v4.35/bin/bin/../../lib/gcc/pic32c/8.3.1/../../../../pic32c/lib/thumb/v6-m/nofp\libg-musl.a(tolower.o)
 .debug_ranges  0x00001a78       0x10 c:/program files/microchip/xc32/v4.35/bin/bin/../../lib/gcc/pic32c/8.3.1/../../../../pic32c/lib/thumb/v6-m/nofp\libg-musl.a(__fmt_a.o)
 .debug_ranges  0x00001a88       0x10 c:/program files/microchip/xc32/v4.35/bin/bin/../../lib/gcc/pic32c/8.3.1/../../../../pic32c/lib/thumb/v6-m/nofp\libg-musl.a(__fmt_d.o)
 .debug_ranges  0x00001a98       0x10 c:/program files/microchip/xc32/v4.35/bin/bin/../../lib/gcc/pic32c/8.3.1/../../../../pic32c/lib/thumb/v6-m/nofp\libg-musl.a(__fmt_fp.o)
 .debug_ranges  0x00001aa8       0x10 c:/program files/microchip/xc32/v4.35/bin/bin/../../lib/gcc/pic32c/8.3.1/../../../../pic32c/lib/thumb/v6-m/nofp\libg-musl.a(__fmt_o.o)
 .debug_ranges  0x00001ab8       0x10 c:/program files/microchip/xc32/v4.35/bin/bin/../../lib/gcc/pic32c/8.3.1/../../../../pic32c/lib/thumb/v6-m/nofp\libg-musl.a(__fmt_s.o)
 .debug_ranges  0x00001ac8       0x10 c:/program files/microchip/xc32/v4.35/bin/bin/../../lib/gcc/pic32c/8.3.1/../../../../pic32c/lib/thumb/v6-m/nofp\libg-musl.a(__fmt_u.o)
 .debug_ranges  0x00001ad8       0x10 c:/program files/microchip/xc32/v4.35/bin/bin/../../lib/gcc/pic32c/8.3.1/../../../../pic32c/lib/thumb/v6-m/nofp\libg-musl.a(__fmt_x.o)
 .debug_ranges  0x00001ae8       0x10 c:/program files/microchip/xc32/v4.35/bin/bin/../../lib/gcc/pic32c/8.3.1/../../../../pic32c/lib/thumb/v6-m/nofp\libg-musl.a(strcpy.o)
 .debug_ranges  0x00001af8       0x18 c:/program files/microchip/xc32/v4.35/bin/bin/../../lib/gcc/pic32c/8.3.1/../../../../pic32c/lib/thumb/v6-m/nofp\libg-musl.a(toupper.o)
 .debug_ranges  0x00001b10       0x10 c:/program files/microchip/xc32/v4.35/bin/bin/../../lib/gcc/pic32c/8.3.1/../../../../pic32c/lib/thumb/v6-m/nofp\libg-musl.a(__cvt_u.o)
 .debug_ranges  0x00001b20       0x10 c:/program files/microchip/xc32/v4.35/bin/bin/../../lib/gcc/pic32c/8.3.1/../../../../pic32c/lib/thumb/v6-m/nofp\libg-musl.a(stpcpy.o)
 .debug_ranges  0x00001b30       0x28 c:/program files/microchip/xc32/v4.35/bin/bin/../../lib/gcc/pic32c/8.3.1/thumb/v6-m/nofp\libgcc.a(_muldi3.o)
 .debug_ranges  0x00001b58       0x10 c:/program files/microchip/xc32/v4.35/bin/bin/../../lib/gcc/pic32c/8.3.1/../../../../pic32c/lib/thumb/v6-m/nofp\libpic32c.a(pic32_data_init_clear.o)
 .debug_ranges  0x00001b68       0x10 c:/program files/microchip/xc32/v4.35/bin/bin/../../lib/gcc/pic32c/8.3.1/../../../../pic32c/lib/thumb/v6-m/nofp\libpic32c.a(pic32_data_init_copy.o)

.debug_line     0x00000000    0x18ee8
 .debug_line    0x00000000      0x261 build/default/debug/_ext/1655452824/mac_task.o
 .debug_line    0x00000261      0x467 build/default/debug/_ext/1655452824/mac_process_beacon_frame.o
 .debug_line    0x000006c8      0x372 build/default/debug/_ext/1655452824/mac_sync.o
 .debug_line    0x00000a3a      0x4fb build/default/debug/_ext/1655452824/mac_data_req.o
 .debug_line    0x00000f35      0x1aa build/default/debug/_ext/1655452824/mac_dispatcher.o
 .debug_line    0x000010df      0x303 build/default/debug/_ext/1655452824/mac_data_extract_mhr.o
 .debug_line    0x000013e2       0xd6 build/default/debug/_ext/1655452824/usr_mlme_sync_loss_ind.o
 .debug_line    0x000014b8      0x66c build/default/debug/_ext/1655452824/mac_associate.o
 .debug_line    0x00001b24      0x956 build/default/debug/_ext/1655452824/mac_pib.o
 .debug_line    0x0000247a      0x3cc build/default/debug/_ext/1655452824/mac_rx_enable.o
 .debug_line    0x00002846      0x315 build/default/debug/_ext/1655452824/mac.o
 .debug_line    0x00002b5b      0x56f build/default/debug/_ext/1655452824/mac_disassociate.o
 .debug_line    0x000030ca      0x41f build/default/debug/_ext/1655452824/mac_process_phy_tx_frame_status.o
 .debug_line    0x000034e9      0x42f build/default/debug/_ext/1655452824/mac_callback_wrapper.o
 .debug_line    0x00003918      0x766 build/default/debug/_ext/1655452824/mac_api.o
 .debug_line    0x0000407e      0x620 build/default/debug/_ext/1655452824/mac_misc.o
 .debug_line    0x0000469e      0x7e3 build/default/debug/_ext/1655452824/mac_mcps_data.o
 .debug_line    0x00004e81      0x895 build/default/debug/_ext/1655452824/mac_data_ind.o
 .debug_line    0x00005716      0xb31 build/default/debug/_ext/1655452824/mac_scan.o
 .debug_line    0x00006247      0x3d2 build/default/debug/_ext/1655452824/mac_poll.o
 .debug_line    0x00006619      0x516 build/default/debug/_ext/745501718/pal.o
 .debug_line    0x00006b2f      0x73e build/default/debug/_ext/559172130/phy_init.o
 .debug_line    0x0000726d      0x23c build/default/debug/_ext/559172130/phy_rx_enable.o
 .debug_line    0x000074a9      0x26f build/default/debug/_ext/559172130/phy_pwr_mgmt.o
 .debug_line    0x00007718      0x4c3 build/default/debug/_ext/559172130/phy_tx.o
 .debug_line    0x00007bdb      0x7e1 build/default/debug/_ext/559172130/phy_pib.o
 .debug_line    0x000083bc      0x772 build/default/debug/_ext/559172130/phy.o
 .debug_line    0x00008b2e      0x87a build/default/debug/_ext/559172130/phy_helper.o
 .debug_line    0x000093a8      0x28c build/default/debug/_ext/559172130/phy_irq_handler.o
 .debug_line    0x00009634      0x433 build/default/debug/_ext/559172130/phy_trx_reg_access.o
 .debug_line    0x00009a67      0x2d2 build/default/debug/_ext/559172130/phy_ed.o
 .debug_line    0x00009d39      0x364 build/default/debug/_ext/559172130/phy_rx.o
 .debug_line    0x0000a09d      0x266 build/default/debug/_ext/957911548/phy_task.o
 .debug_line    0x0000a303       0xca build/default/debug/_ext/957911548/phy_ed_end_cb.o
 .debug_line    0x0000a3cd      0x295 build/default/debug/_ext/1374435801/bmm.o
 .debug_line    0x0000a662      0x3a1 build/default/debug/_ext/874725666/qmm.o
 .debug_line    0x0000aa03      0x2c9 build/default/debug/_ext/1529399856/osal_freertos_extend.o
 .debug_line    0x0000accc      0x43c build/default/debug/_ext/1529399856/osal_freertos.o
 .debug_line    0x0000b108      0x1e4 build/default/debug/_ext/1984496892/plib_clock.o
 .debug_line    0x0000b2ec      0x2a2 build/default/debug/_ext/60167341/plib_eic.o
 .debug_line    0x0000b58e      0x36b build/default/debug/_ext/1865468468/plib_nvic.o
 .debug_line    0x0000b8f9      0x39d build/default/debug/_ext/1593096446/plib_nvmctrl.o
 .debug_line    0x0000bc96      0x30a build/default/debug/_ext/1865521619/plib_port.o
 .debug_line    0x0000bfa0      0x77a build/default/debug/_ext/17022449/plib_sercom4_spi_master.o
 .debug_line    0x0000c71a      0xd34 build/default/debug/_ext/504274921/plib_sercom0_usart.o
 .debug_line    0x0000d44e      0x34f build/default/debug/_ext/829342655/plib_tc3.o
 .debug_line    0x0000d79d      0x65c build/default/debug/_ext/1832805299/sys_console.o
 .debug_line    0x0000ddf9      0x4b6 build/default/debug/_ext/1832805299/sys_console_uart.o
 .debug_line    0x0000e2af      0x2c5 build/default/debug/_ext/1881668453/sys_int.o
 .debug_line    0x0000e574     0x1200 build/default/debug/_ext/101884895/sys_time.o
 .debug_line    0x0000f774       0x70 build/default/debug/_ext/1171490990/exceptions.o
 .debug_line    0x0000f7e4      0x15d build/default/debug/_ext/1171490990/freertos_hooks.o
 .debug_line    0x0000f941       0xba build/default/debug/_ext/1171490990/interrupts.o
 .debug_line    0x0000f9fb      0x158 build/default/debug/_ext/1171490990/startup_xc32.o
 .debug_line    0x0000fb53      0x68e build/default/debug/_ext/1171490990/initialization.o
 .debug_line    0x000101e1      0x204 build/default/debug/_ext/1171490990/tasks.o
 .debug_line    0x000103e5      0x328 build/default/debug/_ext/1624415188/port.o
 .debug_line    0x0001070d      0x594 build/default/debug/_ext/1665200909/heap_4.o
 .debug_line    0x00010ca1     0x1892 build/default/debug/_ext/404212886/FreeRTOS_tasks.o
 .debug_line    0x00012533      0x77c build/default/debug/_ext/404212886/timers.o
 .debug_line    0x00012caf     0x10b4 build/default/debug/_ext/404212886/queue.o
 .debug_line    0x00013d63      0x2c5 build/default/debug/_ext/404212886/list.o
 .debug_line    0x00014028      0x187 build/default/debug/_ext/1360937237/app.o
 .debug_line    0x000141af       0x6d build/default/debug/_ext/1360937237/main.o
 .debug_line    0x0001421c      0x773 build/default/debug/_ext/85617168/demo_app_rfd.o
 .debug_line    0x0001498f      0x463 build/default/debug/_ext/85617168/usr_mac_callbacks.o
 .debug_line    0x00014df2       0xe8 c:/program files/microchip/xc32/v4.35/bin/bin/../../lib/gcc/pic32c/8.3.1/../../../../pic32c/lib/thumb/v6-m/nofp\libpic32c.a(data_init.o)
 .debug_line    0x00014eda      0x1c2 c:/program files/microchip/xc32/v4.35/bin/bin/../../lib/gcc/pic32c/8.3.1/../../../../pic32c/lib/thumb/v6-m/nofp\libg-musl.a(__libc_start_main.o)
 .debug_line    0x0001509c       0xb8 c:/program files/microchip/xc32/v4.35/bin/bin/../../lib/gcc/pic32c/8.3.1/../../../../pic32c/lib/thumb/v6-m/nofp\libg-musl.a(libc.o)
 .debug_line    0x00015154       0xfd c:/program files/microchip/xc32/v4.35/bin/bin/../../lib/gcc/pic32c/8.3.1/../../../../pic32c/lib/thumb/v6-m/nofp\libg-musl.a(rand.o)
 .debug_line    0x00015251      0x239 c:/program files/microchip/xc32/v4.35/bin/bin/../../lib/gcc/pic32c/8.3.1/../../../../pic32c/lib/thumb/v6-m/nofp\libg-musl.a(vsnprintf.o)
 .debug_line    0x0001548a       0xf1 c:/program files/microchip/xc32/v4.35/bin/bin/../../lib/gcc/pic32c/8.3.1/../../../../pic32c/lib/thumb/v6-m/nofp\libg-musl.a(memcpy.o)
 .debug_line    0x0001557b       0xe6 c:/program files/microchip/xc32/v4.35/bin/bin/../../lib/gcc/pic32c/8.3.1/../../../../pic32c/lib/thumb/v6-m/nofp\libg-musl.a(memset.o)
 .debug_line    0x00015661       0xf1 c:/program files/microchip/xc32/v4.35/bin/bin/../../lib/gcc/pic32c/8.3.1/../../../../pic32c/lib/thumb/v6-m/nofp\libg-musl.a(strlen.o)
 .debug_line    0x00015752      0x101 c:/program files/microchip/xc32/v4.35/bin/bin/../../lib/gcc/pic32c/8.3.1/../../../../pic32c/lib/thumb/v6-m/nofp\libg-musl.a(__environ.o)
 .debug_line    0x00015853       0x9d c:/program files/microchip/xc32/v4.35/bin/bin/../../lib/gcc/pic32c/8.3.1/../../../../pic32c/lib/thumb/v6-m/nofp\libg-musl.a(__errno_location.o)
 .debug_line    0x000158f0      0x203 c:/program files/microchip/xc32/v4.35/bin/bin/../../lib/gcc/pic32c/8.3.1/../../../../pic32c/lib/thumb/v6-m/nofp\libg-musl.a(vfprintf.o)
 .debug_line    0x00015af3      0x16c c:/program files/microchip/xc32/v4.35/bin/bin/../../lib/gcc/pic32c/8.3.1/../../../../pic32c/lib/thumb/v6-m/nofp\libg-musl.a(__pop_float.o)
 .debug_line    0x00015c5f      0x217 c:/program files/microchip/xc32/v4.35/bin/bin/../../lib/gcc/pic32c/8.3.1/../../../../pic32c/lib/thumb/v6-m/nofp\libg-musl.a(__pop_int.o)
 .debug_line    0x00015e76      0x1ce c:/program files/microchip/xc32/v4.35/bin/bin/../../lib/gcc/pic32c/8.3.1/../../../../pic32c/lib/thumb/v6-m/nofp\libg-musl.a(__pop_ptr.o)
 .debug_line    0x00016044      0x6d4 c:/program files/microchip/xc32/v4.35/bin/bin/../../lib/gcc/pic32c/8.3.1/../../../../pic32c/lib/thumb/v6-m/nofp\libg-musl.a(__printf_core.o)
 .debug_line    0x00016718      0x179 c:/program files/microchip/xc32/v4.35/bin/bin/../../lib/gcc/pic32c/8.3.1/../../../../pic32c/lib/thumb/v6-m/nofp\libg-musl.a(atoi.o)
 .debug_line    0x00016891      0x162 c:/program files/microchip/xc32/v4.35/bin/bin/../../lib/gcc/pic32c/8.3.1/../../../../pic32c/lib/thumb/v6-m/nofp\libg-musl.a(tolower.o)
 .debug_line    0x000169f3      0x656 c:/program files/microchip/xc32/v4.35/bin/bin/../../lib/gcc/pic32c/8.3.1/../../../../pic32c/lib/thumb/v6-m/nofp\libg-musl.a(__fmt_a.o)
 .debug_line    0x00017049      0x211 c:/program files/microchip/xc32/v4.35/bin/bin/../../lib/gcc/pic32c/8.3.1/../../../../pic32c/lib/thumb/v6-m/nofp\libg-musl.a(__fmt_d.o)
 .debug_line    0x0001725a      0x676 c:/program files/microchip/xc32/v4.35/bin/bin/../../lib/gcc/pic32c/8.3.1/../../../../pic32c/lib/thumb/v6-m/nofp\libg-musl.a(__fmt_fp.o)
 .debug_line    0x000178d0      0x1bc c:/program files/microchip/xc32/v4.35/bin/bin/../../lib/gcc/pic32c/8.3.1/../../../../pic32c/lib/thumb/v6-m/nofp\libg-musl.a(__fmt_o.o)
 .debug_line    0x00017a8c      0x20d c:/program files/microchip/xc32/v4.35/bin/bin/../../lib/gcc/pic32c/8.3.1/../../../../pic32c/lib/thumb/v6-m/nofp\libg-musl.a(__fmt_s.o)
 .debug_line    0x00017c99      0x18d c:/program files/microchip/xc32/v4.35/bin/bin/../../lib/gcc/pic32c/8.3.1/../../../../pic32c/lib/thumb/v6-m/nofp\libg-musl.a(__fmt_u.o)
 .debug_line    0x00017e26      0x2f5 c:/program files/microchip/xc32/v4.35/bin/bin/../../lib/gcc/pic32c/8.3.1/../../../../pic32c/lib/thumb/v6-m/nofp\libg-musl.a(__fmt_x.o)
 .debug_line    0x0001811b       0xb5 c:/program files/microchip/xc32/v4.35/bin/bin/../../lib/gcc/pic32c/8.3.1/../../../../pic32c/lib/thumb/v6-m/nofp\libg-musl.a(strcpy.o)
 .debug_line    0x000181d0      0x162 c:/program files/microchip/xc32/v4.35/bin/bin/../../lib/gcc/pic32c/8.3.1/../../../../pic32c/lib/thumb/v6-m/nofp\libg-musl.a(toupper.o)
 .debug_line    0x00018332      0x1dd c:/program files/microchip/xc32/v4.35/bin/bin/../../lib/gcc/pic32c/8.3.1/../../../../pic32c/lib/thumb/v6-m/nofp\libg-musl.a(__cvt_u.o)
 .debug_line    0x0001850f       0xc4 c:/program files/microchip/xc32/v4.35/bin/bin/../../lib/gcc/pic32c/8.3.1/../../../../pic32c/lib/thumb/v6-m/nofp\libg-musl.a(stpcpy.o)
 .debug_line    0x000185d3       0xab c:/program files/microchip/xc32/v4.35/bin/bin/../../lib/gcc/pic32c/8.3.1/thumb/v6-m/nofp\libgcc.a(_udivsi3.o)
 .debug_line    0x0001867e       0xb9 c:/program files/microchip/xc32/v4.35/bin/bin/../../lib/gcc/pic32c/8.3.1/thumb/v6-m/nofp\libgcc.a(_divsi3.o)
 .debug_line    0x00018737       0x94 c:/program files/microchip/xc32/v4.35/bin/bin/../../lib/gcc/pic32c/8.3.1/thumb/v6-m/nofp\libgcc.a(_dvmd_tls.o)
 .debug_line    0x000187cb       0x9f c:/program files/microchip/xc32/v4.35/bin/bin/../../lib/gcc/pic32c/8.3.1/thumb/v6-m/nofp\libgcc.a(_aeabi_uldivmod.o)
 .debug_line    0x0001886a       0xea c:/program files/microchip/xc32/v4.35/bin/bin/../../lib/gcc/pic32c/8.3.1/thumb/v6-m/nofp\libgcc.a(_muldi3.o)
 .debug_line    0x00018954      0x18b c:/program files/microchip/xc32/v4.35/bin/bin/../../lib/gcc/pic32c/8.3.1/thumb/v6-m/nofp\libgcc.a(_udivmoddi4.o)
 .debug_line    0x00018adf       0x9f c:/program files/microchip/xc32/v4.35/bin/bin/../../lib/gcc/pic32c/8.3.1/thumb/v6-m/nofp\libgcc.a(_lshrdi3.o)
 .debug_line    0x00018b7e       0x9f c:/program files/microchip/xc32/v4.35/bin/bin/../../lib/gcc/pic32c/8.3.1/thumb/v6-m/nofp\libgcc.a(_ashldi3.o)
 .debug_line    0x00018c1d       0x9e c:/program files/microchip/xc32/v4.35/bin/bin/../../lib/gcc/pic32c/8.3.1/thumb/v6-m/nofp\libgcc.a(_clzdi2.o)
 .debug_line    0x00018cbb       0xa8 c:/program files/microchip/xc32/v4.35/bin/bin/../../lib/gcc/pic32c/8.3.1/thumb/v6-m/nofp\libgcc.a(_clzsi2.o)
 .debug_line    0x00018d63       0xb6 c:/program files/microchip/xc32/v4.35/bin/bin/../../lib/gcc/pic32c/8.3.1/../../../../pic32c/lib/thumb/v6-m/nofp\libpic32c.a(pic32_data_init_clear.o)
 .debug_line    0x00018e19       0xcf c:/program files/microchip/xc32/v4.35/bin/bin/../../lib/gcc/pic32c/8.3.1/../../../../pic32c/lib/thumb/v6-m/nofp\libpic32c.a(pic32_data_init_copy.o)

.debug_str      0x00000000     0x346c
 .debug_str     0x00000000       0x94 build/default/debug/_ext/1655452824/mac_task.o
 .debug_str     0x00000094       0x50 build/default/debug/_ext/1655452824/mac_process_beacon_frame.o
 .debug_str     0x000000e4       0x65 build/default/debug/_ext/1655452824/mac_sync.o
 .debug_str     0x00000149       0x36 build/default/debug/_ext/1655452824/mac_data_req.o
 .debug_str     0x0000017f       0x10 build/default/debug/_ext/1655452824/mac_dispatcher.o
 .debug_str     0x0000018f       0x16 build/default/debug/_ext/1655452824/mac_data_extract_mhr.o
 .debug_str     0x000001a5        0x0 build/default/debug/_ext/1655452824/usr_mlme_sync_loss_ind.o
 .debug_str     0x000001a5       0xd2 build/default/debug/_ext/1655452824/mac_associate.o
 .debug_str     0x00000277       0xd5 build/default/debug/_ext/1655452824/mac_pib.o
 .debug_str     0x0000034c       0x8c build/default/debug/_ext/1655452824/mac_rx_enable.o
 .debug_str     0x000003d8       0x5e build/default/debug/_ext/1655452824/mac.o
 .debug_str     0x00000436       0xe1 build/default/debug/_ext/1655452824/mac_disassociate.o
 .debug_str     0x00000517      0x114 build/default/debug/_ext/1655452824/mac_process_phy_tx_frame_status.o
 .debug_str     0x0000062b      0x16e build/default/debug/_ext/1655452824/mac_callback_wrapper.o
 .debug_str     0x00000799      0x1c8 build/default/debug/_ext/1655452824/mac_api.o
 .debug_str     0x00000961       0xf4 build/default/debug/_ext/1655452824/mac_misc.o
 .debug_str     0x00000a55       0xeb build/default/debug/_ext/1655452824/mac_mcps_data.o
 .debug_str     0x00000b40      0x190 build/default/debug/_ext/1655452824/mac_data_ind.o
 .debug_str     0x00000cd0      0x11a build/default/debug/_ext/1655452824/mac_scan.o
 .debug_str     0x00000dea       0x71 build/default/debug/_ext/1655452824/mac_poll.o
 .debug_str     0x00000e5b       0xf6 build/default/debug/_ext/745501718/pal.o
 .debug_str     0x00000f51      0x182 build/default/debug/_ext/559172130/phy_init.o
 .debug_str     0x000010d3       0x2e build/default/debug/_ext/559172130/phy_rx_enable.o
 .debug_str     0x00001101       0x26 build/default/debug/_ext/559172130/phy_pwr_mgmt.o
 .debug_str     0x00001127       0xa4 build/default/debug/_ext/559172130/phy_tx.o
 .debug_str     0x000011cb       0x4c build/default/debug/_ext/559172130/phy_pib.o
 .debug_str     0x00001217      0x106 build/default/debug/_ext/559172130/phy.o
 .debug_str     0x0000131d       0xa3 build/default/debug/_ext/559172130/phy_helper.o
 .debug_str     0x000013c0       0x6a build/default/debug/_ext/559172130/phy_irq_handler.o
 .debug_str     0x0000142a       0x6b build/default/debug/_ext/559172130/phy_trx_reg_access.o
 .debug_str     0x00001495       0x83 build/default/debug/_ext/559172130/phy_ed.o
 .debug_str     0x00001518       0x78 build/default/debug/_ext/559172130/phy_rx.o
 .debug_str     0x00001590       0x6d build/default/debug/_ext/957911548/phy_task.o
 .debug_str     0x000015fd        0x0 build/default/debug/_ext/957911548/phy_ed_end_cb.o
 .debug_str     0x000015fd       0x31 build/default/debug/_ext/1374435801/bmm.o
 .debug_str     0x0000162e       0x20 build/default/debug/_ext/874725666/qmm.o
 .debug_str     0x0000164e       0xe0 build/default/debug/_ext/1529399856/osal_freertos_extend.o
 .debug_str     0x0000172e      0x13b build/default/debug/_ext/1529399856/osal_freertos.o
 .debug_str     0x00001869       0x28 build/default/debug/_ext/1984496892/plib_clock.o
 .debug_str     0x00001891       0x11 build/default/debug/_ext/60167341/plib_eic.o
 .debug_str     0x000018a2        0xa build/default/debug/_ext/1865468468/plib_nvic.o
 .debug_str     0x000018ac       0x11 build/default/debug/_ext/1593096446/plib_nvmctrl.o
 .debug_str     0x000018bd        0xb build/default/debug/_ext/1865521619/plib_port.o
 .debug_str     0x000018c8      0x135 build/default/debug/_ext/17022449/plib_sercom4_spi_master.o
 .debug_str     0x000019fd      0x1b1 build/default/debug/_ext/504274921/plib_sercom0_usart.o
 .debug_str     0x00001bae       0xaf build/default/debug/_ext/829342655/plib_tc3.o
 .debug_str     0x00001c5d       0x58 build/default/debug/_ext/1832805299/sys_console.o
 .debug_str     0x00001cb5       0xb3 build/default/debug/_ext/1832805299/sys_console_uart.o
 .debug_str     0x00001d68       0x32 build/default/debug/_ext/1881668453/sys_int.o
 .debug_str     0x00001d9a      0x16c build/default/debug/_ext/101884895/sys_time.o
 .debug_str     0x00001f06        0x0 build/default/debug/_ext/1171490990/exceptions.o
 .debug_str     0x00001f06       0x25 build/default/debug/_ext/1171490990/freertos_hooks.o
 .debug_str     0x00001f2b        0x0 build/default/debug/_ext/1171490990/interrupts.o
 .debug_str     0x00001f2b       0x2f build/default/debug/_ext/1171490990/startup_xc32.o
 .debug_str     0x00001f5a      0x167 build/default/debug/_ext/1171490990/initialization.o
 .debug_str     0x000020c1       0x4c build/default/debug/_ext/1171490990/tasks.o
 .debug_str     0x0000210d       0x26 build/default/debug/_ext/1624415188/port.o
 .debug_str     0x00002133       0xb8 build/default/debug/_ext/1665200909/heap_4.o
 .debug_str     0x000021eb      0x2e8 build/default/debug/_ext/404212886/FreeRTOS_tasks.o
 .debug_str     0x000024d3      0x216 build/default/debug/_ext/404212886/timers.o
 .debug_str     0x000026e9      0x329 build/default/debug/_ext/404212886/queue.o
 .debug_str     0x00002a12       0x2b build/default/debug/_ext/404212886/list.o
 .debug_str     0x00002a3d       0x54 build/default/debug/_ext/1360937237/app.o
 .debug_str     0x00002a91       0x19 build/default/debug/_ext/1360937237/main.o
 .debug_str     0x00002aaa      0x122 build/default/debug/_ext/85617168/demo_app_rfd.o
 .debug_str     0x00002bcc      0x110 build/default/debug/_ext/85617168/usr_mac_callbacks.o
 .debug_str     0x00002cdc        0x0 c:/program files/microchip/xc32/v4.35/bin/bin/../../lib/gcc/pic32c/8.3.1/../../../../pic32c/lib/thumb/v6-m/nofp\libpic32c.a(data_init.o)
 .debug_str     0x00002cdc        0x0 c:/program files/microchip/xc32/v4.35/bin/bin/../../lib/gcc/pic32c/8.3.1/../../../../pic32c/lib/thumb/v6-m/nofp\libg-musl.a(__libc_start_main.o)
 .debug_str     0x00002cdc        0x0 c:/program files/microchip/xc32/v4.35/bin/bin/../../lib/gcc/pic32c/8.3.1/../../../../pic32c/lib/thumb/v6-m/nofp\libg-musl.a(libc.o)
 .debug_str     0x00002cdc        0x0 c:/program files/microchip/xc32/v4.35/bin/bin/../../lib/gcc/pic32c/8.3.1/../../../../pic32c/lib/thumb/v6-m/nofp\libg-musl.a(rand.o)
 .debug_str     0x00002cdc        0x9 c:/program files/microchip/xc32/v4.35/bin/bin/../../lib/gcc/pic32c/8.3.1/../../../../pic32c/lib/thumb/v6-m/nofp\libg-musl.a(vsnprintf.o)
 .debug_str     0x00002ce5        0x0 c:/program files/microchip/xc32/v4.35/bin/bin/../../lib/gcc/pic32c/8.3.1/../../../../pic32c/lib/thumb/v6-m/nofp\libg-musl.a(memcpy.o)
 .debug_str     0x00002ce5        0x0 c:/program files/microchip/xc32/v4.35/bin/bin/../../lib/gcc/pic32c/8.3.1/../../../../pic32c/lib/thumb/v6-m/nofp\libg-musl.a(memset.o)
 .debug_str     0x00002ce5        0x0 c:/program files/microchip/xc32/v4.35/bin/bin/../../lib/gcc/pic32c/8.3.1/../../../../pic32c/lib/thumb/v6-m/nofp\libg-musl.a(strlen.o)
 .debug_str     0x00002ce5        0x0 c:/program files/microchip/xc32/v4.35/bin/bin/../../lib/gcc/pic32c/8.3.1/../../../../pic32c/lib/thumb/v6-m/nofp\libg-musl.a(__environ.o)
 .debug_str     0x00002ce5        0x0 c:/program files/microchip/xc32/v4.35/bin/bin/../../lib/gcc/pic32c/8.3.1/../../../../pic32c/lib/thumb/v6-m/nofp\libg-musl.a(__errno_location.o)
 .debug_str     0x00002ce5       0x1e c:/program files/microchip/xc32/v4.35/bin/bin/../../lib/gcc/pic32c/8.3.1/../../../../pic32c/lib/thumb/v6-m/nofp\libg-musl.a(vfprintf.o)
 .debug_str     0x00002d03        0x0 c:/program files/microchip/xc32/v4.35/bin/bin/../../lib/gcc/pic32c/8.3.1/../../../../pic32c/lib/thumb/v6-m/nofp\libg-musl.a(__pop_float.o)
 .debug_str     0x00002d03        0x0 c:/program files/microchip/xc32/v4.35/bin/bin/../../lib/gcc/pic32c/8.3.1/../../../../pic32c/lib/thumb/v6-m/nofp\libg-musl.a(__pop_int.o)
 .debug_str     0x00002d03        0x0 c:/program files/microchip/xc32/v4.35/bin/bin/../../lib/gcc/pic32c/8.3.1/../../../../pic32c/lib/thumb/v6-m/nofp\libg-musl.a(__pop_ptr.o)
 .debug_str     0x00002d03       0x20 c:/program files/microchip/xc32/v4.35/bin/bin/../../lib/gcc/pic32c/8.3.1/../../../../pic32c/lib/thumb/v6-m/nofp\libg-musl.a(__printf_core.o)
 .debug_str     0x00002d23        0x0 c:/program files/microchip/xc32/v4.35/bin/bin/../../lib/gcc/pic32c/8.3.1/../../../../pic32c/lib/thumb/v6-m/nofp\libg-musl.a(atoi.o)
 .debug_str     0x00002d23        0x0 c:/program files/microchip/xc32/v4.35/bin/bin/../../lib/gcc/pic32c/8.3.1/../../../../pic32c/lib/thumb/v6-m/nofp\libg-musl.a(tolower.o)
 .debug_str     0x00002d23        0x0 c:/program files/microchip/xc32/v4.35/bin/bin/../../lib/gcc/pic32c/8.3.1/../../../../pic32c/lib/thumb/v6-m/nofp\libg-musl.a(__fmt_a.o)
 .debug_str     0x00002d23        0x0 c:/program files/microchip/xc32/v4.35/bin/bin/../../lib/gcc/pic32c/8.3.1/../../../../pic32c/lib/thumb/v6-m/nofp\libg-musl.a(__fmt_d.o)
 .debug_str     0x00002d23        0x0 c:/program files/microchip/xc32/v4.35/bin/bin/../../lib/gcc/pic32c/8.3.1/../../../../pic32c/lib/thumb/v6-m/nofp\libg-musl.a(__fmt_fp.o)
 .debug_str     0x00002d23        0x0 c:/program files/microchip/xc32/v4.35/bin/bin/../../lib/gcc/pic32c/8.3.1/../../../../pic32c/lib/thumb/v6-m/nofp\libg-musl.a(__fmt_o.o)
 .debug_str     0x00002d23        0x0 c:/program files/microchip/xc32/v4.35/bin/bin/../../lib/gcc/pic32c/8.3.1/../../../../pic32c/lib/thumb/v6-m/nofp\libg-musl.a(__fmt_s.o)
 .debug_str     0x00002d23        0x0 c:/program files/microchip/xc32/v4.35/bin/bin/../../lib/gcc/pic32c/8.3.1/../../../../pic32c/lib/thumb/v6-m/nofp\libg-musl.a(__fmt_u.o)
 .debug_str     0x00002d23        0x0 c:/program files/microchip/xc32/v4.35/bin/bin/../../lib/gcc/pic32c/8.3.1/../../../../pic32c/lib/thumb/v6-m/nofp\libg-musl.a(__fmt_x.o)
 .debug_str     0x00002d23        0x9 c:/program files/microchip/xc32/v4.35/bin/bin/../../lib/gcc/pic32c/8.3.1/../../../../pic32c/lib/thumb/v6-m/nofp\libg-musl.a(strcpy.o)
 .debug_str     0x00002d2c        0x0 c:/program files/microchip/xc32/v4.35/bin/bin/../../lib/gcc/pic32c/8.3.1/../../../../pic32c/lib/thumb/v6-m/nofp\libg-musl.a(toupper.o)
 .debug_str     0x00002d2c        0x0 c:/program files/microchip/xc32/v4.35/bin/bin/../../lib/gcc/pic32c/8.3.1/../../../../pic32c/lib/thumb/v6-m/nofp\libg-musl.a(__cvt_u.o)
 .debug_str     0x00002d2c        0x0 c:/program files/microchip/xc32/v4.35/bin/bin/../../lib/gcc/pic32c/8.3.1/../../../../pic32c/lib/thumb/v6-m/nofp\libg-musl.a(stpcpy.o)
 .debug_str     0x00002d2c       0xe8 c:/program files/microchip/xc32/v4.35/bin/bin/../../lib/gcc/pic32c/8.3.1/thumb/v6-m/nofp\libgcc.a(_udivsi3.o)
 .debug_str     0x00002e14       0xe8 c:/program files/microchip/xc32/v4.35/bin/bin/../../lib/gcc/pic32c/8.3.1/thumb/v6-m/nofp\libgcc.a(_divsi3.o)
 .debug_str     0x00002efc       0xe8 c:/program files/microchip/xc32/v4.35/bin/bin/../../lib/gcc/pic32c/8.3.1/thumb/v6-m/nofp\libgcc.a(_dvmd_tls.o)
 .debug_str     0x00002fe4       0xe8 c:/program files/microchip/xc32/v4.35/bin/bin/../../lib/gcc/pic32c/8.3.1/thumb/v6-m/nofp\libgcc.a(_aeabi_uldivmod.o)
 .debug_str     0x000030cc        0x0 c:/program files/microchip/xc32/v4.35/bin/bin/../../lib/gcc/pic32c/8.3.1/thumb/v6-m/nofp\libgcc.a(_muldi3.o)
 .debug_str     0x000030cc        0x0 c:/program files/microchip/xc32/v4.35/bin/bin/../../lib/gcc/pic32c/8.3.1/thumb/v6-m/nofp\libgcc.a(_udivmoddi4.o)
 .debug_str     0x000030cc       0xe8 c:/program files/microchip/xc32/v4.35/bin/bin/../../lib/gcc/pic32c/8.3.1/thumb/v6-m/nofp\libgcc.a(_lshrdi3.o)
 .debug_str     0x000031b4       0xe8 c:/program files/microchip/xc32/v4.35/bin/bin/../../lib/gcc/pic32c/8.3.1/thumb/v6-m/nofp\libgcc.a(_ashldi3.o)
 .debug_str     0x0000329c       0xe8 c:/program files/microchip/xc32/v4.35/bin/bin/../../lib/gcc/pic32c/8.3.1/thumb/v6-m/nofp\libgcc.a(_clzdi2.o)
 .debug_str     0x00003384       0xe8 c:/program files/microchip/xc32/v4.35/bin/bin/../../lib/gcc/pic32c/8.3.1/thumb/v6-m/nofp\libgcc.a(_clzsi2.o)
 .debug_str     0x0000346c        0x0 c:/program files/microchip/xc32/v4.35/bin/bin/../../lib/gcc/pic32c/8.3.1/../../../../pic32c/lib/thumb/v6-m/nofp\libpic32c.a(pic32_data_init_clear.o)
 .debug_str     0x0000346c        0x0 c:/program files/microchip/xc32/v4.35/bin/bin/../../lib/gcc/pic32c/8.3.1/../../../../pic32c/lib/thumb/v6-m/nofp\libpic32c.a(pic32_data_init_copy.o)

.debug_frame    0x00000000     0x3a50
 .debug_frame   0x00000000       0x48 build/default/debug/_ext/1655452824/mac_task.o
 .debug_frame   0x00000048       0x3c build/default/debug/_ext/1655452824/mac_process_beacon_frame.o
 .debug_frame   0x00000084       0x44 build/default/debug/_ext/1655452824/mac_sync.o
 .debug_frame   0x000000c8       0x3c build/default/debug/_ext/1655452824/mac_data_req.o
 .debug_frame   0x00000104       0x28 build/default/debug/_ext/1655452824/mac_dispatcher.o
 .debug_frame   0x0000012c       0x30 build/default/debug/_ext/1655452824/mac_data_extract_mhr.o
 .debug_frame   0x0000015c       0x20 build/default/debug/_ext/1655452824/usr_mlme_sync_loss_ind.o
 .debug_frame   0x0000017c       0xa4 build/default/debug/_ext/1655452824/mac_associate.o
 .debug_frame   0x00000220       0xb0 build/default/debug/_ext/1655452824/mac_pib.o
 .debug_frame   0x000002d0       0x60 build/default/debug/_ext/1655452824/mac_rx_enable.o
 .debug_frame   0x00000330       0x58 build/default/debug/_ext/1655452824/mac.o
 .debug_frame   0x00000388       0x90 build/default/debug/_ext/1655452824/mac_disassociate.o
 .debug_frame   0x00000418       0x2c build/default/debug/_ext/1655452824/mac_process_phy_tx_frame_status.o
 .debug_frame   0x00000444      0x164 build/default/debug/_ext/1655452824/mac_callback_wrapper.o
 .debug_frame   0x000005a8      0x158 build/default/debug/_ext/1655452824/mac_api.o
 .debug_frame   0x00000700       0xf8 build/default/debug/_ext/1655452824/mac_misc.o
 .debug_frame   0x000007f8       0x78 build/default/debug/_ext/1655452824/mac_mcps_data.o
 .debug_frame   0x00000870       0x70 build/default/debug/_ext/1655452824/mac_data_ind.o
 .debug_frame   0x000008e0       0xf4 build/default/debug/_ext/1655452824/mac_scan.o
 .debug_frame   0x000009d4       0x74 build/default/debug/_ext/1655452824/mac_poll.o
 .debug_frame   0x00000a48      0x12c build/default/debug/_ext/745501718/pal.o
 .debug_frame   0x00000b74       0xb4 build/default/debug/_ext/559172130/phy_init.o
 .debug_frame   0x00000c28       0x28 build/default/debug/_ext/559172130/phy_rx_enable.o
 .debug_frame   0x00000c50       0x58 build/default/debug/_ext/559172130/phy_pwr_mgmt.o
 .debug_frame   0x00000ca8       0xb0 build/default/debug/_ext/559172130/phy_tx.o
 .debug_frame   0x00000d58       0x90 build/default/debug/_ext/559172130/phy_pib.o
 .debug_frame   0x00000de8      0x104 build/default/debug/_ext/559172130/phy.o
 .debug_frame   0x00000eec      0x184 build/default/debug/_ext/559172130/phy_helper.o
 .debug_frame   0x00001070       0x58 build/default/debug/_ext/559172130/phy_irq_handler.o
 .debug_frame   0x000010c8       0xf4 build/default/debug/_ext/559172130/phy_trx_reg_access.o
 .debug_frame   0x000011bc       0x5c build/default/debug/_ext/559172130/phy_ed.o
 .debug_frame   0x00001218       0x48 build/default/debug/_ext/559172130/phy_rx.o
 .debug_frame   0x00001260       0x70 build/default/debug/_ext/957911548/phy_task.o
 .debug_frame   0x000012d0       0x20 build/default/debug/_ext/957911548/phy_ed_end_cb.o
 .debug_frame   0x000012f0       0x70 build/default/debug/_ext/1374435801/bmm.o
 .debug_frame   0x00001360       0x84 build/default/debug/_ext/874725666/qmm.o
 .debug_frame   0x000013e4       0xd0 build/default/debug/_ext/1529399856/osal_freertos_extend.o
 .debug_frame   0x000014b4      0x174 build/default/debug/_ext/1529399856/osal_freertos.o
 .debug_frame   0x00001628       0x20 build/default/debug/_ext/1984496892/plib_clock.o
 .debug_frame   0x00001648       0x7c build/default/debug/_ext/60167341/plib_eic.o
 .debug_frame   0x000016c4       0x58 build/default/debug/_ext/1865468468/plib_nvic.o
 .debug_frame   0x0000171c      0x108 build/default/debug/_ext/1593096446/plib_nvmctrl.o
 .debug_frame   0x00001824       0xd4 build/default/debug/_ext/1865521619/plib_port.o
 .debug_frame   0x000018f8       0xd4 build/default/debug/_ext/17022449/plib_sercom4_spi_master.o
 .debug_frame   0x000019cc      0x254 build/default/debug/_ext/504274921/plib_sercom0_usart.o
 .debug_frame   0x00001c20       0xd8 build/default/debug/_ext/829342655/plib_tc3.o
 .debug_frame   0x00001cf8      0x15c build/default/debug/_ext/1832805299/sys_console.o
 .debug_frame   0x00001e54      0x118 build/default/debug/_ext/1832805299/sys_console_uart.o
 .debug_frame   0x00001f6c       0x84 build/default/debug/_ext/1881668453/sys_int.o
 .debug_frame   0x00001ff0      0x3a0 build/default/debug/_ext/101884895/sys_time.o
 .debug_frame   0x00002390       0x30 build/default/debug/_ext/1171490990/exceptions.o
 .debug_frame   0x000023c0       0x68 build/default/debug/_ext/1171490990/freertos_hooks.o
 .debug_frame   0x00002428       0x20 build/default/debug/_ext/1171490990/interrupts.o
 .debug_frame   0x00002448       0x38 build/default/debug/_ext/1171490990/startup_xc32.o
 .debug_frame   0x00002480       0x28 build/default/debug/_ext/1171490990/initialization.o
 .debug_frame   0x000024a8       0x74 build/default/debug/_ext/1171490990/tasks.o
 .debug_frame   0x0000251c      0x10c build/default/debug/_ext/1624415188/port.o
 .debug_frame   0x00002628       0xb0 build/default/debug/_ext/1665200909/heap_4.o
 .debug_frame   0x000026d8      0x4dc build/default/debug/_ext/404212886/FreeRTOS_tasks.o
 .debug_frame   0x00002bb4      0x1ac build/default/debug/_ext/404212886/timers.o
 .debug_frame   0x00002d60      0x324 build/default/debug/_ext/404212886/queue.o
 .debug_frame   0x00003084       0x6c build/default/debug/_ext/404212886/list.o
 .debug_frame   0x000030f0       0x44 build/default/debug/_ext/1360937237/app.o
 .debug_frame   0x00003134       0x28 build/default/debug/_ext/1360937237/main.o
 .debug_frame   0x0000315c      0x1a8 build/default/debug/_ext/85617168/demo_app_rfd.o
 .debug_frame   0x00003304      0x148 build/default/debug/_ext/85617168/usr_mac_callbacks.o
 .debug_frame   0x0000344c       0x38 c:/program files/microchip/xc32/v4.35/bin/bin/../../lib/gcc/pic32c/8.3.1/../../../../pic32c/lib/thumb/v6-m/nofp\libpic32c.a(data_init.o)
 .debug_frame   0x00003484       0x38 c:/program files/microchip/xc32/v4.35/bin/bin/../../lib/gcc/pic32c/8.3.1/../../../../pic32c/lib/thumb/v6-m/nofp\libg-musl.a(__libc_start_main.o)
 .debug_frame   0x000034bc       0x30 c:/program files/microchip/xc32/v4.35/bin/bin/../../lib/gcc/pic32c/8.3.1/../../../../pic32c/lib/thumb/v6-m/nofp\libg-musl.a(rand.o)
 .debug_frame   0x000034ec       0x34 c:/program files/microchip/xc32/v4.35/bin/bin/../../lib/gcc/pic32c/8.3.1/../../../../pic32c/lib/thumb/v6-m/nofp\libg-musl.a(vsnprintf.o)
 .debug_frame   0x00003520       0x28 c:/program files/microchip/xc32/v4.35/bin/bin/../../lib/gcc/pic32c/8.3.1/../../../../pic32c/lib/thumb/v6-m/nofp\libg-musl.a(memcpy.o)
 .debug_frame   0x00003548       0x20 c:/program files/microchip/xc32/v4.35/bin/bin/../../lib/gcc/pic32c/8.3.1/../../../../pic32c/lib/thumb/v6-m/nofp\libg-musl.a(memset.o)
 .debug_frame   0x00003568       0x20 c:/program files/microchip/xc32/v4.35/bin/bin/../../lib/gcc/pic32c/8.3.1/../../../../pic32c/lib/thumb/v6-m/nofp\libg-musl.a(strlen.o)
 .debug_frame   0x00003588       0x44 c:/program files/microchip/xc32/v4.35/bin/bin/../../lib/gcc/pic32c/8.3.1/../../../../pic32c/lib/thumb/v6-m/nofp\libg-musl.a(vfprintf.o)
 .debug_frame   0x000035cc       0x20 c:/program files/microchip/xc32/v4.35/bin/bin/../../lib/gcc/pic32c/8.3.1/../../../../pic32c/lib/thumb/v6-m/nofp\libg-musl.a(__pop_float.o)
 .debug_frame   0x000035ec       0x28 c:/program files/microchip/xc32/v4.35/bin/bin/../../lib/gcc/pic32c/8.3.1/../../../../pic32c/lib/thumb/v6-m/nofp\libg-musl.a(__pop_int.o)
 .debug_frame   0x00003614       0x28 c:/program files/microchip/xc32/v4.35/bin/bin/../../lib/gcc/pic32c/8.3.1/../../../../pic32c/lib/thumb/v6-m/nofp\libg-musl.a(__pop_ptr.o)
 .debug_frame   0x0000363c       0xc0 c:/program files/microchip/xc32/v4.35/bin/bin/../../lib/gcc/pic32c/8.3.1/../../../../pic32c/lib/thumb/v6-m/nofp\libg-musl.a(__printf_core.o)
 .debug_frame   0x000036fc       0x28 c:/program files/microchip/xc32/v4.35/bin/bin/../../lib/gcc/pic32c/8.3.1/../../../../pic32c/lib/thumb/v6-m/nofp\libg-musl.a(atoi.o)
 .debug_frame   0x00003724       0x38 c:/program files/microchip/xc32/v4.35/bin/bin/../../lib/gcc/pic32c/8.3.1/../../../../pic32c/lib/thumb/v6-m/nofp\libg-musl.a(tolower.o)
 .debug_frame   0x0000375c       0x30 c:/program files/microchip/xc32/v4.35/bin/bin/../../lib/gcc/pic32c/8.3.1/../../../../pic32c/lib/thumb/v6-m/nofp\libg-musl.a(__fmt_a.o)
 .debug_frame   0x0000378c       0x30 c:/program files/microchip/xc32/v4.35/bin/bin/../../lib/gcc/pic32c/8.3.1/../../../../pic32c/lib/thumb/v6-m/nofp\libg-musl.a(__fmt_d.o)
 .debug_frame   0x000037bc       0x34 c:/program files/microchip/xc32/v4.35/bin/bin/../../lib/gcc/pic32c/8.3.1/../../../../pic32c/lib/thumb/v6-m/nofp\libg-musl.a(__fmt_fp.o)
 .debug_frame   0x000037f0       0x30 c:/program files/microchip/xc32/v4.35/bin/bin/../../lib/gcc/pic32c/8.3.1/../../../../pic32c/lib/thumb/v6-m/nofp\libg-musl.a(__fmt_o.o)
 .debug_frame   0x00003820       0x30 c:/program files/microchip/xc32/v4.35/bin/bin/../../lib/gcc/pic32c/8.3.1/../../../../pic32c/lib/thumb/v6-m/nofp\libg-musl.a(__fmt_s.o)
 .debug_frame   0x00003850       0x30 c:/program files/microchip/xc32/v4.35/bin/bin/../../lib/gcc/pic32c/8.3.1/../../../../pic32c/lib/thumb/v6-m/nofp\libg-musl.a(__fmt_u.o)
 .debug_frame   0x00003880       0x30 c:/program files/microchip/xc32/v4.35/bin/bin/../../lib/gcc/pic32c/8.3.1/../../../../pic32c/lib/thumb/v6-m/nofp\libg-musl.a(__fmt_x.o)
 .debug_frame   0x000038b0       0x28 c:/program files/microchip/xc32/v4.35/bin/bin/../../lib/gcc/pic32c/8.3.1/../../../../pic32c/lib/thumb/v6-m/nofp\libg-musl.a(strcpy.o)
 .debug_frame   0x000038d8       0x38 c:/program files/microchip/xc32/v4.35/bin/bin/../../lib/gcc/pic32c/8.3.1/../../../../pic32c/lib/thumb/v6-m/nofp\libg-musl.a(toupper.o)
 .debug_frame   0x00003910       0x34 c:/program files/microchip/xc32/v4.35/bin/bin/../../lib/gcc/pic32c/8.3.1/../../../../pic32c/lib/thumb/v6-m/nofp\libg-musl.a(__cvt_u.o)
 .debug_frame   0x00003944       0x20 c:/program files/microchip/xc32/v4.35/bin/bin/../../lib/gcc/pic32c/8.3.1/../../../../pic32c/lib/thumb/v6-m/nofp\libg-musl.a(stpcpy.o)
 .debug_frame   0x00003964       0x20 c:/program files/microchip/xc32/v4.35/bin/bin/../../lib/gcc/pic32c/8.3.1/thumb/v6-m/nofp\libgcc.a(_udivsi3.o)
 .debug_frame   0x00003984       0x20 c:/program files/microchip/xc32/v4.35/bin/bin/../../lib/gcc/pic32c/8.3.1/thumb/v6-m/nofp\libgcc.a(_divsi3.o)
 .debug_frame   0x000039a4       0x34 c:/program files/microchip/xc32/v4.35/bin/bin/../../lib/gcc/pic32c/8.3.1/thumb/v6-m/nofp\libgcc.a(_muldi3.o)
 .debug_frame   0x000039d8       0x30 c:/program files/microchip/xc32/v4.35/bin/bin/../../lib/gcc/pic32c/8.3.1/thumb/v6-m/nofp\libgcc.a(_udivmoddi4.o)
 .debug_frame   0x00003a08       0x20 c:/program files/microchip/xc32/v4.35/bin/bin/../../lib/gcc/pic32c/8.3.1/../../../../pic32c/lib/thumb/v6-m/nofp\libpic32c.a(pic32_data_init_clear.o)
 .debug_frame   0x00003a28       0x28 c:/program files/microchip/xc32/v4.35/bin/bin/../../lib/gcc/pic32c/8.3.1/../../../../pic32c/lib/thumb/v6-m/nofp\libpic32c.a(pic32_data_init_copy.o)

.note.GNU-stack
                0x00000000        0x0
 .note.GNU-stack
                0x00000000        0x0 c:/program files/microchip/xc32/v4.35/bin/bin/../../lib/gcc/pic32c/8.3.1/../../../../pic32c/lib/thumb/v6-m/nofp\libg-musl.a(__libc_start_main.o)
 .note.GNU-stack
                0x00000000        0x0 c:/program files/microchip/xc32/v4.35/bin/bin/../../lib/gcc/pic32c/8.3.1/../../../../pic32c/lib/thumb/v6-m/nofp\libg-musl.a(libc.o)
 .note.GNU-stack
                0x00000000        0x0 c:/program files/microchip/xc32/v4.35/bin/bin/../../lib/gcc/pic32c/8.3.1/../../../../pic32c/lib/thumb/v6-m/nofp\libg-musl.a(rand.o)
 .note.GNU-stack
                0x00000000        0x0 c:/program files/microchip/xc32/v4.35/bin/bin/../../lib/gcc/pic32c/8.3.1/../../../../pic32c/lib/thumb/v6-m/nofp\libg-musl.a(vsnprintf.o)
 .note.GNU-stack
                0x00000000        0x0 c:/program files/microchip/xc32/v4.35/bin/bin/../../lib/gcc/pic32c/8.3.1/../../../../pic32c/lib/thumb/v6-m/nofp\libg-musl.a(memcpy.o)
 .note.GNU-stack
                0x00000000        0x0 c:/program files/microchip/xc32/v4.35/bin/bin/../../lib/gcc/pic32c/8.3.1/../../../../pic32c/lib/thumb/v6-m/nofp\libg-musl.a(memset.o)
 .note.GNU-stack
                0x00000000        0x0 c:/program files/microchip/xc32/v4.35/bin/bin/../../lib/gcc/pic32c/8.3.1/../../../../pic32c/lib/thumb/v6-m/nofp\libg-musl.a(strlen.o)
 .note.GNU-stack
                0x00000000        0x0 c:/program files/microchip/xc32/v4.35/bin/bin/../../lib/gcc/pic32c/8.3.1/../../../../pic32c/lib/thumb/v6-m/nofp\libg-musl.a(__environ.o)
 .note.GNU-stack
                0x00000000        0x0 c:/program files/microchip/xc32/v4.35/bin/bin/../../lib/gcc/pic32c/8.3.1/../../../../pic32c/lib/thumb/v6-m/nofp\libg-musl.a(__errno_location.o)
 .note.GNU-stack
                0x00000000        0x0 c:/program files/microchip/xc32/v4.35/bin/bin/../../lib/gcc/pic32c/8.3.1/../../../../pic32c/lib/thumb/v6-m/nofp\libg-musl.a(vfprintf.o)
 .note.GNU-stack
                0x00000000        0x0 c:/program files/microchip/xc32/v4.35/bin/bin/../../lib/gcc/pic32c/8.3.1/../../../../pic32c/lib/thumb/v6-m/nofp\libg-musl.a(__pop_float.o)
 .note.GNU-stack
                0x00000000        0x0 c:/program files/microchip/xc32/v4.35/bin/bin/../../lib/gcc/pic32c/8.3.1/../../../../pic32c/lib/thumb/v6-m/nofp\libg-musl.a(__pop_int.o)
 .note.GNU-stack
                0x00000000        0x0 c:/program files/microchip/xc32/v4.35/bin/bin/../../lib/gcc/pic32c/8.3.1/../../../../pic32c/lib/thumb/v6-m/nofp\libg-musl.a(__pop_ptr.o)
 .note.GNU-stack
                0x00000000        0x0 c:/program files/microchip/xc32/v4.35/bin/bin/../../lib/gcc/pic32c/8.3.1/../../../../pic32c/lib/thumb/v6-m/nofp\libg-musl.a(__printf_core.o)
 .note.GNU-stack
                0x00000000        0x0 c:/program files/microchip/xc32/v4.35/bin/bin/../../lib/gcc/pic32c/8.3.1/../../../../pic32c/lib/thumb/v6-m/nofp\libg-musl.a(atoi.o)
 .note.GNU-stack
                0x00000000        0x0 c:/program files/microchip/xc32/v4.35/bin/bin/../../lib/gcc/pic32c/8.3.1/../../../../pic32c/lib/thumb/v6-m/nofp\libg-musl.a(tolower.o)
 .note.GNU-stack
                0x00000000        0x0 c:/program files/microchip/xc32/v4.35/bin/bin/../../lib/gcc/pic32c/8.3.1/../../../../pic32c/lib/thumb/v6-m/nofp\libg-musl.a(__fmt_a.o)
 .note.GNU-stack
                0x00000000        0x0 c:/program files/microchip/xc32/v4.35/bin/bin/../../lib/gcc/pic32c/8.3.1/../../../../pic32c/lib/thumb/v6-m/nofp\libg-musl.a(__fmt_d.o)
 .note.GNU-stack
                0x00000000        0x0 c:/program files/microchip/xc32/v4.35/bin/bin/../../lib/gcc/pic32c/8.3.1/../../../../pic32c/lib/thumb/v6-m/nofp\libg-musl.a(__fmt_fp.o)
 .note.GNU-stack
                0x00000000        0x0 c:/program files/microchip/xc32/v4.35/bin/bin/../../lib/gcc/pic32c/8.3.1/../../../../pic32c/lib/thumb/v6-m/nofp\libg-musl.a(__fmt_o.o)
 .note.GNU-stack
                0x00000000        0x0 c:/program files/microchip/xc32/v4.35/bin/bin/../../lib/gcc/pic32c/8.3.1/../../../../pic32c/lib/thumb/v6-m/nofp\libg-musl.a(__fmt_s.o)
 .note.GNU-stack
                0x00000000        0x0 c:/program files/microchip/xc32/v4.35/bin/bin/../../lib/gcc/pic32c/8.3.1/../../../../pic32c/lib/thumb/v6-m/nofp\libg-musl.a(__fmt_u.o)
 .note.GNU-stack
                0x00000000        0x0 c:/program files/microchip/xc32/v4.35/bin/bin/../../lib/gcc/pic32c/8.3.1/../../../../pic32c/lib/thumb/v6-m/nofp\libg-musl.a(__fmt_x.o)
 .note.GNU-stack
                0x00000000        0x0 c:/program files/microchip/xc32/v4.35/bin/bin/../../lib/gcc/pic32c/8.3.1/../../../../pic32c/lib/thumb/v6-m/nofp\libg-musl.a(strcpy.o)
 .note.GNU-stack
                0x00000000        0x0 c:/program files/microchip/xc32/v4.35/bin/bin/../../lib/gcc/pic32c/8.3.1/../../../../pic32c/lib/thumb/v6-m/nofp\libg-musl.a(toupper.o)
 .note.GNU-stack
                0x00000000        0x0 c:/program files/microchip/xc32/v4.35/bin/bin/../../lib/gcc/pic32c/8.3.1/../../../../pic32c/lib/thumb/v6-m/nofp\libg-musl.a(__cvt_u.o)
 .note.GNU-stack
                0x00000000        0x0 c:/program files/microchip/xc32/v4.35/bin/bin/../../lib/gcc/pic32c/8.3.1/../../../../pic32c/lib/thumb/v6-m/nofp\libg-musl.a(stpcpy.o)

__xc_reference_data
                0x00000000       0x5c
 __xc_reference_data
                0x00000000        0x8 c:/program files/microchip/xc32/v4.35/bin/bin/../../lib/gcc/pic32c/8.3.1/../../../../pic32c/lib/thumb/v6-m/nofp\libg-musl.a(vfprintf.o)
                0x00000000                __vfprintf_needs_fmt
 __xc_reference_data
                0x00000008       0x54 c:/program files/microchip/xc32/v4.35/bin/bin/../../lib/gcc/pic32c/8.3.1/../../../../pic32c/lib/thumb/v6-m/nofp\libg-musl.a(__io_fmt_needed.o)
                0x00000008                __io_fmt_needed

.stack          0x200049c0      0x100
 .stack         0x200049c0      0x100 stack

.bss.ucHeap%1   0x20000000     0x2f40
 .bss.ucHeap    0x20000000     0x2f40 build/default/debug/_ext/1665200909/heap_4.o

.bss.buf_pool%2
                0x20002f40      0xf3c
 .bss.buf_pool  0x20002f40      0xf3c build/default/debug/_ext/1374435801/bmm.o

.bss.buf_header%3
                0x20003e7c       0xc8
 .bss.buf_header
                0x20003e7c       0xc8 build/default/debug/_ext/1374435801/bmm.o

.bss.consolePrintBuffer%4
                0x20003f44       0xc8
 .bss.consolePrintBuffer
                0x20003f44       0xc8 build/default/debug/_ext/1832805299/sys_console.o

.bss.eicCallbackObject%5
                0x2000400c       0xc0
 .bss.eicCallbackObject
                0x2000400c       0xc0 build/default/debug/_ext/60167341/plib_eic.o

.bss.timers%6   0x200040cc       0xa0
 .bss.timers    0x200040cc       0xa0 build/default/debug/_ext/101884895/sys_time.o

.bss.SERCOM0_USART_ReadBuffer%7
                0x2000416c       0x80
 .bss.SERCOM0_USART_ReadBuffer
                0x2000416c       0x80 build/default/debug/_ext/504274921/plib_sercom0_usart.o

.bss.SERCOM0_USART_WriteBuffer%8
                0x200041ec       0x80
 .bss.SERCOM0_USART_WriteBuffer
                0x200041ec       0x80 build/default/debug/_ext/504274921/plib_sercom0_usart.o

.bss.msdu_payload%9
                0x2000426c       0x68
 .bss.msdu_payload
                0x2000426c       0x68 build/default/debug/_ext/85617168/demo_app_rfd.o

.bss.pxReadyTasksLists%10
                0x200042d4       0x64
 .bss.pxReadyTasksLists
                0x200042d4       0x64 build/default/debug/_ext/404212886/FreeRTOS_tasks.o

.bss.palTimers%11
                0x20004338       0x50
 .bss.palTimers
                0x20004338       0x50 build/default/debug/_ext/745501718/pal.o

.bss%12         0x20004388       0x50
 .bss           0x20004388       0x50 c:/program files/microchip/xc32/v4.35/bin/bin/../../lib/gcc/pic32c/8.3.1/../../../../pic32c/lib/thumb/v6-m/nofp\libg-musl.a(libc.o)
                0x20004388                __progname_full
                0x20004388                program_invocation_name
                0x2000438c                program_invocation_short_name
                0x2000438c                __progname
                0x20004390                __sysinfo
                0x20004394                __hwcap
                0x20004398                __libc

.bss.osalAPIList%13
                0x200043d8       0x44
 .bss.osalAPIList
                0x200043d8       0x44 build/default/debug/_ext/1171490990/initialization.o
                0x200043d8                osalAPIList

.bss.macParseData%14
                0x20004420       0x40
 .bss.macParseData
                0x20004420       0x40 build/default/debug/_ext/1655452824/mac.o
                0x20004420                macParseData

.bss.sercom0USARTObj%15
                0x20004460       0x40
 .bss.sercom0USARTObj
                0x20004460       0x40 build/default/debug/_ext/504274921/plib_sercom0_usart.o

.bss.gSystemCounterObj%16
                0x200044a0       0x40
 .bss.gSystemCounterObj
                0x200044a0       0x40 build/default/debug/_ext/101884895/sys_time.o

.bss.sercom4SPIObj%17
                0x200044e0       0x2c
 .bss.sercom4SPIObj
                0x200044e0       0x2c build/default/debug/_ext/17022449/plib_sercom4_spi_master.o

.bss.tal_pib%18
                0x2000450c       0x1d
 .bss.tal_pib   0x2000450c       0x1d build/default/debug/_ext/559172130/phy.o
                0x2000450c                tal_pib

.bss%19         0x2000452c       0x1c
 .bss           0x2000452c       0x1c c:/program files/microchip/xc32/v4.35/bin/bin/../../lib/gcc/pic32c/8.3.1/thumb/v6-m/nofp/crtbegin.o

.bss.phy_info%20
                0x20004548       0x1c
 .bss.phy_info  0x20004548       0x1c build/default/debug/_ext/559172130/phy.o
                0x20004548                phy_info

.bss.macPib%21  0x20004568       0x18
 .bss.macPib    0x20004568       0x18 build/default/debug/_ext/1655452824/mac.o
                0x20004568                macPib

.bss.xDelayedTaskList1%22
                0x20004580       0x14
 .bss.xDelayedTaskList1
                0x20004580       0x14 build/default/debug/_ext/404212886/FreeRTOS_tasks.o

.bss.xDelayedTaskList2%23
                0x20004594       0x14
 .bss.xDelayedTaskList2
                0x20004594       0x14 build/default/debug/_ext/404212886/FreeRTOS_tasks.o

.bss.xPendingReadyList%24
                0x200045a8       0x14
 .bss.xPendingReadyList
                0x200045a8       0x14 build/default/debug/_ext/404212886/FreeRTOS_tasks.o

.bss.xSuspendedTaskList%25
                0x200045bc       0x14
 .bss.xSuspendedTaskList
                0x200045bc       0x14 build/default/debug/_ext/404212886/FreeRTOS_tasks.o

.bss.xTasksWaitingTermination%26
                0x200045d0       0x14
 .bss.xTasksWaitingTermination
                0x200045d0       0x14 build/default/debug/_ext/404212886/FreeRTOS_tasks.o

.bss.xActiveTimerList1%27
                0x200045e4       0x14
 .bss.xActiveTimerList1
                0x200045e4       0x14 build/default/debug/_ext/404212886/timers.o

.bss.xActiveTimerList2%28
                0x200045f8       0x14
 .bss.xActiveTimerList2
                0x200045f8       0x14 build/default/debug/_ext/404212886/timers.o

.bss.coordAddrSpec%29
                0x20004610       0x10
 .bss.coordAddrSpec
                0x20004610       0x10 build/default/debug/_ext/85617168/demo_app_rfd.o
                0x20004610                coordAddrSpec

.bss.MAC_SyncLossBuffer.8235%30
                0x20004620        0xe
 .bss.MAC_SyncLossBuffer.8235
                0x20004620        0xe build/default/debug/_ext/1655452824/mac_sync.o

.bss.nhleMacQueue%31
                0x20004630        0xc
 .bss.nhleMacQueue
                0x20004630        0xc build/default/debug/_ext/1655452824/mac.o
                0x20004630                nhleMacQueue

.bss.phyMacQueue%32
                0x2000463c        0xc
 .bss.phyMacQueue
                0x2000463c        0xc build/default/debug/_ext/1655452824/mac.o
                0x2000463c                phyMacQueue

.bss.macNhleQueue%33
                0x20004648        0xc
 .bss.macNhleQueue
                0x20004648        0xc build/default/debug/_ext/1655452824/mac_api.o
                0x20004648                macNhleQueue

.bss.tal_incoming_frame_queue%34
                0x20004654        0xc
 .bss.tal_incoming_frame_queue
                0x20004654        0xc build/default/debug/_ext/559172130/phy.o
                0x20004654                tal_incoming_frame_queue

.bss.free_large_buffer_q%35
                0x20004660        0xc
 .bss.free_large_buffer_q
                0x20004660        0xc build/default/debug/_ext/1374435801/bmm.o

.bss.free_small_buffer_q%36
                0x2000466c        0xc
 .bss.free_small_buffer_q
                0x2000466c        0xc build/default/debug/_ext/1374435801/bmm.o

.bss.consoleDeviceInstance%37
                0x20004678        0xc
 .bss.consoleDeviceInstance
                0x20004678        0xc build/default/debug/_ext/1832805299/sys_console.o

.bss.gConsoleUartData%38
                0x20004684        0xc
 .bss.gConsoleUartData
                0x20004684        0xc build/default/debug/_ext/1832805299/sys_console_uart.o

.bss.macLastSrcAddr%39
                0x20004690        0x8
 .bss.macLastSrcAddr
                0x20004690        0x8 build/default/debug/_ext/1655452824/mac.o
                0x20004690                macLastSrcAddr

.bss.phyTxFrameInfo%40
                0x20004698        0x8
 .bss.phyTxFrameInfo
                0x20004698        0x8 build/default/debug/_ext/1655452824/mac.o
                0x20004698                phyTxFrameInfo

.bss.TC3_CallbackObject%41
                0x200046a0        0x8
 .bss.TC3_CallbackObject
                0x200046a0        0x8 build/default/debug/_ext/829342655/plib_tc3.o

.bss.sysObj%42  0x200046a8        0x8
 .bss.sysObj    0x200046a8        0x8 build/default/debug/_ext/1171490990/initialization.o
                0x200046a8                sysObj

.bss.xStart%43  0x200046b0        0x8
 .bss.xStart    0x200046b0        0x8 build/default/debug/_ext/1665200909/heap_4.o

.bss.appData%44
                0x200046b8        0x8
 .bss.appData   0x200046b8        0x8 build/default/debug/_ext/1360937237/app.o
                0x200046b8                appData

.bss.semMacInternalHandler%45
                0x2000441c        0x4
 .bss.semMacInternalHandler
                0x2000441c        0x4 build/default/debug/_ext/1655452824/mac_task.o

.bss.xActivatedMember%46
                0x20004564        0x4
 .bss.xActivatedMember
                0x20004564        0x4 build/default/debug/_ext/1655452824/mac_task.o

.bss.xQueueSet%47
                0x2000460c        0x4
 .bss.xQueueSet
                0x2000460c        0x4 build/default/debug/_ext/1655452824/mac_task.o

.bss.macConfBufPtr%48
                0x200046c0        0x4
 .bss.macConfBufPtr
                0x200046c0        0x4 build/default/debug/_ext/1655452824/mac.o
                0x200046c0                macConfBufPtr

.bss.macFrameInfo%49
                0x200046c4        0x4
 .bss.macFrameInfo
                0x200046c4        0x4 build/default/debug/_ext/1655452824/mac.o
                0x200046c4                macFrameInfo

.bss.macScanCmdBufPtr%50
                0x200046c8        0x4
 .bss.macScanCmdBufPtr
                0x200046c8        0x4 build/default/debug/_ext/1655452824/mac.o
                0x200046c8                macScanCmdBufPtr

.bss.scanChannels%51
                0x200046cc        0x4
 .bss.scanChannels
                0x200046cc        0x4 build/default/debug/_ext/1655452824/mac_scan.o

.bss.mac_frame_ptr%52
                0x200046d0        0x4
 .bss.mac_frame_ptr
                0x200046d0        0x4 build/default/debug/_ext/559172130/phy.o
                0x200046d0                mac_frame_ptr

.bss.tal_frame_to_tx%53
                0x200046d4        0x4
 .bss.tal_frame_to_tx
                0x200046d4        0x4 build/default/debug/_ext/559172130/phy.o
                0x200046d4                tal_frame_to_tx

.bss.tal_rx_buffer%54
                0x200046d8        0x4
 .bss.tal_rx_buffer
                0x200046d8        0x4 build/default/debug/_ext/559172130/phy.o
                0x200046d8                tal_rx_buffer

.bss.sampler_counter%55
                0x200046dc        0x4
 .bss.sampler_counter
                0x200046dc        0x4 build/default/debug/_ext/559172130/phy_ed.o

.bss.consolePrintBufferMutex%56
                0x200046e0        0x4
 .bss.consolePrintBufferMutex
                0x200046e0        0x4 build/default/debug/_ext/1832805299/sys_console.o

.bss.semPhyInternalHandler%57
                0x200046e4        0x4
 .bss.semPhyInternalHandler
                0x200046e4        0x4 build/default/debug/_ext/1171490990/initialization.o
                0x200046e4                semPhyInternalHandler

.bss.semTalInternalHandler%58
                0x200046e8        0x4
 .bss.semTalInternalHandler
                0x200046e8        0x4 build/default/debug/_ext/1171490990/initialization.o
                0x200046e8                semTalInternalHandler

.bss.xAPP_Tasks%59
                0x200046ec        0x4
 .bss.xAPP_Tasks
                0x200046ec        0x4 build/default/debug/_ext/1171490990/tasks.o
                0x200046ec                xAPP_Tasks

.bss.xTAL_Tasks%60
                0x200046f0        0x4
 .bss.xTAL_Tasks
                0x200046f0        0x4 build/default/debug/_ext/1171490990/tasks.o
                0x200046f0                xTAL_Tasks

.bss.xWPAN_Tasks%61
                0x200046f4        0x4
 .bss.xWPAN_Tasks
                0x200046f4        0x4 build/default/debug/_ext/1171490990/tasks.o
                0x200046f4                xWPAN_Tasks

.bss.pxEnd%62   0x200046f8        0x4
 .bss.pxEnd     0x200046f8        0x4 build/default/debug/_ext/1665200909/heap_4.o

.bss.xBlockAllocatedBit%63
                0x200046fc        0x4
 .bss.xBlockAllocatedBit
                0x200046fc        0x4 build/default/debug/_ext/1665200909/heap_4.o

.bss.xFreeBytesRemaining%64
                0x20004700        0x4
 .bss.xFreeBytesRemaining
                0x20004700        0x4 build/default/debug/_ext/1665200909/heap_4.o

.bss.xMinimumEverFreeBytesRemaining%65
                0x20004704        0x4
 .bss.xMinimumEverFreeBytesRemaining
                0x20004704        0x4 build/default/debug/_ext/1665200909/heap_4.o

.bss.xNumberOfSuccessfulAllocations%66
                0x20004708        0x4
 .bss.xNumberOfSuccessfulAllocations
                0x20004708        0x4 build/default/debug/_ext/1665200909/heap_4.o

.bss.xNumberOfSuccessfulFrees%67
                0x2000470c        0x4
 .bss.xNumberOfSuccessfulFrees
                0x2000470c        0x4 build/default/debug/_ext/1665200909/heap_4.o

.bss.pxCurrentTCB%68
                0x20004710        0x4
 .bss.pxCurrentTCB
                0x20004710        0x4 build/default/debug/_ext/404212886/FreeRTOS_tasks.o
                0x20004710                pxCurrentTCB

.bss.pxDelayedTaskList%69
                0x20004714        0x4
 .bss.pxDelayedTaskList
                0x20004714        0x4 build/default/debug/_ext/404212886/FreeRTOS_tasks.o

.bss.pxOverflowDelayedTaskList%70
                0x20004718        0x4
 .bss.pxOverflowDelayedTaskList
                0x20004718        0x4 build/default/debug/_ext/404212886/FreeRTOS_tasks.o

.bss.uxCurrentNumberOfTasks%71
                0x2000471c        0x4
 .bss.uxCurrentNumberOfTasks
                0x2000471c        0x4 build/default/debug/_ext/404212886/FreeRTOS_tasks.o

.bss.uxDeletedTasksWaitingCleanUp%72
                0x20004720        0x4
 .bss.uxDeletedTasksWaitingCleanUp
                0x20004720        0x4 build/default/debug/_ext/404212886/FreeRTOS_tasks.o

.bss.uxSchedulerSuspended%73
                0x20004724        0x4
 .bss.uxSchedulerSuspended
                0x20004724        0x4 build/default/debug/_ext/404212886/FreeRTOS_tasks.o

.bss.uxTaskNumber%74
                0x20004728        0x4
 .bss.uxTaskNumber
                0x20004728        0x4 build/default/debug/_ext/404212886/FreeRTOS_tasks.o

.bss.uxTopReadyPriority%75
                0x2000472c        0x4
 .bss.uxTopReadyPriority
                0x2000472c        0x4 build/default/debug/_ext/404212886/FreeRTOS_tasks.o

.bss.xIdleTaskHandle%76
                0x20004730        0x4
 .bss.xIdleTaskHandle
                0x20004730        0x4 build/default/debug/_ext/404212886/FreeRTOS_tasks.o

.bss.xNextTaskUnblockTime%77
                0x20004734        0x4
 .bss.xNextTaskUnblockTime
                0x20004734        0x4 build/default/debug/_ext/404212886/FreeRTOS_tasks.o

.bss.xNumOfOverflows%78
                0x20004738        0x4
 .bss.xNumOfOverflows
                0x20004738        0x4 build/default/debug/_ext/404212886/FreeRTOS_tasks.o

.bss.xPendedTicks%79
                0x2000473c        0x4
 .bss.xPendedTicks
                0x2000473c        0x4 build/default/debug/_ext/404212886/FreeRTOS_tasks.o

.bss.xSchedulerRunning%80
                0x20004740        0x4
 .bss.xSchedulerRunning
                0x20004740        0x4 build/default/debug/_ext/404212886/FreeRTOS_tasks.o

.bss.xTickCount%81
                0x20004744        0x4
 .bss.xTickCount
                0x20004744        0x4 build/default/debug/_ext/404212886/FreeRTOS_tasks.o

.bss.xYieldPending%82
                0x20004748        0x4
 .bss.xYieldPending
                0x20004748        0x4 build/default/debug/_ext/404212886/FreeRTOS_tasks.o

.bss.pxCurrentTimerList%83
                0x2000474c        0x4
 .bss.pxCurrentTimerList
                0x2000474c        0x4 build/default/debug/_ext/404212886/timers.o

.bss.pxOverflowTimerList%84
                0x20004750        0x4
 .bss.pxOverflowTimerList
                0x20004750        0x4 build/default/debug/_ext/404212886/timers.o

.bss.xLastTime.5144%85
                0x20004754        0x4
 .bss.xLastTime.5144
                0x20004754        0x4 build/default/debug/_ext/404212886/timers.o

.bss.xTimerQueue%86
                0x20004758        0x4
 .bss.xTimerQueue
                0x20004758        0x4 build/default/debug/_ext/404212886/timers.o

.bss.xTimerTaskHandle%87
                0x2000475c        0x4
 .bss.xTimerTaskHandle
                0x2000475c        0x4 build/default/debug/_ext/404212886/timers.o

.bss.IRTx_Push_data_Timer_Handle%88
                0x20004760        0x4
 .bss.IRTx_Push_data_Timer_Handle
                0x20004760        0x4 build/default/debug/_ext/85617168/demo_app_rfd.o
                0x20004760                IRTx_Push_data_Timer_Handle

.bss.LED_Toggle_Timer_Handle%89
                0x20004764        0x4
 .bss.LED_Toggle_Timer_Handle
                0x20004764        0x4 build/default/debug/_ext/85617168/demo_app_rfd.o

.bss.Timer_Handle%90
                0x20004768        0x4
 .bss.Timer_Handle
                0x20004768        0x4 build/default/debug/_ext/85617168/demo_app_rfd.o

.bss.rx_cnt.8662%91
                0x2000476c        0x4
 .bss.rx_cnt.8662
                0x2000476c        0x4 build/default/debug/_ext/85617168/demo_app_rfd.o

.bss%92         0x20004770        0x4
 .bss           0x20004770        0x4 c:/program files/microchip/xc32/v4.35/bin/bin/../../lib/gcc/pic32c/8.3.1/../../../../pic32c/lib/thumb/v6-m/nofp\libpic32c.a(data_init.o)

.bss%93         0x20004774        0x4
 .bss           0x20004774        0x4 c:/program files/microchip/xc32/v4.35/bin/bin/../../lib/gcc/pic32c/8.3.1/../../../../pic32c/lib/thumb/v6-m/nofp\libg-musl.a(rand.o)

.bss%94         0x20004778        0x4
 .bss           0x20004778        0x4 c:/program files/microchip/xc32/v4.35/bin/bin/../../lib/gcc/pic32c/8.3.1/../../../../pic32c/lib/thumb/v6-m/nofp\libg-musl.a(__environ.o)
                0x20004778                __environ
                0x20004778                environ
                0x20004778                ___environ
                0x20004778                _environ

.bss%95         0x2000477c        0x4
 .bss           0x2000477c        0x4 c:/program files/microchip/xc32/v4.35/bin/bin/../../lib/gcc/pic32c/8.3.1/../../../../pic32c/lib/thumb/v6-m/nofp\libg-musl.a(__errno_location.o)
                0x2000477c                __errno_val

.bss.macScanOrigPanid%96
                0x2000462e        0x2
 .bss.macScanOrigPanid
                0x2000462e        0x2 build/default/debug/_ext/1655452824/mac.o
                0x2000462e                macScanOrigPanid

.bss.trx_pib_wakeup.8377%97
                0x20004529        0x1
 .bss.trx_pib_wakeup.8377
                0x20004529        0x1 build/default/debug/_ext/1655452824/mac_pib.o

.bss.macBusy%98
                0x2000452a        0x1
 .bss.macBusy   0x2000452a        0x1 build/default/debug/_ext/1655452824/mac.o
                0x2000452a                macBusy

.bss.macLastDsn%99
                0x2000452b        0x1
 .bss.macLastDsn
                0x2000452b        0x1 build/default/debug/_ext/1655452824/mac.o
                0x2000452b                macLastDsn

.bss.macPollState%100
                0x20004780        0x1
 .bss.macPollState
                0x20004780        0x1 build/default/debug/_ext/1655452824/mac.o
                0x20004780                macPollState

.bss.macRadioSleepState%101
                0x20004781        0x1
 .bss.macRadioSleepState
                0x20004781        0x1 build/default/debug/_ext/1655452824/mac.o
                0x20004781                macRadioSleepState

.bss.macRxEnabled%102
                0x20004782        0x1
 .bss.macRxEnabled
                0x20004782        0x1 build/default/debug/_ext/1655452824/mac.o
                0x20004782                macRxEnabled

.bss.macScanOrigChannel%103
                0x20004783        0x1
 .bss.macScanOrigChannel
                0x20004783        0x1 build/default/debug/_ext/1655452824/mac.o
                0x20004783                macScanOrigChannel

.bss.macScanOrigPage%104
                0x20004784        0x1
 .bss.macScanOrigPage
                0x20004784        0x1 build/default/debug/_ext/1655452824/mac.o
                0x20004784                macScanOrigPage

.bss.macScanState%105
                0x20004785        0x1
 .bss.macScanState
                0x20004785        0x1 build/default/debug/_ext/1655452824/mac.o
                0x20004785                macScanState

.bss.macState%106
                0x20004786        0x1
 .bss.macState  0x20004786        0x1 build/default/debug/_ext/1655452824/mac.o
                0x20004786                macState

.bss.macSyncState%107
                0x20004787        0x1
 .bss.macSyncState
                0x20004787        0x1 build/default/debug/_ext/1655452824/mac.o
                0x20004787                macSyncState

.bss.Timer_PollWaitTime%108
                0x20004788        0x1
 .bss.Timer_PollWaitTime
                0x20004788        0x1 build/default/debug/_ext/1655452824/mac_misc.o
                0x20004788                Timer_PollWaitTime

.bss.Timer_RxEnable%109
                0x20004789        0x1
 .bss.Timer_RxEnable
                0x20004789        0x1 build/default/debug/_ext/1655452824/mac_misc.o
                0x20004789                Timer_RxEnable

.bss.Timer_ScanDuration%110
                0x2000478a        0x1
 .bss.Timer_ScanDuration
                0x2000478a        0x1 build/default/debug/_ext/1655452824/mac_misc.o
                0x2000478a                Timer_ScanDuration

.bss.scanCurrChannel%111
                0x2000478b        0x1
 .bss.scanCurrChannel
                0x2000478b        0x1 build/default/debug/_ext/1655452824/mac_scan.o

.bss.scanCurrPage%112
                0x2000478c        0x1
 .bss.scanCurrPage
                0x2000478c        0x1 build/default/debug/_ext/1655452824/mac_scan.o

.bss.scanDuration%113
                0x2000478d        0x1
 .bss.scanDuration
                0x2000478d        0x1 build/default/debug/_ext/1655452824/mac_scan.o

.bss.scanType%114
                0x2000478e        0x1
 .bss.scanType  0x2000478e        0x1 build/default/debug/_ext/1655452824/mac_scan.o

.bss.numOfTimers%115
                0x2000478f        0x1
 .bss.numOfTimers
                0x2000478f        0x1 build/default/debug/_ext/745501718/pal.o

.bss.palTimerInitialized.8171%116
                0x20004790        0x1
 .bss.palTimerInitialized.8171
                0x20004790        0x1 build/default/debug/_ext/745501718/pal.o

.bss.TAL_RETRY_TIMER%117
                0x20004791        0x1
 .bss.TAL_RETRY_TIMER
                0x20004791        0x1 build/default/debug/_ext/559172130/phy_init.o
                0x20004791                TAL_RETRY_TIMER

.bss.tal_sw_retry_count%118
                0x20004792        0x1
 .bss.tal_sw_retry_count
                0x20004792        0x1 build/default/debug/_ext/559172130/phy_tx.o

.bss.tal_sw_retry_no_csma_ca%119
                0x20004793        0x1
 .bss.tal_sw_retry_no_csma_ca
                0x20004793        0x1 build/default/debug/_ext/559172130/phy_tx.o

.bss.trx_trac_status%120
                0x20004794        0x1
 .bss.trx_trac_status
                0x20004794        0x1 build/default/debug/_ext/559172130/phy_tx.o

.bss.max_ed_level%121
                0x20004795        0x1
 .bss.max_ed_level
                0x20004795        0x1 build/default/debug/_ext/559172130/phy_ed.o

.bss.isLastByteTransferInProgress.5571%122
                0x20004796        0x1
 .bss.isLastByteTransferInProgress.5571
                0x20004796        0x1 build/default/debug/_ext/17022449/plib_sercom4_spi_master.o

.bss.isConsoleMutexCreated%123
                0x20004797        0x1
 .bss.isConsoleMutexCreated
                0x20004797        0x1 build/default/debug/_ext/1832805299/sys_console.o

.bss.curr_msdu_handle%124
                0x20004798        0x1
 .bss.curr_msdu_handle
                0x20004798        0x1 build/default/debug/_ext/85617168/demo_app_rfd.o

.bss.current_channel%125
                0x20004799        0x1
 .bss.current_channel
                0x20004799        0x1 build/default/debug/_ext/85617168/demo_app_rfd.o
                0x20004799                current_channel

.bss.current_channel_page%126
                0x2000479a        0x1
 .bss.current_channel_page
                0x2000479a        0x1 build/default/debug/_ext/85617168/demo_app_rfd.o
                0x2000479a                current_channel_page

.bss.device_state%127
                0x2000479b        0x1
 .bss.device_state
                0x2000479b        0x1 build/default/debug/_ext/85617168/demo_app_rfd.o
                0x2000479b                device_state

.bss.msdu_handle.8661%128
                0x2000479c        0x1
 .bss.msdu_handle.8661
                0x2000479c        0x1 build/default/debug/_ext/85617168/demo_app_rfd.o

.data.uxCriticalNesting%129
                0x200047a0        0x4
 .data.uxCriticalNesting
                0x200047a0        0x4 build/default/debug/_ext/1624415188/port.o

.data.gSysTimeTokenCount%130
                0x2000479e        0x2
 .data.gSysTimeTokenCount
                0x2000479e        0x2 build/default/debug/_ext/101884895/sys_time.o

.eh_frame%z1    0x00000000        0x0
 .eh_frame      0x00000000        0x0 c:/program files/microchip/xc32/v4.35/bin/bin/../../lib/gcc/pic32c/8.3.1/thumb/v6-m/nofp/crtbegin.o

.config_00804000.__config_00804000%131
                0x00804000        0x4
 .config_00804000.__config_00804000
                0x00804000        0x4 build/default/debug/_ext/1171490990/initialization.o
                0x00804000                __config_00804000

.config_00804004.__config_00804004%132
                0x00804004        0x4
 .config_00804004.__config_00804004
                0x00804004        0x4 build/default/debug/_ext/1171490990/initialization.o
                0x00804004                __config_00804004

.text.__fmt_fp%133
                0x000000d4      0x4bc
 .text.__fmt_fp
                0x000000d4      0x4bc c:/program files/microchip/xc32/v4.35/bin/bin/../../lib/gcc/pic32c/8.3.1/../../../../pic32c/lib/thumb/v6-m/nofp\libg-musl.a(__fmt_fp.o)
                0x000000d4                __fmt_f_needed
                0x000000d4                __fmt_fp

.text.__fmt_a%134
                0x00000590      0x488
 .text.__fmt_a  0x00000590      0x488 c:/program files/microchip/xc32/v4.35/bin/bin/../../lib/gcc/pic32c/8.3.1/../../../../pic32c/lib/thumb/v6-m/nofp\libg-musl.a(__fmt_a.o)
                0x00000590                __fmt_a_needed
                0x00000590                __fmt_a

.rodata.MAC_MLME_Get%135
                0x00000a18      0x3c4
 .rodata.MAC_MLME_Get
                0x00000a18      0x3c4 build/default/debug/_ext/1655452824/mac_pib.o

.dinit%136      0x00000ddc      0x3c0
 .dinit         0x00000ddc      0x3c0 data_init

.text.__printf_core%137
                0x0000119c      0x340
 .text.__printf_core
                0x0000119c      0x340 c:/program files/microchip/xc32/v4.35/bin/bin/../../lib/gcc/pic32c/8.3.1/../../../../pic32c/lib/thumb/v6-m/nofp\libg-musl.a(__printf_core.o)
                0x0000119c                __printf_core

.text.MAC_ProcessPhyDataInd%138
                0x000014dc      0x334
 .text.MAC_ProcessPhyDataInd
                0x000014dc      0x334 build/default/debug/_ext/1655452824/mac_data_ind.o
                0x000014dc                MAC_ProcessPhyDataInd

.text.MAC_MCPS_DataRequest%139
                0x00001810      0x278
 .text.MAC_MCPS_DataRequest
                0x00001810      0x278 build/default/debug/_ext/1655452824/mac_mcps_data.o
                0x00001810                MAC_MCPS_DataRequest

.text.MAC_BuildAndTxDataReq%140
                0x00001a88      0x230
 .text.MAC_BuildAndTxDataReq
                0x00001a88      0x230 build/default/debug/_ext/1655452824/mac_data_req.o
                0x00001a88                MAC_BuildAndTxDataReq

.text.PHY_PibSet%141
                0x00001cb8      0x210
 .text.PHY_PibSet
                0x00001cb8      0x210 build/default/debug/_ext/559172130/phy_pib.o
                0x00001cb8                PHY_PibSet

.text.set_trx_state%142
                0x00001ec8      0x208
 .text.set_trx_state
                0x00001ec8      0x208 build/default/debug/_ext/559172130/phy.o
                0x00001ec8                set_trx_state

.text.xTaskCreate%143
                0x000020d0      0x1d8
 .text.xTaskCreate
                0x000020d0      0x1d8 build/default/debug/_ext/404212886/FreeRTOS_tasks.o
                0x000020d0                xTaskCreate

.text.ScanProceed%144
                0x000022a8      0x1d4
 .text.ScanProceed
                0x000022a8      0x1d4 build/default/debug/_ext/1655452824/mac_scan.o

.text.MAC_MLME_ScanRequest%145
                0x0000247c      0x1d4
 .text.MAC_MLME_ScanRequest
                0x0000247c      0x1d4 build/default/debug/_ext/1655452824/mac_scan.o
                0x0000247c                MAC_MLME_ScanRequest

.text.MAC_ProcessBeaconFrame%146
                0x00002650      0x1cc
 .text.MAC_ProcessBeaconFrame
                0x00002650      0x1cc build/default/debug/_ext/1655452824/mac_process_beacon_frame.o
                0x00002650                MAC_ProcessBeaconFrame

.text.__aeabi_dadd%147
                0x0000281c      0x1c8
 .text.__aeabi_dadd
                0x0000281c      0x1c8 c:/program files/microchip/xc32/v4.35/bin/bin/../../lib/gcc/pic32c/8.3.1/../../../../pic32c/lib/thumb/v6-m/nofp\libm-fast-emfloat.a(__aeabi_dadd.o)
                0x0000281c                __aeabi_dadd
                0x00002822                .L__aeabi_dadd_fast_entry

.text.MAC_MLME_Set%148
                0x000029e4      0x1bc
 .text.MAC_MLME_Set
                0x000029e4      0x1bc build/default/debug/_ext/1655452824/mac_pib.o
                0x000029e4                MAC_MLME_Set

.text.MAC_MLME_Get%149
                0x00002ba0      0x1bc
 .text.MAC_MLME_Get
                0x00002ba0      0x1bc build/default/debug/_ext/1655452824/mac_pib.o
                0x00002ba0                MAC_MLME_Get

.text.PHY_TxDoneCallback%150
                0x00002d5c      0x1ac
 .text.PHY_TxDoneCallback
                0x00002d5c      0x1ac build/default/debug/_ext/1655452824/mac_process_phy_tx_frame_status.o
                0x00002d5c                PHY_TxDoneCallback

.text.prvTimerTask%151
                0x00002f08      0x19c
 .text.prvTimerTask
                0x00002f08      0x19c build/default/debug/_ext/404212886/timers.o

.text.MAC_MLME_AssociateRequest%152
                0x000030a4      0x18c
 .text.MAC_MLME_AssociateRequest
                0x000030a4      0x18c build/default/debug/_ext/1655452824/mac_associate.o
                0x000030a4                MAC_MLME_AssociateRequest

.text.__aeabi_dmul_aux%153
                0x00003230      0x18a
 .text.__aeabi_dmul_aux
                0x00003230      0x18a c:/program files/microchip/xc32/v4.35/bin/bin/../../lib/gcc/pic32c/8.3.1/../../../../pic32c/lib/thumb/v6-m/nofp\libm-fast-emfloat.a(__aeabi_dmul_aux.o)
                0x00003230                __aeabi_dmul_aux
                0x00003268                __aeabi_dmul

.rodata%154     0x000033bc      0x188
 .rodata        0x000033bc      0x188 build/default/debug/_ext/85617168/demo_app_rfd.o

.text.SERCOM4_SPI_WriteRead%155
                0x00003544      0x178
 .text.SERCOM4_SPI_WriteRead
                0x00003544      0x178 build/default/debug/_ext/17022449/plib_sercom4_spi_master.o
                0x00003544                SERCOM4_SPI_WriteRead

.text.MAC_ProcessDataFrame%156
                0x000036bc      0x15c
 .text.MAC_ProcessDataFrame
                0x000036bc      0x15c build/default/debug/_ext/1655452824/mac_mcps_data.o
                0x000036bc                MAC_ProcessDataFrame

.text.PHY_Init%157
                0x00003818      0x15c
 .text.PHY_Init
                0x00003818      0x15c build/default/debug/_ext/559172130/phy_init.o
                0x00003818                PHY_Init

.text.SERCOM4_SPI_InterruptHandler%158
                0x00003974      0x154
 .text.SERCOM4_SPI_InterruptHandler
                0x00003974      0x154 build/default/debug/_ext/17022449/plib_sercom4_spi_master.o
                0x00003974                SERCOM4_SPI_InterruptHandler

.text.MAC_MLME_DisassociateRequest%159
                0x00003ac8      0x138
 .text.MAC_MLME_DisassociateRequest
                0x00003ac8      0x138 build/default/debug/_ext/1655452824/mac_disassociate.o
                0x00003ac8                MAC_MLME_DisassociateRequest

.text.xQueueGenericSend%160
                0x00003c00      0x138
 .text.xQueueGenericSend
                0x00003c00      0x138 build/default/debug/_ext/404212886/queue.o
                0x00003c00                xQueueGenericSend

.text.xQueueSemaphoreTake%161
                0x00003d38      0x136
 .text.xQueueSemaphoreTake
                0x00003d38      0x136 build/default/debug/_ext/404212886/queue.o
                0x00003d38                xQueueSemaphoreTake

.text.xTaskIncrementTick%162
                0x00003e70      0x134
 .text.xTaskIncrementTick
                0x00003e70      0x134 build/default/debug/_ext/404212886/FreeRTOS_tasks.o
                0x00003e70                xTaskIncrementTick

.text.__fmt_x%163
                0x00003fa4      0x132
 .text.__fmt_x  0x00003fa4      0x132 c:/program files/microchip/xc32/v4.35/bin/bin/../../lib/gcc/pic32c/8.3.1/../../../../pic32c/lib/thumb/v6-m/nofp\libg-musl.a(__fmt_x.o)
                0x00003fa4                __fmt_x_needed
                0x00003fa4                __fmt_x

.text.pvPortMalloc%164
                0x000040d8      0x128
 .text.pvPortMalloc
                0x000040d8      0x128 build/default/debug/_ext/1665200909/heap_4.o
                0x000040d8                pvPortMalloc

.text.PHY_PibGet%165
                0x00004200      0x11c
 .text.PHY_PibGet
                0x00004200      0x11c build/default/debug/_ext/559172130/phy_pib.o
                0x00004200                PHY_PibGet

.text.CheckForPanIdConflictNonPc%166
                0x0000431c      0x118
 .text.CheckForPanIdConflictNonPc
                0x0000431c      0x118 build/default/debug/_ext/1655452824/mac_data_ind.o

.text.SYS_Initialize%167
                0x00004434      0x110
 .text.SYS_Initialize
                0x00004434      0x110 build/default/debug/_ext/1171490990/initialization.o
                0x00004434                SYS_Initialize

.text.Handle_BeaconNotifyInd%168
                0x00004544      0x110
 .text.Handle_BeaconNotifyInd
                0x00004544      0x110 build/default/debug/_ext/85617168/demo_app_rfd.o
                0x00004544                Handle_BeaconNotifyInd

.text.SERCOM0_USART_Write%169
                0x00004654      0x104
 .text.SERCOM0_USART_Write
                0x00004654      0x104 build/default/debug/_ext/504274921/plib_sercom0_usart.o
                0x00004654                SERCOM0_USART_Write

.text.xQueueReceive%170
                0x00004758       0xf8
 .text.xQueueReceive
                0x00004758       0xf8 build/default/debug/_ext/404212886/queue.o
                0x00004758                xQueueReceive

.text.MAC_ExtractMhrAddrInfo%171
                0x00004850       0xec
 .text.MAC_ExtractMhrAddrInfo
                0x00004850       0xec build/default/debug/_ext/1655452824/mac_data_extract_mhr.o
                0x00004850                MAC_ExtractMhrAddrInfo

.text.SERCOM0_USART_ISR_RX_Handler%172
                0x0000493c       0xec
 .text.SERCOM0_USART_ISR_RX_Handler
                0x0000493c       0xec build/default/debug/_ext/504274921/plib_sercom0_usart.o

.text.ScanSetComplete%173
                0x00004a28       0xe8
 .text.ScanSetComplete
                0x00004a28       0xe8 build/default/debug/_ext/1655452824/mac_scan.o

.text.SYS_TIME_PLIBCallback%174
                0x00004b10       0xe8
 .text.SYS_TIME_PLIBCallback
                0x00004b10       0xe8 build/default/debug/_ext/101884895/sys_time.o

.text.xTaskResumeAll%175
                0x00004bf8       0xe8
 .text.xTaskResumeAll
                0x00004bf8       0xe8 build/default/debug/_ext/404212886/FreeRTOS_tasks.o
                0x00004bf8                xTaskResumeAll

.text%176       0x00004ce0       0xe2
 .text          0x00004ce0       0xe2 c:/program files/microchip/xc32/v4.35/bin/bin/../../lib/gcc/pic32c/8.3.1/thumb/v6-m/nofp\libgcc.a(_udivmoddi4.o)
                0x00004ce0                __udivmoddi4

.text.SERCOM0_USART_ISR_TX_Handler%177
                0x00004dc4       0xe0
 .text.SERCOM0_USART_ISR_TX_Handler
                0x00004dc4       0xe0 build/default/debug/_ext/504274921/plib_sercom0_usart.o

.text.Handle_ScanConf%178
                0x00004ea4       0xe0
 .text.Handle_ScanConf
                0x00004ea4       0xe0 build/default/debug/_ext/85617168/demo_app_rfd.o
                0x00004ea4                Handle_ScanConf

.text.SYS_TIME_AddToList%179
                0x00004f84       0xdc
 .text.SYS_TIME_AddToList
                0x00004f84       0xdc build/default/debug/_ext/101884895/sys_time.o

.text.send_frame%180
                0x00005060       0xd8
 .text.send_frame
                0x00005060       0xd8 build/default/debug/_ext/559172130/phy_tx.o
                0x00005060                send_frame

.text.SYS_TIME_Initialize%181
                0x00005138       0xc4
 .text.SYS_TIME_Initialize
                0x00005138       0xc4 build/default/debug/_ext/101884895/sys_time.o
                0x00005138                SYS_TIME_Initialize

.text.vTaskSwitchContext%182
                0x000051fc       0xc4
 .text.vTaskSwitchContext
                0x000051fc       0xc4 build/default/debug/_ext/404212886/FreeRTOS_tasks.o
                0x000051fc                vTaskSwitchContext

.text.Handle_GetConf%183
                0x000052c0       0xc4
 .text.Handle_GetConf
                0x000052c0       0xc4 build/default/debug/_ext/85617168/demo_app_rfd.o
                0x000052c0                Handle_GetConf

.text.__aeabi_ddiv%184
                0x00005384       0xc4
 .text.__aeabi_ddiv
                0x00005384       0xc4 c:/program files/microchip/xc32/v4.35/bin/bin/../../lib/gcc/pic32c/8.3.1/../../../../pic32c/lib/thumb/v6-m/nofp\libm-fast-emfloat.a(__aeabi_ddiv.o)
                0x00005384                __aeabi_ddiv

.text.SYS_TIME_TimerObjectCreate%185
                0x00005448       0xc0
 .text.SYS_TIME_TimerObjectCreate
                0x00005448       0xc0 build/default/debug/_ext/101884895/sys_time.o

.text.__pop_int%186
                0x00005508       0xbe
 .text.__pop_int
                0x00005508       0xbe c:/program files/microchip/xc32/v4.35/bin/bin/../../lib/gcc/pic32c/8.3.1/../../../../pic32c/lib/thumb/v6-m/nofp\libg-musl.a(__pop_int.o)
                0x00005508                __pop_int_needed
                0x00005508                __pop_int

.text.SYS_TIME_HwTimerCompareUpdate%187
                0x000055c8       0xbc
 .text.SYS_TIME_HwTimerCompareUpdate
                0x000055c8       0xbc build/default/debug/_ext/101884895/sys_time.o

.text.Handle_AssociateConf%188
                0x00005684       0xb8
 .text.Handle_AssociateConf
                0x00005684       0xb8 build/default/debug/_ext/85617168/demo_app_rfd.o
                0x00005684                Handle_AssociateConf

.text.SendScanCmd%189
                0x0000573c       0xb4
 .text.SendScanCmd
                0x0000573c       0xb4 build/default/debug/_ext/1655452824/mac_scan.o

.text.MAC_ProcessOrphanRealign%190
                0x000057f0       0xb4
 .text.MAC_ProcessOrphanRealign
                0x000057f0       0xb4 build/default/debug/_ext/1655452824/mac_scan.o
                0x000057f0                MAC_ProcessOrphanRealign

.rodata.set_trx_state%191
                0x000058a4       0xb4
 .rodata.set_trx_state
                0x000058a4       0xb4 build/default/debug/_ext/559172130/phy.o

.text.floor%192
                0x00005958       0xb4
 .text.floor    0x00005958       0xb4 c:/program files/microchip/xc32/v4.35/bin/bin/../../lib/gcc/pic32c/8.3.1/../../../../pic32c/lib/thumb/v6-m/nofp\libm-fast-emfloat.a(floor.o)
                0x00005958                floor

.text.__fmt_d%193
                0x00005a0c       0xb2
 .text.__fmt_d  0x00005a0c       0xb2 c:/program files/microchip/xc32/v4.35/bin/bin/../../lib/gcc/pic32c/8.3.1/../../../../pic32c/lib/thumb/v6-m/nofp\libg-musl.a(__fmt_d.o)
                0x00005a0c                __fmt_d
                0x00005a0c                __fmt_d_needed

.text.MAC_SyncLoss%194
                0x00005ac0       0xb0
 .text.MAC_SyncLoss
                0x00005ac0       0xb0 build/default/debug/_ext/1655452824/mac_sync.o
                0x00005ac0                MAC_SyncLoss

.text.MAC_MLME_RxEnableRequest%195
                0x00005b70       0xb0
 .text.MAC_MLME_RxEnableRequest
                0x00005b70       0xb0 build/default/debug/_ext/1655452824/mac_rx_enable.o
                0x00005b70                MAC_MLME_RxEnableRequest

.text.prvSampleTimeNow%196
                0x00005c20       0xb0
 .text.prvSampleTimeNow
                0x00005c20       0xb0 build/default/debug/_ext/404212886/timers.o

.text.MAC_SoftReset%197
                0x00005cd0       0xac
 .text.MAC_SoftReset
                0x00005cd0       0xac build/default/debug/_ext/1655452824/mac_misc.o

.text%198       0x00005d7c       0xa8
 .text          0x00005d7c       0xa8 c:/program files/microchip/xc32/v4.35/bin/bin/../../lib/gcc/pic32c/8.3.1/thumb/v6-m/nofp\libgcc.a(_divsi3.o)
                0x00005d7c                __divsi3
                0x00005d7c                __aeabi_idiv
                0x00005e10                __aeabi_idivmod

.text.CLOCK_Initialize%199
                0x00005e24       0xa4
 .text.CLOCK_Initialize
                0x00005e24       0xa4 build/default/debug/_ext/1984496892/plib_clock.o
                0x00005e24                CLOCK_Initialize

.text.switch_pll_on%200
                0x00005ec8       0xa0
 .text.switch_pll_on
                0x00005ec8       0xa0 build/default/debug/_ext/559172130/phy.o

.text.bmm_buffer_init%201
                0x00005f68       0xa0
 .text.bmm_buffer_init
                0x00005f68       0xa0 build/default/debug/_ext/1374435801/bmm.o
                0x00005f68                bmm_buffer_init

.text.xQueueGenericSendFromISR%202
                0x00006008       0x9e
 .text.xQueueGenericSendFromISR
                0x00006008       0x9e build/default/debug/_ext/404212886/queue.o
                0x00006008                xQueueGenericSendFromISR

.text.MAC_ProcessAssociateResponse%203
                0x000060a8       0x9c
 .text.MAC_ProcessAssociateResponse
                0x000060a8       0x9c build/default/debug/_ext/1655452824/mac_associate.o
                0x000060a8                MAC_ProcessAssociateResponse

.text.prvUnlockQueue%204
                0x00006144       0x98
 .text.prvUnlockQueue
                0x00006144       0x98 build/default/debug/_ext/404212886/queue.o

.text.MAC_ScanSendComplete%205
                0x000061dc       0x94
 .text.MAC_ScanSendComplete
                0x000061dc       0x94 build/default/debug/_ext/1655452824/mac_scan.o
                0x000061dc                MAC_ScanSendComplete

.text.SERCOM0_USART_Read%206
                0x00006270       0x94
 .text.SERCOM0_USART_Read
                0x00006270       0x94 build/default/debug/_ext/504274921/plib_sercom0_usart.o
                0x00006270                SERCOM0_USART_Read

.rodata.dispatch_Table%207
                0x00006304       0x90
 .rodata.dispatch_Table
                0x00006304       0x90 build/default/debug/_ext/1655452824/mac_dispatcher.o

.text.WPAN_MCPS_Datareq%208
                0x00006394       0x90
 .text.WPAN_MCPS_Datareq
                0x00006394       0x90 build/default/debug/_ext/1655452824/mac_api.o
                0x00006394                WPAN_MCPS_Datareq

.text.write_all_tal_pib_to_trx%209
                0x00006424       0x90
 .text.write_all_tal_pib_to_trx
                0x00006424       0x90 build/default/debug/_ext/559172130/phy_pib.o
                0x00006424                write_all_tal_pib_to_trx

.text.xTaskPriorityInherit%210
                0x000064b4       0x90
 .text.xTaskPriorityInherit
                0x000064b4       0x90 build/default/debug/_ext/404212886/FreeRTOS_tasks.o
                0x000064b4                xTaskPriorityInherit

.text.handle_tx_end_irq%211
                0x00006544       0x8c
 .text.handle_tx_end_irq
                0x00006544       0x8c build/default/debug/_ext/559172130/phy_tx.o
                0x00006544                handle_tx_end_irq

.text%212       0x000065d0       0x8c
 .text          0x000065d0       0x8c c:/program files/microchip/xc32/v4.35/bin/bin/../../lib/gcc/pic32c/8.3.1/thumb/v6-m/nofp\libgcc.a(_udivsi3.o)
                0x000065d0                __aeabi_uidiv
                0x000065d0                __udivsi3
                0x00006648                __aeabi_uidivmod

.text.internal_tal_reset%213
                0x0000665c       0x88
 .text.internal_tal_reset
                0x0000665c       0x88 build/default/debug/_ext/559172130/phy_init.o

.text.SERCOM0_USART_Initialize%214
                0x000066e4       0x88
 .text.SERCOM0_USART_Initialize
                0x000066e4       0x88 build/default/debug/_ext/504274921/plib_sercom0_usart.o
                0x000066e4                SERCOM0_USART_Initialize

.text.prvAddCurrentTaskToDelayedList%215
                0x0000676c       0x84
 .text.prvAddCurrentTaskToDelayedList
                0x0000676c       0x84 build/default/debug/_ext/404212886/FreeRTOS_tasks.o

.text.PAL_TimerStart%216
                0x000067f0       0x80
 .text.PAL_TimerStart
                0x000067f0       0x80 build/default/debug/_ext/745501718/pal.o
                0x000067f0                PAL_TimerStart

.text.tal_generate_rand_seed%217
                0x00006870       0x80
 .text.tal_generate_rand_seed
                0x00006870       0x80 build/default/debug/_ext/559172130/phy_init.o
                0x00006870                tal_generate_rand_seed

.text.PHY_TaskHandler%218
                0x000068f0       0x80
 .text.PHY_TaskHandler
                0x000068f0       0x80 build/default/debug/_ext/559172130/phy.o
                0x000068f0                PHY_TaskHandler

.text.WPAN_Tasks%219
                0x00006970       0x7c
 .text.WPAN_Tasks
                0x00006970       0x7c build/default/debug/_ext/1655452824/mac_task.o
                0x00006970                WPAN_Tasks

.text.handle_received_frame_irq%220
                0x000069ec       0x7c
 .text.handle_received_frame_irq
                0x000069ec       0x7c build/default/debug/_ext/559172130/phy_rx.o
                0x000069ec                handle_received_frame_irq

.text.EIC_Initialize%221
                0x00006a68       0x7c
 .text.EIC_Initialize
                0x00006a68       0x7c build/default/debug/_ext/60167341/plib_eic.o
                0x00006a68                EIC_Initialize

.text.xQueueGiveFromISR%222
                0x00006ae4       0x7a
 .text.xQueueGiveFromISR
                0x00006ae4       0x7a build/default/debug/_ext/404212886/queue.o
                0x00006ae4                xQueueGiveFromISR

.text.__pad%223
                0x00006b5e       0x7a
 .text.__pad    0x00006b5e       0x7a c:/program files/microchip/xc32/v4.35/bin/bin/../../lib/gcc/pic32c/8.3.1/../../../../pic32c/lib/thumb/v6-m/nofp\libg-musl.a(__printf_core.o)
                0x00006b5e                __pad

.text.xTaskRemoveFromEventList%224
                0x00006bd8       0x78
 .text.xTaskRemoveFromEventList
                0x00006bd8       0x78 build/default/debug/_ext/404212886/FreeRTOS_tasks.o
                0x00006bd8                xTaskRemoveFromEventList

.text.prvCopyDataToQueue%225
                0x00006c50       0x76
 .text.prvCopyDataToQueue
                0x00006c50       0x76 build/default/debug/_ext/404212886/queue.o

.text.__cvt_u%226
                0x00006cc6       0x76
 .text.__cvt_u  0x00006cc6       0x76 c:/program files/microchip/xc32/v4.35/bin/bin/../../lib/gcc/pic32c/8.3.1/../../../../pic32c/lib/thumb/v6-m/nofp\libg-musl.a(__cvt_u.o)
                0x00006cc6                __cvt_u

.text.xTaskCheckForTimeOut%227
                0x00006d3c       0x74
 .text.xTaskCheckForTimeOut
                0x00006d3c       0x74 build/default/debug/_ext/404212886/FreeRTOS_tasks.o
                0x00006d3c                xTaskCheckForTimeOut

.text.NVIC_Initialize%228
                0x00006db0       0x70
 .text.NVIC_Initialize
                0x00006db0       0x70 build/default/debug/_ext/1865468468/plib_nvic.o
                0x00006db0                NVIC_Initialize

.text.PORT_Initialize%229
                0x00006e20       0x70
 .text.PORT_Initialize
                0x00006e20       0x70 build/default/debug/_ext/1865521619/plib_port.o
                0x00006e20                PORT_Initialize

.text.SYS_CONSOLE_Initialize%230
                0x00006e90       0x70
 .text.SYS_CONSOLE_Initialize
                0x00006e90       0x70 build/default/debug/_ext/1832805299/sys_console.o
                0x00006e90                SYS_CONSOLE_Initialize

.text.SYS_CONSOLE_Print%231
                0x00006f00       0x70
 .text.SYS_CONSOLE_Print
                0x00006f00       0x70 build/default/debug/_ext/1832805299/sys_console.o
                0x00006f00                SYS_CONSOLE_Print

.text.SYS_Tasks%232
                0x00006f70       0x70
 .text.SYS_Tasks
                0x00006f70       0x70 build/default/debug/_ext/1171490990/tasks.o
                0x00006f70                SYS_Tasks

.text.__fmt_o%233
                0x00006fe0       0x6e
 .text.__fmt_o  0x00006fe0       0x6e c:/program files/microchip/xc32/v4.35/bin/bin/../../lib/gcc/pic32c/8.3.1/../../../../pic32c/lib/thumb/v6-m/nofp\libg-musl.a(__fmt_o.o)
                0x00006fe0                __fmt_o
                0x00006fe0                __fmt_o_needed

.text.MAC_ProcessCoordRealign%234
                0x00007050       0x6c
 .text.MAC_ProcessCoordRealign
                0x00007050       0x6c build/default/debug/_ext/1655452824/mac_sync.o
                0x00007050                MAC_ProcessCoordRealign

.text.trx_config%235
                0x000070bc       0x6c
 .text.trx_config
                0x000070bc       0x6c build/default/debug/_ext/559172130/phy_init.o
                0x000070bc                trx_config

.text.trx_reg_read%236
                0x00007128       0x6c
 .text.trx_reg_read
                0x00007128       0x6c build/default/debug/_ext/559172130/phy_trx_reg_access.o
                0x00007128                trx_reg_read

.text.prvIdleTask%237
                0x00007194       0x6c
 .text.prvIdleTask
                0x00007194       0x6c build/default/debug/_ext/404212886/FreeRTOS_tasks.o

.text.vTaskPriorityDisinheritAfterTimeout%238
                0x00007200       0x6c
 .text.vTaskPriorityDisinheritAfterTimeout
                0x00007200       0x6c build/default/debug/_ext/404212886/FreeRTOS_tasks.o
                0x00007200                vTaskPriorityDisinheritAfterTimeout

.text.qmm_queue_remove%239
                0x0000726c       0x6a
 .text.qmm_queue_remove
                0x0000726c       0x6a build/default/debug/_ext/874725666/qmm.o
                0x0000726c                qmm_queue_remove

.text.MAC_MLME_PollRequest%240
                0x000072d8       0x68
 .text.MAC_MLME_PollRequest
                0x000072d8       0x68 build/default/debug/_ext/1655452824/mac_poll.o
                0x000072d8                MAC_MLME_PollRequest

.text.trx_reg_write%241
                0x00007340       0x68
 .text.trx_reg_write
                0x00007340       0x68 build/default/debug/_ext/559172130/phy_trx_reg_access.o
                0x00007340                trx_reg_write

.text.__pop_ptr%242
                0x000073a8       0x68
 .text.__pop_ptr
                0x000073a8       0x68 c:/program files/microchip/xc32/v4.35/bin/bin/../../lib/gcc/pic32c/8.3.1/../../../../pic32c/lib/thumb/v6-m/nofp\libg-musl.a(__pop_ptr.o)
                0x000073a8                __pop_ptr
                0x000073a8                __pop_ptr_needed

.text.MAC_ProcessDataResponse%243
                0x00007410       0x64
 .text.MAC_ProcessDataResponse
                0x00007410       0x64 build/default/debug/_ext/1655452824/mac_poll.o
                0x00007410                MAC_ProcessDataResponse

.text.MAC_RFDDemoInit%244
                0x00007474       0x64
 .text.MAC_RFDDemoInit
                0x00007474       0x64 build/default/debug/_ext/85617168/demo_app_rfd.o
                0x00007474                MAC_RFDDemoInit

.text.xQueueGenericReset%245
                0x000074d8       0x62
 .text.xQueueGenericReset
                0x000074d8       0x62 build/default/debug/_ext/404212886/queue.o
                0x000074d8                xQueueGenericReset

.text.MAC_Timer_ResponseWaitCb%246
                0x0000753c       0x60
 .text.MAC_Timer_ResponseWaitCb
                0x0000753c       0x60 build/default/debug/_ext/1655452824/mac_associate.o
                0x0000753c                MAC_Timer_ResponseWaitCb

.text.PHY_Reset%247
                0x0000759c       0x60
 .text.PHY_Reset
                0x0000759c       0x60 build/default/debug/_ext/559172130/phy_init.o
                0x0000759c                PHY_Reset

.text.trx_frame_write%248
                0x000075fc       0x60
 .text.trx_frame_write
                0x000075fc       0x60 build/default/debug/_ext/559172130/phy_trx_reg_access.o
                0x000075fc                trx_frame_write

.text.trx_frame_read%249
                0x0000765c       0x60
 .text.trx_frame_read
                0x0000765c       0x60 build/default/debug/_ext/559172130/phy_trx_reg_access.o
                0x0000765c                trx_frame_read

.text.EIC_InterruptHandler%250
                0x000076bc       0x60
 .text.EIC_InterruptHandler
                0x000076bc       0x60 build/default/debug/_ext/60167341/plib_eic.o
                0x000076bc                EIC_InterruptHandler

.text.SYS_TIME_RemoveFromList%251
                0x0000771c       0x60
 .text.SYS_TIME_RemoveFromList
                0x0000771c       0x60 build/default/debug/_ext/101884895/sys_time.o

.text.SYS_TIME_TimerStart%252
                0x0000777c       0x60
 .text.SYS_TIME_TimerStart
                0x0000777c       0x60 build/default/debug/_ext/101884895/sys_time.o
                0x0000777c                SYS_TIME_TimerStart

.text.xTaskPriorityDisinherit%253
                0x000077dc       0x60
 .text.xTaskPriorityDisinherit
                0x000077dc       0x60 build/default/debug/_ext/404212886/FreeRTOS_tasks.o
                0x000077dc                xTaskPriorityDisinherit

.text.vsnprintf%254
                0x0000783c       0x60
 .text.vsnprintf
                0x0000783c       0x60 c:/program files/microchip/xc32/v4.35/bin/bin/../../lib/gcc/pic32c/8.3.1/../../../../pic32c/lib/thumb/v6-m/nofp\libg-musl.a(vsnprintf.o)
                0x0000783c                vsnprintf

.text.WPAN_MLME_AssociateReq%255
                0x0000789c       0x5c
 .text.WPAN_MLME_AssociateReq
                0x0000789c       0x5c build/default/debug/_ext/1655452824/mac_api.o
                0x0000789c                WPAN_MLME_AssociateReq

.text.MAC_MLME_ResetRequest%256
                0x000078f8       0x5c
 .text.MAC_MLME_ResetRequest
                0x000078f8       0x5c build/default/debug/_ext/1655452824/mac_misc.o
                0x000078f8                MAC_MLME_ResetRequest

.text.palTimerCallback%257
                0x00007954       0x5c
 .text.palTimerCallback
                0x00007954       0x5c build/default/debug/_ext/745501718/pal.o

.text.vTaskStartScheduler%258
                0x000079b0       0x5c
 .text.vTaskStartScheduler
                0x000079b0       0x5c build/default/debug/_ext/404212886/FreeRTOS_tasks.o
                0x000079b0                vTaskStartScheduler

.text.__libc_start_init%259
                0x00007a0c       0x5c
 .text.__libc_start_init
                0x00007a0c       0x5c c:/program files/microchip/xc32/v4.35/bin/bin/../../lib/gcc/pic32c/8.3.1/../../../../pic32c/lib/thumb/v6-m/nofp\libg-musl.a(__libc_start_main.o)
                0x00007a0c                __libc_init_array

.text.OSAL_SEM_Create%260
                0x00007a68       0x5a
 .text.OSAL_SEM_Create
                0x00007a68       0x5a build/default/debug/_ext/1529399856/osal_freertos.o
                0x00007a68                OSAL_SEM_Create

.text.MAC_Timer_RxOffCb%261
                0x00007ac4       0x58
 .text.MAC_Timer_RxOffCb
                0x00007ac4       0x58 build/default/debug/_ext/1655452824/mac_rx_enable.o

.text.MAC_MCPS_DataInd%262
                0x00007b1c       0x58
 .text.MAC_MCPS_DataInd
                0x00007b1c       0x58 build/default/debug/_ext/1655452824/mac_callback_wrapper.o
                0x00007b1c                MAC_MCPS_DataInd

.text.WPAN_MLME_SetReq%263
                0x00007b74       0x58
 .text.WPAN_MLME_SetReq
                0x00007b74       0x58 build/default/debug/_ext/1655452824/mac_api.o
                0x00007b74                WPAN_MLME_SetReq

.text.WPAN_MLME_PollReq%264
                0x00007bcc       0x58
 .text.WPAN_MLME_PollReq
                0x00007bcc       0x58 build/default/debug/_ext/1655452824/mac_api.o
                0x00007bcc                WPAN_MLME_PollReq

.text.PHY_RxEnable%265
                0x00007c24       0x58
 .text.PHY_RxEnable
                0x00007c24       0x58 build/default/debug/_ext/559172130/phy_rx_enable.o
                0x00007c24                PHY_RxEnable

.text.SYS_TIME_TimerAdd%266
                0x00007c7c       0x58
 .text.SYS_TIME_TimerAdd
                0x00007c7c       0x58 build/default/debug/_ext/101884895/sys_time.o

.text.vPortFree%267
                0x00007cd4       0x58
 .text.vPortFree
                0x00007cd4       0x58 build/default/debug/_ext/1665200909/heap_4.o
                0x00007cd4                vPortFree

.text.xTimerGenericCommand%268
                0x00007d2c       0x58
 .text.xTimerGenericCommand
                0x00007d2c       0x58 build/default/debug/_ext/404212886/timers.o
                0x00007d2c                xTimerGenericCommand

.text.MAC_PrepDisassocConf%269
                0x00007d84       0x56
 .text.MAC_PrepDisassocConf
                0x00007d84       0x56 build/default/debug/_ext/1655452824/mac_disassociate.o
                0x00007d84                MAC_PrepDisassocConf

.text.__fmt_u%270
                0x00007dda       0x56
 .text.__fmt_u  0x00007dda       0x56 c:/program files/microchip/xc32/v4.35/bin/bin/../../lib/gcc/pic32c/8.3.1/../../../../pic32c/lib/thumb/v6-m/nofp\libg-musl.a(__fmt_u.o)
                0x00007dda                __fmt_u_needed
                0x00007dda                __fmt_u

.text.MAC_TaskHandler%271
                0x00007e30       0x54
 .text.MAC_TaskHandler
                0x00007e30       0x54 build/default/debug/_ext/1655452824/mac.o
                0x00007e30                MAC_TaskHandler

.text.init_tal_pib%272
                0x00007e84       0x54
 .text.init_tal_pib
                0x00007e84       0x54 build/default/debug/_ext/559172130/phy_pib.o
                0x00007e84                init_tal_pib

.text.trx_irq_handler_cb%273
                0x00007ed8       0x54
 .text.trx_irq_handler_cb
                0x00007ed8       0x54 build/default/debug/_ext/559172130/phy_irq_handler.o
                0x00007ed8                trx_irq_handler_cb

.text.SERCOM0_USART_InterruptHandler%274
                0x00007f2c       0x54
 .text.SERCOM0_USART_InterruptHandler
                0x00007f2c       0x54 build/default/debug/_ext/504274921/plib_sercom0_usart.o
                0x00007f2c                SERCOM0_USART_InterruptHandler

.text.SYS_TIME_DelayUS%275
                0x00007f80       0x54
 .text.SYS_TIME_DelayUS
                0x00007f80       0x54 build/default/debug/_ext/101884895/sys_time.o
                0x00007f80                SYS_TIME_DelayUS

.text.prvInsertBlockIntoFreeList%276
                0x00007fd4       0x54
 .text.prvInsertBlockIntoFreeList
                0x00007fd4       0x54 build/default/debug/_ext/1665200909/heap_4.o

.text.WPAN_MLME_ScanReq%277
                0x00008028       0x50
 .text.WPAN_MLME_ScanReq
                0x00008028       0x50 build/default/debug/_ext/1655452824/mac_api.o
                0x00008028                WPAN_MLME_ScanReq

.text.MAC_Init%278
                0x00008078       0x50
 .text.MAC_Init
                0x00008078       0x50 build/default/debug/_ext/1655452824/mac_misc.o
                0x00008078                MAC_Init

.text.ScanCleanUp%279
                0x000080c8       0x50
 .text.ScanCleanUp
                0x000080c8       0x50 build/default/debug/_ext/1655452824/mac_scan.o

.text.ed_scan_done%280
                0x00008118       0x50
 .text.ed_scan_done
                0x00008118       0x50 build/default/debug/_ext/559172130/phy_ed.o
                0x00008118                ed_scan_done

.text.prvCheckForValidListAndQueue%281
                0x00008168       0x50
 .text.prvCheckForValidListAndQueue
                0x00008168       0x50 build/default/debug/_ext/404212886/timers.o

.text.vQueueWaitForMessageRestricted%282
                0x000081b8       0x50
 .text.vQueueWaitForMessageRestricted
                0x000081b8       0x50 build/default/debug/_ext/404212886/queue.o
                0x000081b8                vQueueWaitForMessageRestricted

.text.__fmt_s%283
                0x00008208       0x50
 .text.__fmt_s  0x00008208       0x50 c:/program files/microchip/xc32/v4.35/bin/bin/../../lib/gcc/pic32c/8.3.1/../../../../pic32c/lib/thumb/v6-m/nofp\libg-musl.a(__fmt_s.o)
                0x00008208                __fmt_s
                0x00008208                __fmt_0_needed
                0x00008208                __fmt_s_needed

.text.prvNotifyQueueSetContainer%284
                0x00008258       0x4e
 .text.prvNotifyQueueSetContainer
                0x00008258       0x4e build/default/debug/_ext/404212886/queue.o

.text.MAC_Timer_AssocresponsetimeCb%285
                0x000082a8       0x4c
 .text.MAC_Timer_AssocresponsetimeCb
                0x000082a8       0x4c build/default/debug/_ext/1655452824/mac_associate.o
                0x000082a8                MAC_Timer_AssocresponsetimeCb

.text.PHY_RxFrameCallback%286
                0x000082f4       0x4c
 .text.PHY_RxFrameCallback
                0x000082f4       0x4c build/default/debug/_ext/1655452824/mac_data_ind.o
                0x000082f4                PHY_RxFrameCallback

.text.convert_phyTransmitPower_to_reg_value%287
                0x00008340       0x4c
 .text.convert_phyTransmitPower_to_reg_value
                0x00008340       0x4c build/default/debug/_ext/559172130/phy_pib.o
                0x00008340                convert_phyTransmitPower_to_reg_value

.text.SERCOM0_USART_ISR_ERR_Handler%288
                0x0000838c       0x4c
 .text.SERCOM0_USART_ISR_ERR_Handler
                0x0000838c       0x4c build/default/debug/_ext/504274921/plib_sercom0_usart.o

.text.IRTx_Push_data_Timer_Callback%289
                0x000083d8       0x4c
 .text.IRTx_Push_data_Timer_Callback
                0x000083d8       0x4c build/default/debug/_ext/85617168/demo_app_rfd.o
                0x000083d8                IRTx_Push_data_Timer_Callback

.text.push_data%290
                0x00008424       0x4c
 .text.push_data
                0x00008424       0x4c build/default/debug/_ext/85617168/demo_app_rfd.o

.text.__pic32c_data_initialization%291
                0x00008470       0x4c
 .text.__pic32c_data_initialization
                0x00008470       0x4c c:/program files/microchip/xc32/v4.35/bin/bin/../../lib/gcc/pic32c/8.3.1/../../../../pic32c/lib/thumb/v6-m/nofp\libpic32c.a(data_init.o)
                0x00008470                __pic32c_data_initialization

.text%292       0x000084bc       0x48
 .text          0x000084bc       0x48 c:/program files/microchip/xc32/v4.35/bin/bin/../../lib/gcc/pic32c/8.3.1/thumb/v6-m/nofp/crtbegin.o

.text.PAL_GetRandomNumber%293
                0x00008504       0x48
 .text.PAL_GetRandomNumber
                0x00008504       0x48 build/default/debug/_ext/745501718/pal.o
                0x00008504                PAL_GetRandomNumber

.text.Reset_Handler%294
                0x0000854c       0x48
 .text.Reset_Handler
                0x0000854c       0x48 build/default/debug/_ext/1171490990/startup_xc32.o
                0x0000854c                Reset_Handler

.text.prvInsertTimerInActiveList%295
                0x00008594       0x48
 .text.prvInsertTimerInActiveList
                0x00008594       0x48 build/default/debug/_ext/404212886/timers.o

.text.xTimerCreate%296
                0x000085dc       0x46
 .text.xTimerCreate
                0x000085dc       0x46 build/default/debug/_ext/404212886/timers.o
                0x000085dc                xTimerCreate

.text.MAC_ProcessDisassociateNotification%297
                0x00008624       0x44
 .text.MAC_ProcessDisassociateNotification
                0x00008624       0x44 build/default/debug/_ext/1655452824/mac_disassociate.o
                0x00008624                MAC_ProcessDisassociateNotification

.text.PAL_Init%298
                0x00008668       0x44
 .text.PAL_Init
                0x00008668       0x44 build/default/debug/_ext/745501718/pal.o
                0x00008668                PAL_Init

.text.PHY_TrxSleep%299
                0x000086ac       0x44
 .text.PHY_TrxSleep
                0x000086ac       0x44 build/default/debug/_ext/559172130/phy_pwr_mgmt.o
                0x000086ac                PHY_TrxSleep

.text.tx_done_handling%300
                0x000086f0       0x44
 .text.tx_done_handling
                0x000086f0       0x44 build/default/debug/_ext/559172130/phy_tx.o
                0x000086f0                tx_done_handling

.text.trx_ed_irq_handler_cb%301
                0x00008734       0x44
 .text.trx_ed_irq_handler_cb
                0x00008734       0x44 build/default/debug/_ext/559172130/phy_ed.o
                0x00008734                trx_ed_irq_handler_cb

.text.process_incoming_frame%302
                0x00008778       0x44
 .text.process_incoming_frame
                0x00008778       0x44 build/default/debug/_ext/559172130/phy_rx.o
                0x00008778                process_incoming_frame

.text.xPortPendSVHandler%303
                0x000087c0       0x44
 .text.xPortPendSVHandler
                0x000087c0       0x44 build/default/debug/_ext/1624415188/port.o
                0x000087c0                xPortPendSVHandler

.text.Handle_MACMessages%304
                0x00008804       0x44
 .text.Handle_MACMessages
                0x00008804       0x44 build/default/debug/_ext/85617168/demo_app_rfd.o
                0x00008804                Handle_MACMessages

.text.USR_MCPS_DataInd%305
                0x00008848       0x44
 .text.USR_MCPS_DataInd
                0x00008848       0x44 build/default/debug/_ext/85617168/usr_mac_callbacks.o
                0x00008848                USR_MCPS_DataInd

.text.__aeabi_dcmple%306
                0x0000888c       0x44
 .text.__aeabi_dcmple
                0x0000888c       0x44 c:/program files/microchip/xc32/v4.35/bin/bin/../../lib/gcc/pic32c/8.3.1/../../../../pic32c/lib/thumb/v6-m/nofp\libm-fast-emfloat.a(__aeabi_dcmple.o)
                0x0000888c                __aeabi_dcmple

.text%307       0x000088d0       0x44
 .text          0x000088d0       0x44 c:/program files/microchip/xc32/v4.35/bin/bin/../../lib/gcc/pic32c/8.3.1/thumb/v6-m/nofp\libgcc.a(_muldi3.o)
                0x000088d0                __muldi3
                0x000088d0                __aeabi_lmul

.text.MAC_Gen_MLME_DisassociateConf%308
                0x00008914       0x40
 .text.MAC_Gen_MLME_DisassociateConf
                0x00008914       0x40 build/default/debug/_ext/1655452824/mac_disassociate.o

.text.MAC_TimersStop%309
                0x00008954       0x40
 .text.MAC_TimersStop
                0x00008954       0x40 build/default/debug/_ext/1655452824/mac_misc.o
                0x00008954                MAC_TimersStop

.text.MAC_Timer_ScanDurationCb%310
                0x00008994       0x40
 .text.MAC_Timer_ScanDurationCb
                0x00008994       0x40 build/default/debug/_ext/1655452824/mac_scan.o

.text.TC3_TimerInitialize%311
                0x000089d4       0x40
 .text.TC3_TimerInitialize
                0x000089d4       0x40 build/default/debug/_ext/829342655/plib_tc3.o
                0x000089d4                TC3_TimerInitialize

.text.Console_UART_Read%312
                0x00008a14       0x40
 .text.Console_UART_Read
                0x00008a14       0x40 build/default/debug/_ext/1832805299/sys_console_uart.o
                0x00008a14                Console_UART_Read

.text.Console_UART_Write%313
                0x00008a54       0x40
 .text.Console_UART_Write
                0x00008a54       0x40 build/default/debug/_ext/1832805299/sys_console_uart.o
                0x00008a54                Console_UART_Write

.text.SYS_TIME_GetTimerObject%314
                0x00008a94       0x40
 .text.SYS_TIME_GetTimerObject
                0x00008a94       0x40 build/default/debug/_ext/101884895/sys_time.o

.text.SYS_TIME_TimerDestroy%315
                0x00008ad4       0x40
 .text.SYS_TIME_TimerDestroy
                0x00008ad4       0x40 build/default/debug/_ext/101884895/sys_time.o
                0x00008ad4                SYS_TIME_TimerDestroy

.text.APP_Tasks%316
                0x00008b14       0x40
 .text.APP_Tasks
                0x00008b14       0x40 build/default/debug/_ext/1360937237/app.o
                0x00008b14                APP_Tasks

.text.atoi%317  0x00008b54       0x40
 .text.atoi     0x00008b54       0x40 c:/program files/microchip/xc32/v4.35/bin/bin/../../lib/gcc/pic32c/8.3.1/../../../../pic32c/lib/thumb/v6-m/nofp\libg-musl.a(atoi.o)
                0x00008b54                atoi

.text%318       0x00008b94       0x40
 .text          0x00008b94       0x40 c:/program files/microchip/xc32/v4.35/bin/bin/../../lib/gcc/pic32c/8.3.1/thumb/v6-m/nofp\libgcc.a(_aeabi_uldivmod.o)
                0x00008b94                __aeabi_uldivmod

.text.__aeabi_dcmpgt%319
                0x00008bd4       0x3e
 .text.__aeabi_dcmpgt
                0x00008bd4       0x3e c:/program files/microchip/xc32/v4.35/bin/bin/../../lib/gcc/pic32c/8.3.1/../../../../pic32c/lib/thumb/v6-m/nofp\libm-fast-emfloat.a(__aeabi_dcmpgt.o)
                0x00008bd4                __aeabi_dcmpgt

.text.__aeabi_dcmplt%320
                0x00008c12       0x3e
 .text.__aeabi_dcmplt
                0x00008c12       0x3e c:/program files/microchip/xc32/v4.35/bin/bin/../../lib/gcc/pic32c/8.3.1/../../../../pic32c/lib/thumb/v6-m/nofp\libm-fast-emfloat.a(__aeabi_dcmplt.o)
                0x00008c12                __aeabi_dcmplt

.rodata.PHY_TxDoneCallback%321
                0x00008c50       0x3c
 .rodata.PHY_TxDoneCallback
                0x00008c50       0x3c build/default/debug/_ext/1655452824/mac_process_phy_tx_frame_status.o

.text.WPAN_MLME_ResetReq%322
                0x00008c8c       0x3c
 .text.WPAN_MLME_ResetReq
                0x00008c8c       0x3c build/default/debug/_ext/1655452824/mac_api.o
                0x00008c8c                WPAN_MLME_ResetReq

.text.WPAN_MLME_GetReq%323
                0x00008cc8       0x3c
 .text.WPAN_MLME_GetReq
                0x00008cc8       0x3c build/default/debug/_ext/1655452824/mac_api.o
                0x00008cc8                WPAN_MLME_GetReq

.text.PHY_TxFrame%324
                0x00008d04       0x3c
 .text.PHY_TxFrame
                0x00008d04       0x3c build/default/debug/_ext/559172130/phy_tx.o
                0x00008d04                PHY_TxFrame

.text.SERCOM4_SPI_Initialize%325
                0x00008d40       0x3c
 .text.SERCOM4_SPI_Initialize
                0x00008d40       0x3c build/default/debug/_ext/17022449/plib_sercom4_spi_master.o
                0x00008d40                SERCOM4_SPI_Initialize

.text.SYS_INT_SourceDisable%326
                0x00008d7c       0x3c
 .text.SYS_INT_SourceDisable
                0x00008d7c       0x3c build/default/debug/_ext/1881668453/sys_int.o
                0x00008d7c                SYS_INT_SourceDisable

.text.SYS_TIME_ResourceLock%327
                0x00008db8       0x3c
 .text.SYS_TIME_ResourceLock
                0x00008db8       0x3c build/default/debug/_ext/101884895/sys_time.o

.text.SYS_TIME_CountToUS%328
                0x00008df4       0x3c
 .text.SYS_TIME_CountToUS
                0x00008df4       0x3c build/default/debug/_ext/101884895/sys_time.o
                0x00008df4                SYS_TIME_CountToUS

.text.xPortStartScheduler%329
                0x00008e30       0x3c
 .text.xPortStartScheduler
                0x00008e30       0x3c build/default/debug/_ext/1624415188/port.o
                0x00008e30                xPortStartScheduler

.text.xTimerCreateTimerTask%330
                0x00008e6c       0x3c
 .text.xTimerCreateTimerTask
                0x00008e6c       0x3c build/default/debug/_ext/404212886/timers.o
                0x00008e6c                xTimerCreateTimerTask

.text.USR_MLME_BeaconNotifyInd%331
                0x00008ea8       0x3c
 .text.USR_MLME_BeaconNotifyInd
                0x00008ea8       0x3c build/default/debug/_ext/85617168/usr_mac_callbacks.o
                0x00008ea8                USR_MLME_BeaconNotifyInd

.text.USR_MLME_ScanConf%332
                0x00008ee4       0x3c
 .text.USR_MLME_ScanConf
                0x00008ee4       0x3c build/default/debug/_ext/85617168/usr_mac_callbacks.o
                0x00008ee4                USR_MLME_ScanConf

.text%333       0x00008f20       0x3c
 .text          0x00008f20       0x3c c:/program files/microchip/xc32/v4.35/bin/bin/../../lib/gcc/pic32c/8.3.1/thumb/v6-m/nofp\libgcc.a(_clzsi2.o)
                0x00008f20                __clzsi2

.text.MAC_TimersInit%334
                0x00008f5c       0x38
 .text.MAC_TimersInit
                0x00008f5c       0x38 build/default/debug/_ext/1655452824/mac_misc.o
                0x00008f5c                MAC_TimersInit

.text.bmm_buffer_alloc%335
                0x00008f94       0x38
 .text.bmm_buffer_alloc
                0x00008f94       0x38 build/default/debug/_ext/1374435801/bmm.o
                0x00008f94                bmm_buffer_alloc

.text.Console_UART_WriteCountGet%336
                0x00008fcc       0x38
 .text.Console_UART_WriteCountGet
                0x00008fcc       0x38 build/default/debug/_ext/1832805299/sys_console_uart.o
                0x00008fcc                Console_UART_WriteCountGet

.text.Console_UART_WriteFreeBufferCountGet%337
                0x00009004       0x38
 .text.Console_UART_WriteFreeBufferCountGet
                0x00009004       0x38 build/default/debug/_ext/1832805299/sys_console_uart.o
                0x00009004                Console_UART_WriteFreeBufferCountGet

.text.Console_UART_ReadFreeBufferCountGet%338
                0x0000903c       0x38
 .text.Console_UART_ReadFreeBufferCountGet
                0x0000903c       0x38 build/default/debug/_ext/1832805299/sys_console_uart.o
                0x0000903c                Console_UART_ReadFreeBufferCountGet

.text.Console_UART_ReadCountGet%339
                0x00009074       0x38
 .text.Console_UART_ReadCountGet
                0x00009074       0x38 build/default/debug/_ext/1832805299/sys_console_uart.o
                0x00009074                Console_UART_ReadCountGet

.text.SYS_TIME_UpdateTimerList%340
                0x000090ac       0x38
 .text.SYS_TIME_UpdateTimerList
                0x000090ac       0x38 build/default/debug/_ext/101884895/sys_time.o

.text.OSAL_QUEUE_SendISR%341
                0x000090e4       0x34
 .text.OSAL_QUEUE_SendISR
                0x000090e4       0x34 build/default/debug/_ext/1529399856/osal_freertos_extend.o
                0x000090e4                OSAL_QUEUE_SendISR

.text.OSAL_SEM_PostISR%342
                0x00009118       0x34
 .text.OSAL_SEM_PostISR
                0x00009118       0x34 build/default/debug/_ext/1529399856/osal_freertos.o
                0x00009118                OSAL_SEM_PostISR

.text.SYS_CONSOLE_Message%343
                0x0000914c       0x34
 .text.SYS_CONSOLE_Message
                0x0000914c       0x34 build/default/debug/_ext/1832805299/sys_console.o
                0x0000914c                SYS_CONSOLE_Message

.text.vPortStartFirstTask%344
                0x00009180       0x34
 .text.vPortStartFirstTask
                0x00009180       0x34 build/default/debug/_ext/1624415188/port.o

.text.Handle_SetConf%345
                0x000091b4       0x34
 .text.Handle_SetConf
                0x000091b4       0x34 build/default/debug/_ext/85617168/demo_app_rfd.o
                0x000091b4                Handle_SetConf

.text.Handle_DataInd%346
                0x000091e8       0x34
 .text.Handle_DataInd
                0x000091e8       0x34 build/default/debug/_ext/85617168/demo_app_rfd.o
                0x000091e8                Handle_DataInd

.text.__fmt_state%347
                0x0000921c       0x34
 .text.__fmt_state
                0x0000921c       0x34 c:/program files/microchip/xc32/v4.35/bin/bin/../../lib/gcc/pic32c/8.3.1/../../../../pic32c/lib/thumb/v6-m/nofp\libg-musl.a(__printf_core.o)
                0x0000921c                __fmt_state

.text.__aeabi_d2iz%348
                0x00009250       0x34
 .text.__aeabi_d2iz
                0x00009250       0x34 c:/program files/microchip/xc32/v4.35/bin/bin/../../lib/gcc/pic32c/8.3.1/../../../../pic32c/lib/thumb/v6-m/nofp\libm-fast-emfloat.a(__aeabi_d2iz.o)
                0x00009250                __aeabi_d2iz

.text.MAC_IdleTrans%349
                0x00009284       0x32
 .text.MAC_IdleTrans
                0x00009284       0x32 build/default/debug/_ext/1655452824/mac_misc.o
                0x00009284                MAC_IdleTrans

.text.xQueueGenericCreate%350
                0x000092b6       0x32
 .text.xQueueGenericCreate
                0x000092b6       0x32 build/default/debug/_ext/404212886/queue.o
                0x000092b6                xQueueGenericCreate

.text.MAC_MLME_SetRequest%351
                0x000092e8       0x30
 .text.MAC_MLME_SetRequest
                0x000092e8       0x30 build/default/debug/_ext/1655452824/mac_pib.o
                0x000092e8                MAC_MLME_SetRequest

.text.SetPhyPibInternal%352
                0x00009318       0x30
 .text.SetPhyPibInternal
                0x00009318       0x30 build/default/debug/_ext/1655452824/mac_pib.o
                0x00009318                SetPhyPibInternal

.text.MAC_GetPibAttributeSize%353
                0x00009348       0x30
 .text.MAC_GetPibAttributeSize
                0x00009348       0x30 build/default/debug/_ext/1655452824/mac_pib.o
                0x00009348                MAC_GetPibAttributeSize

.text.MAC_Timer_PollWaitTimeCb%354
                0x00009378       0x30
 .text.MAC_Timer_PollWaitTimeCb
                0x00009378       0x30 build/default/debug/_ext/1655452824/mac_poll.o
                0x00009378                MAC_Timer_PollWaitTimeCb

.text.bmm_buffer_free%355
                0x000093a8       0x30
 .text.bmm_buffer_free
                0x000093a8       0x30 build/default/debug/_ext/1374435801/bmm.o
                0x000093a8                bmm_buffer_free

.text.SYS_TIME_Counter64Get%356
                0x000093d8       0x30
 .text.SYS_TIME_Counter64Get
                0x000093d8       0x30 build/default/debug/_ext/101884895/sys_time.o
                0x000093d8                SYS_TIME_Counter64Get

.text.USR_MCPS_DataConf%357
                0x00009408       0x30
 .text.USR_MCPS_DataConf
                0x00009408       0x30 build/default/debug/_ext/85617168/usr_mac_callbacks.o
                0x00009408                USR_MCPS_DataConf

.text.USR_MLME_AssociateConf%358
                0x00009438       0x30
 .text.USR_MLME_AssociateConf
                0x00009438       0x30 build/default/debug/_ext/85617168/usr_mac_callbacks.o
                0x00009438                USR_MLME_AssociateConf

.text.USR_MLME_GetConf%359
                0x00009468       0x30
 .text.USR_MLME_GetConf
                0x00009468       0x30 build/default/debug/_ext/85617168/usr_mac_callbacks.o
                0x00009468                USR_MLME_GetConf

.text.vListInsert%360
                0x00009498       0x2e
 .text.vListInsert
                0x00009498       0x2e build/default/debug/_ext/404212886/list.o
                0x00009498                vListInsert

.text.__aeabi_dcmpeq%361
                0x000094c6       0x2e
 .text.__aeabi_dcmpeq
                0x000094c6       0x2e c:/program files/microchip/xc32/v4.35/bin/bin/../../lib/gcc/pic32c/8.3.1/../../../../pic32c/lib/thumb/v6-m/nofp\libm-fast-emfloat.a(__aeabi_dcmpeq.o)
                0x000094c6                __aeabi_dcmpeq

.text.__aeabi_d2uiz%362
                0x000094f4       0x2e
 .text.__aeabi_d2uiz
                0x000094f4       0x2e c:/program files/microchip/xc32/v4.35/bin/bin/../../lib/gcc/pic32c/8.3.1/../../../../pic32c/lib/thumb/v6-m/nofp\libm-fast-emfloat.a(__aeabi_d2uiz.o)
                0x000094f4                __aeabi_d2uiz
                0x000094f8                .L__aeabi_d2uiz_fast_entry

.text.MAC_MLME_GetRequest%363
                0x00009524       0x2c
 .text.MAC_MLME_GetRequest
                0x00009524       0x2c build/default/debug/_ext/1655452824/mac_pib.o
                0x00009524                MAC_MLME_GetRequest

.text.MAC_MLME_BeaconNotifyInd%364
                0x00009550       0x2c
 .text.MAC_MLME_BeaconNotifyInd
                0x00009550       0x2c build/default/debug/_ext/1655452824/mac_callback_wrapper.o
                0x00009550                MAC_MLME_BeaconNotifyInd

.text.MAC_MLME_DisassociateConf%365
                0x0000957c       0x2c
 .text.MAC_MLME_DisassociateConf
                0x0000957c       0x2c build/default/debug/_ext/1655452824/mac_callback_wrapper.o
                0x0000957c                MAC_MLME_DisassociateConf

.text.PAL_TimerStop%366
                0x000095a8       0x2c
 .text.PAL_TimerStop
                0x000095a8       0x2c build/default/debug/_ext/745501718/pal.o
                0x000095a8                PAL_TimerStop

.rodata.sysConsoleUARTDevDesc%367
                0x000095d4       0x2c
 .rodata.sysConsoleUARTDevDesc
                0x000095d4       0x2c build/default/debug/_ext/1832805299/sys_console_uart.o
                0x000095d4                sysConsoleUARTDevDesc

.text.prvResetNextTaskUnblockTime%368
                0x00009600       0x2c
 .text.prvResetNextTaskUnblockTime
                0x00009600       0x2c build/default/debug/_ext/404212886/FreeRTOS_tasks.o

.rodata.Handle_MACMessages%369
                0x0000962c       0x2c
 .rodata.Handle_MACMessages
                0x0000962c       0x2c build/default/debug/_ext/85617168/demo_app_rfd.o

.text.SYS_TIME_TimerPeriodHasExpired%370
                0x00009658       0x2a
 .text.SYS_TIME_TimerPeriodHasExpired
                0x00009658       0x2a build/default/debug/_ext/101884895/sys_time.o
                0x00009658                SYS_TIME_TimerPeriodHasExpired

.text.__pop_float%371
                0x00009682       0x2a
 .text.__pop_float
                0x00009682       0x2a c:/program files/microchip/xc32/v4.35/bin/bin/../../lib/gcc/pic32c/8.3.1/../../../../pic32c/lib/thumb/v6-m/nofp\libg-musl.a(__pop_float.o)
                0x00009682                __pop_float_needed
                0x00009682                __pop_float

.text.MAC_MLME_ScanConf%372
                0x000096ac       0x28
 .text.MAC_MLME_ScanConf
                0x000096ac       0x28 build/default/debug/_ext/1655452824/mac_callback_wrapper.o
                0x000096ac                MAC_MLME_ScanConf

.text.Gen_MLME_PollConf%373
                0x000096d4       0x28
 .text.Gen_MLME_PollConf
                0x000096d4       0x28 build/default/debug/_ext/1655452824/mac_poll.o

.text.PAL_TimerDelay%374
                0x000096fc       0x28
 .text.PAL_TimerDelay
                0x000096fc       0x28 build/default/debug/_ext/745501718/pal.o
                0x000096fc                PAL_TimerDelay

.text.PHY_TrxWakeup%375
                0x00009724       0x28
 .text.PHY_TrxWakeup
                0x00009724       0x28 build/default/debug/_ext/559172130/phy_pwr_mgmt.o
                0x00009724                PHY_TrxWakeup

.text.PHY_PostTask%376
                0x0000974c       0x28
 .text.PHY_PostTask
                0x0000974c       0x28 build/default/debug/_ext/957911548/phy_task.o
                0x0000974c                PHY_PostTask

.text.TAL_PostTask%377
                0x00009774       0x28
 .text.TAL_PostTask
                0x00009774       0x28 build/default/debug/_ext/957911548/phy_task.o
                0x00009774                TAL_PostTask

.text.qmm_queue_append%378
                0x0000979c       0x28
 .text.qmm_queue_append
                0x0000979c       0x28 build/default/debug/_ext/874725666/qmm.o
                0x0000979c                qmm_queue_append

.text.qmm_queue_flush%379
                0x000097c4       0x28
 .text.qmm_queue_flush
                0x000097c4       0x28 build/default/debug/_ext/874725666/qmm.o
                0x000097c4                qmm_queue_flush

.text.EIC_CallbackRegister%380
                0x000097ec       0x28
 .text.EIC_CallbackRegister
                0x000097ec       0x28 build/default/debug/_ext/60167341/plib_eic.o
                0x000097ec                EIC_CallbackRegister

.text.SERCOM4_SPI_IsBusy%381
                0x00009814       0x28
 .text.SERCOM4_SPI_IsBusy
                0x00009814       0x28 build/default/debug/_ext/17022449/plib_sercom4_spi_master.o
                0x00009814                SERCOM4_SPI_IsBusy

.text.TC3_TimerInterruptHandler%382
                0x0000983c       0x28
 .text.TC3_TimerInterruptHandler
                0x0000983c       0x28 build/default/debug/_ext/829342655/plib_tc3.o
                0x0000983c                TC3_TimerInterruptHandler

.text.SYS_TIME_ResourceUnlock%383
                0x00009864       0x28
 .text.SYS_TIME_ResourceUnlock
                0x00009864       0x28 build/default/debug/_ext/101884895/sys_time.o

.text.vPortSetupTimerInterrupt%384
                0x0000988c       0x28
 .text.vPortSetupTimerInterrupt
                0x0000988c       0x28 build/default/debug/_ext/1624415188/port.o
                0x0000988c                vPortSetupTimerInterrupt

.text.vTaskPlaceOnEventListRestricted%385
                0x000098b4       0x28
 .text.vTaskPlaceOnEventListRestricted
                0x000098b4       0x28 build/default/debug/_ext/404212886/FreeRTOS_tasks.o
                0x000098b4                vTaskPlaceOnEventListRestricted

.rodata.prvTimerTask%386
                0x000098dc       0x28
 .rodata.prvTimerTask
                0x000098dc       0x28 build/default/debug/_ext/404212886/timers.o

.text.print_stack_app_build_features%387
                0x00009904       0x28
 .text.print_stack_app_build_features
                0x00009904       0x28 build/default/debug/_ext/85617168/demo_app_rfd.o
                0x00009904                print_stack_app_build_features

.text.xQueueAddToSet%388
                0x0000992c       0x26
 .text.xQueueAddToSet
                0x0000992c       0x26 build/default/debug/_ext/404212886/queue.o
                0x0000992c                xQueueAddToSet

.text.uxListRemove%389
                0x00009952       0x26
 .text.uxListRemove
                0x00009952       0x26 build/default/debug/_ext/404212886/list.o
                0x00009952                uxListRemove

.text.__string_out%390
                0x00009978       0x26
 .text.__string_out
                0x00009978       0x26 c:/program files/microchip/xc32/v4.35/bin/bin/../../lib/gcc/pic32c/8.3.1/../../../../pic32c/lib/thumb/v6-m/nofp\libg-musl.a(__printf_core.o)
                0x00009978                __out

.text.DispatchEvent%391
                0x000099a0       0x24
 .text.DispatchEvent
                0x000099a0       0x24 build/default/debug/_ext/1655452824/mac_dispatcher.o
                0x000099a0                DispatchEvent

.text.sendFrame%392
                0x000099c4       0x24
 .text.sendFrame
                0x000099c4       0x24 build/default/debug/_ext/1655452824/mac.o
                0x000099c4                sendFrame

.text.WPAN_Task%393
                0x000099e8       0x24
 .text.WPAN_Task
                0x000099e8       0x24 build/default/debug/_ext/1655452824/mac_api.o
                0x000099e8                WPAN_Task

.text.MAC_TrxInitSleep%394
                0x00009a0c       0x24
 .text.MAC_TrxInitSleep
                0x00009a0c       0x24 build/default/debug/_ext/1655452824/mac_misc.o
                0x00009a0c                MAC_TrxInitSleep

.text.MAC_SleepTrans%395
                0x00009a30       0x24
 .text.MAC_SleepTrans
                0x00009a30       0x24 build/default/debug/_ext/1655452824/mac_misc.o
                0x00009a30                MAC_SleepTrans

.rodata.MAC_ProcessPhyDataInd%396
                0x00009a54       0x24
 .rodata.MAC_ProcessPhyDataInd
                0x00009a54       0x24 build/default/debug/_ext/1655452824/mac_data_ind.o

.text.PAL_TimerIsRunning%397
                0x00009a78       0x24
 .text.PAL_TimerIsRunning
                0x00009a78       0x24 build/default/debug/_ext/745501718/pal.o
                0x00009a78                PAL_TimerIsRunning

.text.tal_trx_wakeup%398
                0x00009a9c       0x24
 .text.tal_trx_wakeup
                0x00009a9c       0x24 build/default/debug/_ext/559172130/phy_pwr_mgmt.o
                0x00009a9c                tal_trx_wakeup

.text.trx_reg_bit_write%399
                0x00009ac0       0x24
 .text.trx_reg_bit_write
                0x00009ac0       0x24 build/default/debug/_ext/559172130/phy_trx_reg_access.o
                0x00009ac0                trx_reg_bit_write

.text.OSAL_QUEUE_Send%400
                0x00009ae4       0x24
 .text.OSAL_QUEUE_Send
                0x00009ae4       0x24 build/default/debug/_ext/1529399856/osal_freertos_extend.o
                0x00009ae4                OSAL_QUEUE_Send

.text.OSAL_QUEUE_Receive%401
                0x00009b08       0x24
 .text.OSAL_QUEUE_Receive
                0x00009b08       0x24 build/default/debug/_ext/1529399856/osal_freertos_extend.o
                0x00009b08                OSAL_QUEUE_Receive

.text.OSAL_SEM_Pend%402
                0x00009b2c       0x24
 .text.OSAL_SEM_Pend
                0x00009b2c       0x24 build/default/debug/_ext/1529399856/osal_freertos.o
                0x00009b2c                OSAL_SEM_Pend

.text.OSAL_MUTEX_Lock%403
                0x00009b50       0x24
 .text.OSAL_MUTEX_Lock
                0x00009b50       0x24 build/default/debug/_ext/1529399856/osal_freertos.o
                0x00009b50                OSAL_MUTEX_Lock

.text.Console_UART_Initialize%404
                0x00009b74       0x24
 .text.Console_UART_Initialize
                0x00009b74       0x24 build/default/debug/_ext/1832805299/sys_console_uart.o
                0x00009b74                Console_UART_Initialize

.text.SYS_TIME_USToCount%405
                0x00009b98       0x24
 .text.SYS_TIME_USToCount
                0x00009b98       0x24 build/default/debug/_ext/101884895/sys_time.o
                0x00009b98                SYS_TIME_USToCount

.rodata%406     0x00009bbc       0x24
 .rodata        0x00009bbc       0x24 build/default/debug/_ext/1171490990/tasks.o

.text.xPortSysTickHandler%407
                0x00009be0       0x24
 .text.xPortSysTickHandler
                0x00009be0       0x24 build/default/debug/_ext/1624415188/port.o
                0x00009be0                xPortSysTickHandler

.text.prvCopyDataFromQueue%408
                0x00009c04       0x24
 .text.prvCopyDataFromQueue
                0x00009c04       0x24 build/default/debug/_ext/404212886/queue.o

.text.xQueueCreateMutex%409
                0x00009c28       0x24
 .text.xQueueCreateMutex
                0x00009c28       0x24 build/default/debug/_ext/404212886/queue.o
                0x00009c28                xQueueCreateMutex

.text.LED_Toggle_Timer_Callback%410
                0x00009c4c       0x24
 .text.LED_Toggle_Timer_Callback
                0x00009c4c       0x24 build/default/debug/_ext/85617168/demo_app_rfd.o

.text.Handle_ResetConf%411
                0x00009c70       0x24
 .text.Handle_ResetConf
                0x00009c70       0x24 build/default/debug/_ext/85617168/demo_app_rfd.o
                0x00009c70                Handle_ResetConf

.text.MAC_GenMLMEAssociateConf%412
                0x00009c94       0x20
 .text.MAC_GenMLMEAssociateConf
                0x00009c94       0x20 build/default/debug/_ext/1655452824/mac_associate.o
                0x00009c94                MAC_GenMLMEAssociateConf

.rodata.mac_PibSize%413
                0x00009cb4       0x20
 .rodata.mac_PibSize
                0x00009cb4       0x20 build/default/debug/_ext/1655452824/mac_pib.o

.text.MAC_TrxWakeup%414
                0x00009cd4       0x20
 .text.MAC_TrxWakeup
                0x00009cd4       0x20 build/default/debug/_ext/1655452824/mac_misc.o
                0x00009cd4                MAC_TrxWakeup

.text.MAC_GenMCPSDataConf%415
                0x00009cf4       0x20
 .text.MAC_GenMCPSDataConf
                0x00009cf4       0x20 build/default/debug/_ext/1655452824/mac_mcps_data.o
                0x00009cf4                MAC_GenMCPSDataConf

.rodata.tx_done_handling%416
                0x00009d14       0x20
 .rodata.tx_done_handling
                0x00009d14       0x20 build/default/debug/_ext/559172130/phy_tx.o

.text.TAL_Tasks%417
                0x00009d34       0x20
 .text.TAL_Tasks
                0x00009d34       0x20 build/default/debug/_ext/957911548/phy_task.o
                0x00009d34                TAL_Tasks

.text.TC3_Timer16bitCounterGet%418
                0x00009d54       0x20
 .text.TC3_Timer16bitCounterGet
                0x00009d54       0x20 build/default/debug/_ext/829342655/plib_tc3.o
                0x00009d54                TC3_Timer16bitCounterGet

.text.SYS_TIME_TimerCreate%419
                0x00009d74       0x20
 .text.SYS_TIME_TimerCreate
                0x00009d74       0x20 build/default/debug/_ext/101884895/sys_time.o
                0x00009d74                SYS_TIME_TimerCreate

.text.pxPortInitialiseStack%420
                0x00009d94       0x20
 .text.pxPortInitialiseStack
                0x00009d94       0x20 build/default/debug/_ext/1624415188/port.o
                0x00009d94                pxPortInitialiseStack

.text.xTaskGetSchedulerState%421
                0x00009db4       0x20
 .text.xTaskGetSchedulerState
                0x00009db4       0x20 build/default/debug/_ext/404212886/FreeRTOS_tasks.o
                0x00009db4                xTaskGetSchedulerState

.text.USR_MLME_PollConf%422
                0x00009dd4       0x20
 .text.USR_MLME_PollConf
                0x00009dd4       0x20 build/default/debug/_ext/85617168/usr_mac_callbacks.o
                0x00009dd4                USR_MLME_PollConf

.text.USR_MLME_ResetConf%423
                0x00009df4       0x20
 .text.USR_MLME_ResetConf
                0x00009df4       0x20 build/default/debug/_ext/85617168/usr_mac_callbacks.o
                0x00009df4                USR_MLME_ResetConf

.text.USR_MLME_SetConf%424
                0x00009e14       0x20
 .text.USR_MLME_SetConf
                0x00009e14       0x20 build/default/debug/_ext/85617168/usr_mac_callbacks.o
                0x00009e14                USR_MLME_SetConf

.rodata%425     0x00009e34       0x1e
 .rodata        0x00009e34       0x1e c:/program files/microchip/xc32/v4.35/bin/bin/../../lib/gcc/pic32c/8.3.1/../../../../pic32c/lib/thumb/v6-m/nofp\libg-musl.a(__printf_core.o)

.text.__dinit_copy%426
                0x00009e52       0x1e
 .text.__dinit_copy
                0x00009e52       0x1e c:/program files/microchip/xc32/v4.35/bin/bin/../../lib/gcc/pic32c/8.3.1/../../../../pic32c/lib/thumb/v6-m/nofp\libpic32c.a(pic32_data_init_copy.o)
                0x00009e52                __dinit_copy_needed
                0x00009e52                __dinit_copy

.text.WPAN_PostTask%427
                0x00009e70       0x1c
 .text.WPAN_PostTask
                0x00009e70       0x1c build/default/debug/_ext/1655452824/mac_task.o
                0x00009e70                WPAN_PostTask

.text.GenRxEnableConf%428
                0x00009e8c       0x1c
 .text.GenRxEnableConf
                0x00009e8c       0x1c build/default/debug/_ext/1655452824/mac_rx_enable.o

.text.PAL_TimerGetId%429
                0x00009ea8       0x1c
 .text.PAL_TimerGetId
                0x00009ea8       0x1c build/default/debug/_ext/745501718/pal.o
                0x00009ea8                PAL_TimerGetId

.text.tal_get_trx_status%430
                0x00009ec4       0x1c
 .text.tal_get_trx_status
                0x00009ec4       0x1c build/default/debug/_ext/559172130/phy_helper.o
                0x00009ec4                tal_get_trx_status

.text.SERCOM0_USART_WritePendingBytesGet%431
                0x00009ee0       0x1c
 .text.SERCOM0_USART_WritePendingBytesGet
                0x00009ee0       0x1c build/default/debug/_ext/504274921/plib_sercom0_usart.o

.text.SERCOM0_USART_ReadCountGet%432
                0x00009efc       0x1c
 .text.SERCOM0_USART_ReadCountGet
                0x00009efc       0x1c build/default/debug/_ext/504274921/plib_sercom0_usart.o
                0x00009efc                SERCOM0_USART_ReadCountGet

.text.SYS_INT_SourceRestore%433
                0x00009f18       0x1c
 .text.SYS_INT_SourceRestore
                0x00009f18       0x1c build/default/debug/_ext/1881668453/sys_int.o
                0x00009f18                SYS_INT_SourceRestore

.text.SYS_TIME_GetElapsedCount%434
                0x00009f34       0x1c
 .text.SYS_TIME_GetElapsedCount
                0x00009f34       0x1c build/default/debug/_ext/101884895/sys_time.o

.rodata.sysTimePlibAPI%435
                0x00009f50       0x1c
 .rodata.sysTimePlibAPI
                0x00009f50       0x1c build/default/debug/_ext/1171490990/initialization.o

.text.vTaskPlaceOnEventList%436
                0x00009f6c       0x1c
 .text.vTaskPlaceOnEventList
                0x00009f6c       0x1c build/default/debug/_ext/404212886/FreeRTOS_tasks.o
                0x00009f6c                vTaskPlaceOnEventList

.text.pvTaskIncrementMutexHeldCount%437
                0x00009f88       0x1c
 .text.pvTaskIncrementMutexHeldCount
                0x00009f88       0x1c build/default/debug/_ext/404212886/FreeRTOS_tasks.o
                0x00009f88                pvTaskIncrementMutexHeldCount

.text.APP_Initialize%438
                0x00009fa4       0x1c
 .text.APP_Initialize
                0x00009fa4       0x1c build/default/debug/_ext/1360937237/app.o
                0x00009fa4                APP_Initialize

.text.MAC_MLME_GetConf%439
                0x00009fc0       0x1a
 .text.MAC_MLME_GetConf
                0x00009fc0       0x1a build/default/debug/_ext/1655452824/mac_callback_wrapper.o
                0x00009fc0                MAC_MLME_GetConf

.text.OSAL_CRIT_Enter%440
                0x00009fda       0x1a
 .text.OSAL_CRIT_Enter
                0x00009fda       0x1a build/default/debug/_ext/1529399856/osal_freertos.o
                0x00009fda                OSAL_CRIT_Enter

.text.OSAL_MUTEX_Create%441
                0x00009ff4       0x1a
 .text.OSAL_MUTEX_Create
                0x00009ff4       0x1a build/default/debug/_ext/1529399856/osal_freertos.o
                0x00009ff4                OSAL_MUTEX_Create

.text.MAC_MCPS_DataConf%442
                0x0000a00e       0x18
 .text.MAC_MCPS_DataConf
                0x0000a00e       0x18 build/default/debug/_ext/1655452824/mac_callback_wrapper.o
                0x0000a00e                MAC_MCPS_DataConf

.text.MAC_MLME_DisassociateInd%443
                0x0000a026       0x18
 .text.MAC_MLME_DisassociateInd
                0x0000a026       0x18 build/default/debug/_ext/1655452824/mac_callback_wrapper.o
                0x0000a026                MAC_MLME_DisassociateInd

.text.trx_delay_micros%444
                0x0000a03e       0x18
 .text.trx_delay_micros
                0x0000a03e       0x18 build/default/debug/_ext/559172130/phy.o
                0x0000a03e                trx_delay_micros

.text.trx_irq_awake_handler_cb%445
                0x0000a058       0x18
 .text.trx_irq_awake_handler_cb
                0x0000a058       0x18 build/default/debug/_ext/559172130/phy_irq_handler.o
                0x0000a058                trx_irq_awake_handler_cb

.text.OSAL_QUEUE_Create%446
                0x0000a070       0x18
 .text.OSAL_QUEUE_Create
                0x0000a070       0x18 build/default/debug/_ext/1529399856/osal_freertos_extend.o
                0x0000a070                OSAL_QUEUE_Create

.text.OSAL_CRIT_Leave%447
                0x0000a088       0x18
 .text.OSAL_CRIT_Leave
                0x0000a088       0x18 build/default/debug/_ext/1529399856/osal_freertos.o
                0x0000a088                OSAL_CRIT_Leave

.text.OSAL_SEM_Post%448
                0x0000a0a0       0x18
 .text.OSAL_SEM_Post
                0x0000a0a0       0x18 build/default/debug/_ext/1529399856/osal_freertos.o
                0x0000a0a0                OSAL_SEM_Post

.text.OSAL_MUTEX_Unlock%449
                0x0000a0b8       0x18
 .text.OSAL_MUTEX_Unlock
                0x0000a0b8       0x18 build/default/debug/_ext/1529399856/osal_freertos.o
                0x0000a0b8                OSAL_MUTEX_Unlock

.text.TC3_TimerStart%450
                0x0000a0d0       0x18
 .text.TC3_TimerStart
                0x0000a0d0       0x18 build/default/debug/_ext/829342655/plib_tc3.o
                0x0000a0d0                TC3_TimerStart

.text.TC3_TimerStop%451
                0x0000a0e8       0x18
 .text.TC3_TimerStop
                0x0000a0e8       0x18 build/default/debug/_ext/829342655/plib_tc3.o
                0x0000a0e8                TC3_TimerStop

.text.Console_UART_ResourceLock%452
                0x0000a100       0x18
 .text.Console_UART_ResourceLock
                0x0000a100       0x18 build/default/debug/_ext/1832805299/sys_console_uart.o

.text.SYS_TIME_DelayIsComplete%453
                0x0000a118       0x18
 .text.SYS_TIME_DelayIsComplete
                0x0000a118       0x18 build/default/debug/_ext/101884895/sys_time.o
                0x0000a118                SYS_TIME_DelayIsComplete

.rodata.sysConsole0UARTPlibAPI%454
                0x0000a130       0x18
 .rodata.sysConsole0UARTPlibAPI
                0x0000a130       0x18 build/default/debug/_ext/1171490990/initialization.o

.text.vPortYield%455
                0x0000a148       0x18
 .text.vPortYield
                0x0000a148       0x18 build/default/debug/_ext/1624415188/port.o
                0x0000a148                vPortYield

.text.vPortEnterCritical%456
                0x0000a160       0x18
 .text.vPortEnterCritical
                0x0000a160       0x18 build/default/debug/_ext/1624415188/port.o
                0x0000a160                vPortEnterCritical

.text.vTaskInternalSetTimeOutState%457
                0x0000a178       0x18
 .text.vTaskInternalSetTimeOutState
                0x0000a178       0x18 build/default/debug/_ext/404212886/FreeRTOS_tasks.o
                0x0000a178                vTaskInternalSetTimeOutState

.text.rand%458  0x0000a190       0x18
 .text.rand     0x0000a190       0x18 c:/program files/microchip/xc32/v4.35/bin/bin/../../lib/gcc/pic32c/8.3.1/../../../../pic32c/lib/thumb/v6-m/nofp\libg-musl.a(rand.o)
                0x0000a190                rand

.text.strlen%459
                0x0000a1a8       0x18
 .text.strlen   0x0000a1a8       0x18 c:/program files/microchip/xc32/v4.35/bin/bin/../../lib/gcc/pic32c/8.3.1/../../../../pic32c/lib/thumb/v6-m/nofp\libg-musl.a(strlen.o)
                0x0000a1a8                strlen

.text.vfprintf%460
                0x0000a1c0       0x18
 .text.vfprintf
                0x0000a1c0       0x18 c:/program files/microchip/xc32/v4.35/bin/bin/../../lib/gcc/pic32c/8.3.1/../../../../pic32c/lib/thumb/v6-m/nofp\libg-musl.a(vfprintf.o)
                0x0000a1c0                vfprintf

.text%461       0x0000a1d8       0x18
 .text          0x0000a1d8       0x18 c:/program files/microchip/xc32/v4.35/bin/bin/../../lib/gcc/pic32c/8.3.1/thumb/v6-m/nofp\libgcc.a(_lshrdi3.o)
                0x0000a1d8                __lshrdi3
                0x0000a1d8                __aeabi_llsr

.text%462       0x0000a1f0       0x18
 .text          0x0000a1f0       0x18 c:/program files/microchip/xc32/v4.35/bin/bin/../../lib/gcc/pic32c/8.3.1/thumb/v6-m/nofp\libgcc.a(_ashldi3.o)
                0x0000a1f0                __aeabi_llsl
                0x0000a1f0                __ashldi3

.text%463       0x0000a208       0x18
 .text          0x0000a208       0x18 c:/program files/microchip/xc32/v4.35/bin/bin/../../lib/gcc/pic32c/8.3.1/thumb/v6-m/nofp\libgcc.a(_clzdi2.o)
                0x0000a208                __clzdi2

.text.MAC_MLME_AssociateConf%464
                0x0000a220       0x16
 .text.MAC_MLME_AssociateConf
                0x0000a220       0x16 build/default/debug/_ext/1655452824/mac_callback_wrapper.o
                0x0000a220                MAC_MLME_AssociateConf

.text.MAC_MLME_SetConf%465
                0x0000a236       0x16
 .text.MAC_MLME_SetConf
                0x0000a236       0x16 build/default/debug/_ext/1655452824/mac_callback_wrapper.o
                0x0000a236                MAC_MLME_SetConf

.text.OSAL_QUEUE_SelectFromSet%466
                0x0000a24c       0x16
 .text.OSAL_QUEUE_SelectFromSet
                0x0000a24c       0x16 build/default/debug/_ext/1529399856/osal_freertos_extend.o
                0x0000a24c                OSAL_QUEUE_SelectFromSet

.text.xQueueSelectFromSet%467
                0x0000a262       0x16
 .text.xQueueSelectFromSet
                0x0000a262       0x16 build/default/debug/_ext/404212886/queue.o
                0x0000a262                xQueueSelectFromSet

.text.vListInitialise%468
                0x0000a278       0x16
 .text.vListInitialise
                0x0000a278       0x16 build/default/debug/_ext/404212886/list.o
                0x0000a278                vListInitialise

.text.vListInsertEnd%469
                0x0000a28e       0x16
 .text.vListInsertEnd
                0x0000a28e       0x16 build/default/debug/_ext/404212886/list.o
                0x0000a28e                vListInsertEnd

.text.MAC_MLME_PollConf%470
                0x0000a2a4       0x14
 .text.MAC_MLME_PollConf
                0x0000a2a4       0x14 build/default/debug/_ext/1655452824/mac_callback_wrapper.o
                0x0000a2a4                MAC_MLME_PollConf

.text.MAC_MLME_ResetConf%471
                0x0000a2b8       0x14
 .text.MAC_MLME_ResetConf
                0x0000a2b8       0x14 build/default/debug/_ext/1655452824/mac_callback_wrapper.o
                0x0000a2b8                MAC_MLME_ResetConf

.text.MAC_MLME_RxEnableConf%472
                0x0000a2cc       0x14
 .text.MAC_MLME_RxEnableConf
                0x0000a2cc       0x14 build/default/debug/_ext/1655452824/mac_callback_wrapper.o
                0x0000a2cc                MAC_MLME_RxEnableConf

.text.WPAN_Init%473
                0x0000a2e0       0x14
 .text.WPAN_Init
                0x0000a2e0       0x14 build/default/debug/_ext/1655452824/mac_api.o
                0x0000a2e0                WPAN_Init

.text.OSAL_QUEUE_CreateSet%474
                0x0000a2f4       0x14
 .text.OSAL_QUEUE_CreateSet
                0x0000a2f4       0x14 build/default/debug/_ext/1529399856/osal_freertos_extend.o
                0x0000a2f4                OSAL_QUEUE_CreateSet

.text.OSAL_QUEUE_AddToSet%475
                0x0000a308       0x14
 .text.OSAL_QUEUE_AddToSet
                0x0000a308       0x14 build/default/debug/_ext/1529399856/osal_freertos_extend.o
                0x0000a308                OSAL_QUEUE_AddToSet

.text.NVIC_INT_Restore%476
                0x0000a31c       0x14
 .text.NVIC_INT_Restore
                0x0000a31c       0x14 build/default/debug/_ext/1865468468/plib_nvic.o
                0x0000a31c                NVIC_INT_Restore

.text.SERCOM0_USART_ReadFreeBufferCountGet%477
                0x0000a330       0x14
 .text.SERCOM0_USART_ReadFreeBufferCountGet
                0x0000a330       0x14 build/default/debug/_ext/504274921/plib_sercom0_usart.o
                0x0000a330                SERCOM0_USART_ReadFreeBufferCountGet

.text.SERCOM0_USART_WriteFreeBufferCountGet%478
                0x0000a344       0x14
 .text.SERCOM0_USART_WriteFreeBufferCountGet
                0x0000a344       0x14 build/default/debug/_ext/504274921/plib_sercom0_usart.o
                0x0000a344                SERCOM0_USART_WriteFreeBufferCountGet

.text.TC3_Timer16bitPeriodSet%479
                0x0000a358       0x14
 .text.TC3_Timer16bitPeriodSet
                0x0000a358       0x14 build/default/debug/_ext/829342655/plib_tc3.o
                0x0000a358                TC3_Timer16bitPeriodSet

.text.TC3_Timer16bitCompareSet%480
                0x0000a36c       0x14
 .text.TC3_Timer16bitCompareSet
                0x0000a36c       0x14 build/default/debug/_ext/829342655/plib_tc3.o
                0x0000a36c                TC3_Timer16bitCompareSet

.text.Console_UART_Status%481
                0x0000a380       0x14
 .text.Console_UART_Status
                0x0000a380       0x14 build/default/debug/_ext/1832805299/sys_console_uart.o
                0x0000a380                Console_UART_Status

.text.vPortExitCritical%482
                0x0000a394       0x14
 .text.vPortExitCritical
                0x0000a394       0x14 build/default/debug/_ext/1624415188/port.o
                0x0000a394                vPortExitCritical

.text.prvIsQueueEmpty%483
                0x0000a3a8       0x14
 .text.prvIsQueueEmpty
                0x0000a3a8       0x14 build/default/debug/_ext/404212886/queue.o

.text.xQueueCreateCountingSemaphore%484
                0x0000a3bc       0x14
 .text.xQueueCreateCountingSemaphore
                0x0000a3bc       0x14 build/default/debug/_ext/404212886/queue.o
                0x0000a3bc                xQueueCreateCountingSemaphore

.rodata%485     0x0000a3d0       0x14
 .rodata        0x0000a3d0       0x14 c:/program files/microchip/xc32/v4.35/bin/bin/../../lib/gcc/pic32c/8.3.1/../../../../pic32c/lib/thumb/v6-m/nofp\libpic32c.a(data_init.o)

.text.memcpy%486
                0x0000a3e4       0x14
 .text.memcpy   0x0000a3e4       0x14 c:/program files/microchip/xc32/v4.35/bin/bin/../../lib/gcc/pic32c/8.3.1/../../../../pic32c/lib/thumb/v6-m/nofp\libg-musl.a(memcpy.o)
                0x0000a3e4                memcpy

.text.memset%487
                0x0000a3f8       0x14
 .text.memset   0x0000a3f8       0x14 c:/program files/microchip/xc32/v4.35/bin/bin/../../lib/gcc/pic32c/8.3.1/../../../../pic32c/lib/thumb/v6-m/nofp\libg-musl.a(memset.o)
                0x0000a3f8                memset

.text.stpcpy%488
                0x0000a40c       0x14
 .text.stpcpy   0x0000a40c       0x14 c:/program files/microchip/xc32/v4.35/bin/bin/../../lib/gcc/pic32c/8.3.1/../../../../pic32c/lib/thumb/v6-m/nofp\libg-musl.a(stpcpy.o)
                0x0000a40c                __stpcpy
                0x0000a40c                stpcpy

.text.MAC_MLME_SyncLossInd%489
                0x0000a420       0x12
 .text.MAC_MLME_SyncLossInd
                0x0000a420       0x12 build/default/debug/_ext/1655452824/mac_callback_wrapper.o
                0x0000a420                MAC_MLME_SyncLossInd

.text.trx_reg_bit_read%490
                0x0000a432       0x12
 .text.trx_reg_bit_read
                0x0000a432       0x12 build/default/debug/_ext/559172130/phy_trx_reg_access.o
                0x0000a432                trx_reg_bit_read

.text.OSAL_QUEUE_IsFullISR%491
                0x0000a444       0x12
 .text.OSAL_QUEUE_IsFullISR
                0x0000a444       0x12 build/default/debug/_ext/1529399856/osal_freertos_extend.o
                0x0000a444                OSAL_QUEUE_IsFullISR

.text.OSAL_SEM_GetCount%492
                0x0000a456       0x12
 .text.OSAL_SEM_GetCount
                0x0000a456       0x12 build/default/debug/_ext/1529399856/osal_freertos.o
                0x0000a456                OSAL_SEM_GetCount

.text.NVIC_INT_Disable%493
                0x0000a468       0x12
 .text.NVIC_INT_Disable
                0x0000a468       0x12 build/default/debug/_ext/1865468468/plib_nvic.o
                0x0000a468                NVIC_INT_Disable

.text.prvTaskExitError%494
                0x0000a47a       0x12
 .text.prvTaskExitError
                0x0000a47a       0x12 build/default/debug/_ext/1624415188/port.o

.text.uxQueueMessagesWaiting%495
                0x0000a48c       0x12
 .text.uxQueueMessagesWaiting
                0x0000a48c       0x12 build/default/debug/_ext/404212886/queue.o
                0x0000a48c                uxQueueMessagesWaiting

.text.__dinit_clear%496
                0x0000a49e       0x12
 .text.__dinit_clear
                0x0000a49e       0x12 c:/program files/microchip/xc32/v4.35/bin/bin/../../lib/gcc/pic32c/8.3.1/../../../../pic32c/lib/thumb/v6-m/nofp\libpic32c.a(pic32_data_init_clear.o)
                0x0000a49e                __dinit_clear
                0x0000a49e                __dinit_clear_needed

.rodata.tx_pwr_table%497
                0x0000a4b0       0x10
 .rodata.tx_pwr_table
                0x0000a4b0       0x10 build/default/debug/_ext/559172130/phy_pib.o
                0x0000a4b0                tx_pwr_table

.text.EIC_InterruptEnable%498
                0x0000a4c0       0x10
 .text.EIC_InterruptEnable
                0x0000a4c0       0x10 build/default/debug/_ext/60167341/plib_eic.o
                0x0000a4c0                EIC_InterruptEnable

.text.EIC_InterruptDisable%499
                0x0000a4d0       0x10
 .text.EIC_InterruptDisable
                0x0000a4d0       0x10 build/default/debug/_ext/60167341/plib_eic.o
                0x0000a4d0                EIC_InterruptDisable

.text.SERCOM4_SPI_Read%500
                0x0000a4e0       0x10
 .text.SERCOM4_SPI_Read
                0x0000a4e0       0x10 build/default/debug/_ext/17022449/plib_sercom4_spi_master.o
                0x0000a4e0                SERCOM4_SPI_Read

.text.vTaskSuspendAll%501
                0x0000a4f0       0x10
 .text.vTaskSuspendAll
                0x0000a4f0       0x10 build/default/debug/_ext/404212886/FreeRTOS_tasks.o
                0x0000a4f0                vTaskSuspendAll

.text.Handle_PollConf%502
                0x0000a500       0x10
 .text.Handle_PollConf
                0x0000a500       0x10 build/default/debug/_ext/85617168/demo_app_rfd.o
                0x0000a500                Handle_PollConf

.rodata%503     0x0000a510       0x10
 .rodata        0x0000a510       0x10 c:/program files/microchip/xc32/v4.35/bin/bin/../../lib/gcc/pic32c/8.3.1/../../../../pic32c/lib/thumb/v6-m/nofp\libg-musl.a(__fmt_a.o)

.rodata%504     0x0000a520       0x10
 .rodata        0x0000a520       0x10 c:/program files/microchip/xc32/v4.35/bin/bin/../../lib/gcc/pic32c/8.3.1/../../../../pic32c/lib/thumb/v6-m/nofp\libg-musl.a(__fmt_fp.o)

.text.fma%505   0x0000a530       0x10
 .text.fma      0x0000a530       0x10 c:/program files/microchip/xc32/v4.35/bin/bin/../../lib/gcc/pic32c/8.3.1/../../../../pic32c/lib/thumb/v6-m/nofp\libm-fast-emfloat.a(fma.o)
                0x0000a530                fma

.text.__aeabi_dsub%506
                0x0000a540       0x10
 .text.__aeabi_dsub
                0x0000a540       0x10 c:/program files/microchip/xc32/v4.35/bin/bin/../../lib/gcc/pic32c/8.3.1/../../../../pic32c/lib/thumb/v6-m/nofp\libm-fast-emfloat.a(__aeabi_dsub.o)
                0x0000a540                __aeabi_dsub

.text.main%507  0x0000a550        0xe
 .text.main     0x0000a550        0xe build/default/debug/_ext/1360937237/main.o
                0x0000a550                main

.text.tolower%508
                0x0000a55e        0xe
 .text.tolower  0x0000a55e        0xe c:/program files/microchip/xc32/v4.35/bin/bin/../../lib/gcc/pic32c/8.3.1/../../../../pic32c/lib/thumb/v6-m/nofp\libg-musl.a(tolower.o)
                0x0000a55e                tolower

.text.toupper%509
                0x0000a56c        0xe
 .text.toupper  0x0000a56c        0xe c:/program files/microchip/xc32/v4.35/bin/bin/../../lib/gcc/pic32c/8.3.1/../../../../pic32c/lib/thumb/v6-m/nofp\libg-musl.a(toupper.o)
                0x0000a56c                toupper

.text.PAL_GetCurrentTime%510
                0x0000a57a        0xc
 .text.PAL_GetCurrentTime
                0x0000a57a        0xc build/default/debug/_ext/745501718/pal.o
                0x0000a57a                PAL_GetCurrentTime

.text.qmm_queue_init%511
                0x0000a586        0xc
 .text.qmm_queue_init
                0x0000a586        0xc build/default/debug/_ext/874725666/qmm.o
                0x0000a586                qmm_queue_init

.text.NVMCTRL_Initialize%512
                0x0000a594        0xc
 .text.NVMCTRL_Initialize
                0x0000a594        0xc build/default/debug/_ext/1593096446/plib_nvmctrl.o
                0x0000a594                NVMCTRL_Initialize

.text.SERCOM4_SPI_Write%513
                0x0000a5a0        0xc
 .text.SERCOM4_SPI_Write
                0x0000a5a0        0xc build/default/debug/_ext/17022449/plib_sercom4_spi_master.o
                0x0000a5a0                SERCOM4_SPI_Write

.text.TC3_TimerCallbackRegister%514
                0x0000a5ac        0xc
 .text.TC3_TimerCallbackRegister
                0x0000a5ac        0xc build/default/debug/_ext/829342655/plib_tc3.o
                0x0000a5ac                TC3_TimerCallbackRegister

.rodata.sysConsole0Init%515
                0x0000a5b8        0xc
 .rodata.sysConsole0Init
                0x0000a5b8        0xc build/default/debug/_ext/1171490990/initialization.o

.text.xTaskGetTickCount%516
                0x0000a5c4        0xc
 .text.xTaskGetTickCount
                0x0000a5c4        0xc build/default/debug/_ext/404212886/FreeRTOS_tasks.o
                0x0000a5c4                xTaskGetTickCount

.text.vTaskMissedYield%517
                0x0000a5d0        0xc
 .text.vTaskMissedYield
                0x0000a5d0        0xc build/default/debug/_ext/404212886/FreeRTOS_tasks.o
                0x0000a5d0                vTaskMissedYield

.text.xQueueIsQueueFullFromISR%518
                0x0000a5dc        0xc
 .text.xQueueIsQueueFullFromISR
                0x0000a5dc        0xc build/default/debug/_ext/404212886/queue.o
                0x0000a5dc                xQueueIsQueueFullFromISR

.text.xQueueCreateSet%519
                0x0000a5e8        0xc
 .text.xQueueCreateSet
                0x0000a5e8        0xc build/default/debug/_ext/404212886/queue.o
                0x0000a5e8                xQueueCreateSet

.text.srand%520
                0x0000a5f4        0xc
 .text.srand    0x0000a5f4        0xc c:/program files/microchip/xc32/v4.35/bin/bin/../../lib/gcc/pic32c/8.3.1/../../../../pic32c/lib/thumb/v6-m/nofp\libg-musl.a(rand.o)
                0x0000a5f4                srand

.text.strcpy%521
                0x0000a600        0xc
 .text.strcpy   0x0000a600        0xc c:/program files/microchip/xc32/v4.35/bin/bin/../../lib/gcc/pic32c/8.3.1/../../../../pic32c/lib/thumb/v6-m/nofp\libg-musl.a(strcpy.o)
                0x0000a600                strcpy

.text.EIC_interrupt_cb%522
                0x0000a60c        0xa
 .text.EIC_interrupt_cb
                0x0000a60c        0xa build/default/debug/_ext/559172130/phy_irq_handler.o
                0x0000a60c                EIC_interrupt_cb

.rodata.phy_PibSize%523
                0x0000a618        0x8
 .rodata.phy_PibSize
                0x0000a618        0x8 build/default/debug/_ext/1655452824/mac_pib.o

.text.TAL_TaskHandler%524
                0x0000a620        0x8
 .text.TAL_TaskHandler
                0x0000a620        0x8 build/default/debug/_ext/559172130/phy.o
                0x0000a620                TAL_TaskHandler

.text.OSAL_Malloc%525
                0x0000a628        0x8
 .text.OSAL_Malloc
                0x0000a628        0x8 build/default/debug/_ext/1529399856/osal_freertos.o
                0x0000a628                OSAL_Malloc

.text.OSAL_Free%526
                0x0000a630        0x8
 .text.OSAL_Free
                0x0000a630        0x8 build/default/debug/_ext/1529399856/osal_freertos.o
                0x0000a630                OSAL_Free

.text.SERCOM0_USART_WriteCountGet%527
                0x0000a638        0x8
 .text.SERCOM0_USART_WriteCountGet
                0x0000a638        0x8 build/default/debug/_ext/504274921/plib_sercom0_usart.o
                0x0000a638                SERCOM0_USART_WriteCountGet

.text.TC3_TimerFrequencyGet%528
                0x0000a640        0x8
 .text.TC3_TimerFrequencyGet
                0x0000a640        0x8 build/default/debug/_ext/829342655/plib_tc3.o
                0x0000a640                TC3_TimerFrequencyGet

.text.SYS_INT_Disable%529
                0x0000a648        0x8
 .text.SYS_INT_Disable
                0x0000a648        0x8 build/default/debug/_ext/1881668453/sys_int.o
                0x0000a648                SYS_INT_Disable

.text.SYS_INT_Restore%530
                0x0000a650        0x8
 .text.SYS_INT_Restore
                0x0000a650        0x8 build/default/debug/_ext/1881668453/sys_int.o
                0x0000a650                SYS_INT_Restore

.text.SYS_TIME_CounterGet%531
                0x0000a658        0x8
 .text.SYS_TIME_CounterGet
                0x0000a658        0x8 build/default/debug/_ext/101884895/sys_time.o
                0x0000a658                SYS_TIME_CounterGet

.rodata.sysTimeInitData%532
                0x0000a660        0x8
 .rodata.sysTimeInitData
                0x0000a660        0x8 build/default/debug/_ext/1171490990/initialization.o

.text.lAPP_Tasks%533
                0x0000a668        0x8
 .text.lAPP_Tasks
                0x0000a668        0x8 build/default/debug/_ext/1171490990/tasks.o

.text._TAL_Tasks%534
                0x0000a670        0x8
 .text._TAL_Tasks
                0x0000a670        0x8 build/default/debug/_ext/1171490990/tasks.o

.text._WPAN_Tasks%535
                0x0000a678        0x8
 .text._WPAN_Tasks
                0x0000a678        0x8 build/default/debug/_ext/1171490990/tasks.o

.text.ulSetInterruptMaskFromISR%536
                0x0000a680        0x8
 .text.ulSetInterruptMaskFromISR
                0x0000a680        0x8 build/default/debug/_ext/1624415188/port.o
                0x0000a680                ulSetInterruptMaskFromISR

.rodata%537     0x0000a688        0x8
 .rodata        0x0000a688        0x8 build/default/debug/_ext/404212886/FreeRTOS_tasks.o

.rodata%538     0x0000a690        0x8
 .rodata        0x0000a690        0x8 build/default/debug/_ext/404212886/timers.o

.rodata%539     0x0000a698        0x7
 .rodata        0x0000a698        0x7 c:/program files/microchip/xc32/v4.35/bin/bin/../../lib/gcc/pic32c/8.3.1/../../../../pic32c/lib/thumb/v6-m/nofp\libg-musl.a(__fmt_s.o)

.text.trx_delay_loop%540
                0x0000a6a0        0x6
 .text.trx_delay_loop
                0x0000a6a0        0x6 build/default/debug/_ext/559172130/phy.o
                0x0000a6a0                trx_delay_loop

.text.vClearInterruptMaskFromISR%541
                0x0000a6a6        0x6
 .text.vClearInterruptMaskFromISR
                0x0000a6a6        0x6 build/default/debug/_ext/1624415188/port.o
                0x0000a6a6                vClearInterruptMaskFromISR

.text.vListInitialiseItem%542
                0x0000a6ac        0x6
 .text.vListInitialiseItem
                0x0000a6ac        0x6 build/default/debug/_ext/404212886/list.o
                0x0000a6ac                vListInitialiseItem

.text.Console_UART_Flush%543
                0x000087bc        0x4
 .text.Console_UART_Flush
                0x000087bc        0x4 build/default/debug/_ext/1832805299/sys_console_uart.o
                0x000087bc                Console_UART_Flush

.text.NonMaskableInt_Handler%544
                0x0000a6b2        0x4
 .text.NonMaskableInt_Handler
                0x0000a6b2        0x4 build/default/debug/_ext/1171490990/exceptions.o
                0x0000a6b2                NonMaskableInt_Handler

.text.HardFault_Handler%545
                0x0000a6b6        0x4
 .text.HardFault_Handler
                0x0000a6b6        0x4 build/default/debug/_ext/1171490990/exceptions.o
                0x0000a6b6                HardFault_Handler

.text.vApplicationStackOverflowHook%546
                0x0000a6ba        0x4
 .text.vApplicationStackOverflowHook
                0x0000a6ba        0x4 build/default/debug/_ext/1171490990/freertos_hooks.o
                0x0000a6ba                vApplicationStackOverflowHook

.text.vApplicationMallocFailedHook%547
                0x0000a6be        0x4
 .text.vApplicationMallocFailedHook
                0x0000a6be        0x4 build/default/debug/_ext/1171490990/freertos_hooks.o
                0x0000a6be                vApplicationMallocFailedHook

.rodata.sysConsole0UARTInitData%548
                0x0000a6c4        0x4
 .rodata.sysConsole0UARTInitData
                0x0000a6c4        0x4 build/default/debug/_ext/1171490990/initialization.o

.text.__dummy_decompress%549
                0x0000a6c8        0x4
 .text.__dummy_decompress
                0x0000a6c8        0x4 c:/program files/microchip/xc32/v4.35/bin/bin/../../lib/gcc/pic32c/8.3.1/../../../../pic32c/lib/thumb/v6-m/nofp\libpic32c.a(data_init.o)
                0x0000a6c8                __dinit_decompress
                0x0000a6c8                __dinit_copy_val_data
                0x0000a6c8                __dinit_copy_emb

.text%550       0x0000a6cc        0x4
 .text          0x0000a6cc        0x4 c:/program files/microchip/xc32/v4.35/bin/bin/../../lib/gcc/pic32c/8.3.1/thumb/v6-m/nofp\libgcc.a(_dvmd_tls.o)
                0x0000a6cc                __aeabi_idiv0
                0x0000a6cc                __aeabi_ldiv0

.text.USR_MLME_SyncLossInd%551
                0x000033ba        0x2
 .text.USR_MLME_SyncLossInd
                0x000033ba        0x2 build/default/debug/_ext/1655452824/usr_mlme_sync_loss_ind.o
                0x000033ba                USR_MLME_SyncLossInd

.text.PHY_EdEndCallback%552
                0x00003e6e        0x2
 .text.PHY_EdEndCallback
                0x00003e6e        0x2 build/default/debug/_ext/957911548/phy_ed_end_cb.o
                0x00003e6e                PHY_EdEndCallback

.text.Console_UART_Tasks%553
                0x000040d6        0x2
 .text.Console_UART_Tasks
                0x000040d6        0x2 build/default/debug/_ext/1832805299/sys_console_uart.o
                0x000040d6                Console_UART_Tasks

.text.vApplicationIdleHook%554
                0x00004dc2        0x2
 .text.vApplicationIdleHook
                0x00004dc2        0x2 build/default/debug/_ext/1171490990/freertos_hooks.o
                0x00004dc2                vApplicationIdleHook

.text.vApplicationTickHook%555
                0x000055c6        0x2
 .text.vApplicationTickHook
                0x000055c6        0x2 build/default/debug/_ext/1171490990/freertos_hooks.o
                0x000055c6                vApplicationTickHook

.text.Dummy_Handler%556
                0x00005abe        0x2
 .text.Dummy_Handler
                0x00005abe        0x2 build/default/debug/_ext/1171490990/interrupts.o
                0x00005abe                DMAC_Handler
                0x00005abe                AC_Handler
                0x00005abe                SERCOM1_Handler
                0x00005abe                ADC_Handler
                0x00005abe                TCC1_Handler
                0x00005abe                SERCOM2_Handler
                0x00005abe                TCC0_Handler
                0x00005abe                RTC_Handler
                0x00005abe                WDT_Handler
                0x00005abe                TC4_Handler
                0x00005abe                USB_Handler
                0x00005abe                Dummy_Handler
                0x00005abe                PM_Handler
                0x00005abe                SERCOM5_Handler
                0x00005abe                TCC2_Handler
                0x00005abe                EVSYS_Handler
                0x00005abe                SERCOM3_Handler
                0x00005abe                NVMCTRL_Handler
                0x00005abe                PTC_Handler
                0x00005abe                TC5_Handler
                0x00005abe                SYSCTRL_Handler

.text.Dummy_App_Func%557
                0x000060a6        0x2
 .text.Dummy_App_Func
                0x000060a6        0x2 build/default/debug/_ext/1171490990/startup_xc32.o
                0x000060a6                _on_reset
                0x000060a6                _on_bootstrap
                0x000060a6                __xc32_on_reset
                0x000060a6                Dummy_App_Func
                0x000060a6                __xc32_on_bootstrap

.text.vPortSVCHandler%558
                0x0000704e        0x2
 .text.vPortSVCHandler
                0x0000704e        0x2 build/default/debug/_ext/1624415188/port.o
                0x0000704e                vPortSVCHandler

.text.Timer_Callback%559
                0x000072d6        0x2
 .text.Timer_Callback
                0x000072d6        0x2 build/default/debug/_ext/85617168/demo_app_rfd.o

.text.USR_MLME_DisassociateConf%560
                0x0000753a        0x2
 .text.USR_MLME_DisassociateConf
                0x0000753a        0x2 build/default/debug/_ext/85617168/usr_mac_callbacks.o
                0x0000753a                USR_MLME_DisassociateConf

.text.USR_MLME_DisassociateInd%561
                0x00007ac2        0x2
 .text.USR_MLME_DisassociateInd
                0x00007ac2        0x2 build/default/debug/_ext/85617168/usr_mac_callbacks.o
                0x00007ac2                USR_MLME_DisassociateInd

.text.USR_MLME_RxEnableConf%562
                0x000082a6        0x2
 .text.USR_MLME_RxEnableConf
                0x000082a6        0x2 build/default/debug/_ext/85617168/usr_mac_callbacks.o
                0x000082a6                USR_MLME_RxEnableConf

.text.__dummy%563
                0x00008622        0x2
 .text.__dummy  0x00008622        0x2 c:/program files/microchip/xc32/v4.35/bin/bin/../../lib/gcc/pic32c/8.3.1/../../../../pic32c/lib/thumb/v6-m/nofp\libg-musl.a(__libc_start_main.o)
                0x00008622                __init_stdio
                0x00008622                __init_host
