Archive member included to satisfy reference by file (symbol)

c:/program files/microchip/xc32/v4.35/bin/bin/../../lib/gcc/pic32c/8.3.1/../../../../pic32c/lib/thumb/v6-m/nofp\libpic32c.a(data_init.o)
                              build/default/production/_ext/1171490990/startup_xc32.o (__pic32c_data_initialization)
c:/program files/microchip/xc32/v4.35/bin/bin/../../lib/gcc/pic32c/8.3.1/../../../../pic32c/lib/thumb/v6-m/nofp\libm-fast-emfloat.a(__aeabi_fadd.o)
                              build/default/production/_ext/559172130/phy_helper.o (__aeabi_fadd)
c:/program files/microchip/xc32/v4.35/bin/bin/../../lib/gcc/pic32c/8.3.1/../../../../pic32c/lib/thumb/v6-m/nofp\libm-fast-emfloat.a(__aeabi_dadd.o)
                              build/default/production/_ext/559172130/phy_helper.o (__aeabi_dadd)
c:/program files/microchip/xc32/v4.35/bin/bin/../../lib/gcc/pic32c/8.3.1/../../../../pic32c/lib/thumb/v6-m/nofp\libm-fast-emfloat.a(__aeabi_fsub.o)
                              build/default/production/_ext/559172130/phy_helper.o (__aeabi_fsub)
c:/program files/microchip/xc32/v4.35/bin/bin/../../lib/gcc/pic32c/8.3.1/../../../../pic32c/lib/thumb/v6-m/nofp\libm-fast-emfloat.a(__aeabi_fmul.o)
                              build/default/production/_ext/559172130/phy_helper.o (__aeabi_fmul)
c:/program files/microchip/xc32/v4.35/bin/bin/../../lib/gcc/pic32c/8.3.1/../../../../pic32c/lib/thumb/v6-m/nofp\libm-fast-emfloat.a(__aeabi_dmul_aux.o)
                              build/default/production/_ext/559172130/phy_helper.o (__aeabi_dmul)
c:/program files/microchip/xc32/v4.35/bin/bin/../../lib/gcc/pic32c/8.3.1/../../../../pic32c/lib/thumb/v6-m/nofp\libm-fast-emfloat.a(__aeabi_fcmple.o)
                              build/default/production/_ext/559172130/phy_helper.o (__aeabi_fcmple)
c:/program files/microchip/xc32/v4.35/bin/bin/../../lib/gcc/pic32c/8.3.1/../../../../pic32c/lib/thumb/v6-m/nofp\libm-fast-emfloat.a(__aeabi_fcmpge.o)
                              build/default/production/_ext/559172130/phy_helper.o (__aeabi_fcmpge)
c:/program files/microchip/xc32/v4.35/bin/bin/../../lib/gcc/pic32c/8.3.1/../../../../pic32c/lib/thumb/v6-m/nofp\libm-fast-emfloat.a(__aeabi_f2iz.o)
                              build/default/production/_ext/559172130/phy_helper.o (__aeabi_f2iz)
c:/program files/microchip/xc32/v4.35/bin/bin/../../lib/gcc/pic32c/8.3.1/../../../../pic32c/lib/thumb/v6-m/nofp\libm-fast-emfloat.a(__aeabi_f2uiz.o)
                              build/default/production/_ext/559172130/phy_helper.o (__aeabi_f2uiz)
c:/program files/microchip/xc32/v4.35/bin/bin/../../lib/gcc/pic32c/8.3.1/../../../../pic32c/lib/thumb/v6-m/nofp\libm-fast-emfloat.a(__aeabi_i2f.o)
                              build/default/production/_ext/559172130/phy_helper.o (__aeabi_i2f)
c:/program files/microchip/xc32/v4.35/bin/bin/../../lib/gcc/pic32c/8.3.1/../../../../pic32c/lib/thumb/v6-m/nofp\libm-fast-emfloat.a(__aeabi_i2d.o)
                              build/default/production/_ext/559172130/phy_helper.o (__aeabi_i2d)
c:/program files/microchip/xc32/v4.35/bin/bin/../../lib/gcc/pic32c/8.3.1/../../../../pic32c/lib/thumb/v6-m/nofp\libm-fast-emfloat.a(__aeabi_ui2d.o)
                              c:/program files/microchip/xc32/v4.35/bin/bin/../../lib/gcc/pic32c/8.3.1/../../../../pic32c/lib/thumb/v6-m/nofp\libm-fast-emfloat.a(__aeabi_i2d.o) (__aeabi_ui2d)
c:/program files/microchip/xc32/v4.35/bin/bin/../../lib/gcc/pic32c/8.3.1/../../../../pic32c/lib/thumb/v6-m/nofp\libm-fast-emfloat.a(__aeabi_d2f.o)
                              build/default/production/_ext/559172130/phy_helper.o (__aeabi_d2f)
c:/program files/microchip/xc32/v4.35/bin/bin/../../lib/gcc/pic32c/8.3.1/../../../../pic32c/lib/thumb/v6-m/nofp\libc-musl.a(__libc_start_main.o)
                              build/default/production/_ext/1171490990/startup_xc32.o (__libc_init_array)
c:/program files/microchip/xc32/v4.35/bin/bin/../../lib/gcc/pic32c/8.3.1/../../../../pic32c/lib/thumb/v6-m/nofp\libc-musl.a(libc.o)
                              c:/program files/microchip/xc32/v4.35/bin/bin/../../lib/gcc/pic32c/8.3.1/../../../../pic32c/lib/thumb/v6-m/nofp\libc-musl.a(__libc_start_main.o) (__progname_full)
c:/program files/microchip/xc32/v4.35/bin/bin/../../lib/gcc/pic32c/8.3.1/../../../../pic32c/lib/thumb/v6-m/nofp\libc-musl.a(rand.o)
                              build/default/production/_ext/559172130/phy_init.o (srand)
c:/program files/microchip/xc32/v4.35/bin/bin/../../lib/gcc/pic32c/8.3.1/../../../../pic32c/lib/thumb/v6-m/nofp\libc-musl.a(memcmp.o)
                              build/default/production/_ext/1181623987/miwi_app.o (memcmp)
c:/program files/microchip/xc32/v4.35/bin/bin/../../lib/gcc/pic32c/8.3.1/../../../../pic32c/lib/thumb/v6-m/nofp\libc-musl.a(memcpy.o)
                              build/default/production/_ext/745501718/pal.o (memcpy)
c:/program files/microchip/xc32/v4.35/bin/bin/../../lib/gcc/pic32c/8.3.1/../../../../pic32c/lib/thumb/v6-m/nofp\libc-musl.a(memset.o)
                              build/default/production/_ext/1181623987/miwi_mesh_routing.o (memset)
c:/program files/microchip/xc32/v4.35/bin/bin/../../lib/gcc/pic32c/8.3.1/../../../../pic32c/lib/thumb/v6-m/nofp\libc-musl.a(__environ.o)
                              c:/program files/microchip/xc32/v4.35/bin/bin/../../lib/gcc/pic32c/8.3.1/../../../../pic32c/lib/thumb/v6-m/nofp\libc-musl.a(__libc_start_main.o) (__environ)
c:/program files/microchip/xc32/v4.35/bin/bin/../../lib/gcc/pic32c/8.3.1/thumb/v6-m/nofp\libgcc.a(_udivsi3.o)
                              build/default/production/_ext/559172130/phy.o (__aeabi_uidiv)
c:/program files/microchip/xc32/v4.35/bin/bin/../../lib/gcc/pic32c/8.3.1/thumb/v6-m/nofp\libgcc.a(_divsi3.o)
                              build/default/production/_ext/559172130/tfa.o (__aeabi_idiv)
c:/program files/microchip/xc32/v4.35/bin/bin/../../lib/gcc/pic32c/8.3.1/thumb/v6-m/nofp\libgcc.a(_dvmd_tls.o)
                              c:/program files/microchip/xc32/v4.35/bin/bin/../../lib/gcc/pic32c/8.3.1/thumb/v6-m/nofp\libgcc.a(_udivsi3.o) (__aeabi_idiv0)
c:/program files/microchip/xc32/v4.35/bin/bin/../../lib/gcc/pic32c/8.3.1/thumb/v6-m/nofp\libgcc.a(_aeabi_uldivmod.o)
                              build/default/production/_ext/101884895/sys_time.o (__aeabi_uldivmod)
c:/program files/microchip/xc32/v4.35/bin/bin/../../lib/gcc/pic32c/8.3.1/thumb/v6-m/nofp\libgcc.a(_muldi3.o)
                              build/default/production/_ext/101884895/sys_time.o (__aeabi_lmul)
c:/program files/microchip/xc32/v4.35/bin/bin/../../lib/gcc/pic32c/8.3.1/thumb/v6-m/nofp\libgcc.a(_udivmoddi4.o)
                              c:/program files/microchip/xc32/v4.35/bin/bin/../../lib/gcc/pic32c/8.3.1/thumb/v6-m/nofp\libgcc.a(_aeabi_uldivmod.o) (__udivmoddi4)
c:/program files/microchip/xc32/v4.35/bin/bin/../../lib/gcc/pic32c/8.3.1/thumb/v6-m/nofp\libgcc.a(_lshrdi3.o)
                              c:/program files/microchip/xc32/v4.35/bin/bin/../../lib/gcc/pic32c/8.3.1/thumb/v6-m/nofp\libgcc.a(_udivmoddi4.o) (__aeabi_llsr)
c:/program files/microchip/xc32/v4.35/bin/bin/../../lib/gcc/pic32c/8.3.1/thumb/v6-m/nofp\libgcc.a(_ashldi3.o)
                              c:/program files/microchip/xc32/v4.35/bin/bin/../../lib/gcc/pic32c/8.3.1/thumb/v6-m/nofp\libgcc.a(_udivmoddi4.o) (__aeabi_llsl)
c:/program files/microchip/xc32/v4.35/bin/bin/../../lib/gcc/pic32c/8.3.1/thumb/v6-m/nofp\libgcc.a(_clzdi2.o)
                              c:/program files/microchip/xc32/v4.35/bin/bin/../../lib/gcc/pic32c/8.3.1/thumb/v6-m/nofp\libgcc.a(_udivmoddi4.o) (__clzdi2)
c:/program files/microchip/xc32/v4.35/bin/bin/../../lib/gcc/pic32c/8.3.1/thumb/v6-m/nofp\libgcc.a(_clzsi2.o)
                              c:/program files/microchip/xc32/v4.35/bin/bin/../../lib/gcc/pic32c/8.3.1/thumb/v6-m/nofp\libgcc.a(_clzdi2.o) (__clzsi2)
c:/program files/microchip/xc32/v4.35/bin/bin/../../lib/gcc/pic32c/8.3.1/../../../../pic32c/lib/thumb/v6-m/nofp\libpic32c.a(pic32_data_init_clear.o)
                              (__dinit_clear_needed)
c:/program files/microchip/xc32/v4.35/bin/bin/../../lib/gcc/pic32c/8.3.1/../../../../pic32c/lib/thumb/v6-m/nofp\libpic32c.a(pic32_data_init_copy.o)
                              (__dinit_copy_needed)

Microchip PIC32 Memory-Usage Report

ROM Program-Memory Usage
section                    address  length [bytes]      (dec)  Description
-------                 ----------  -------------------------  -----------
.vectors                         0           0xa8         168   
.text                         0xa8           0x20          32  App's exec code 
.ARM.exidx                    0xc8            0x8           8   
.text.handleJoinMessage       0xd0          0x900        2304   
.text.frameParse             0x9d0          0x714        1812   
.dinit                      0x10e4          0x4c0        1216   
.text.handleRouteMessag     0x15a4          0x358         856   
.text.sendData              0x18fc          0x304         772   
.text.MiMAC_SendPacket      0x1c00          0x2c4         708   
.text.MiMAC_ReceivedPac     0x1ec4          0x2bc         700   
.text.PHY_PibSet            0x2180          0x280         640   
.text.set_trx_state         0x2400          0x22c         556   
.text.handleDataMessage     0x262c          0x1dc         476   
.text.routeTimerHandler     0x2808          0x1d8         472   
.text.apply_channel_pag     0x29e0          0x1d4         468   
.text.sendDataFrame         0x2bb4          0x1d4         468   
.text.xTaskCreate           0x2d88          0x1d4         468   
.text.ackReqDataConfcb      0x2f5c          0x188         392   
.text.SERCOM4_SPI_Write     0x30e4          0x178         376   
.text.PHY_Init              0x325c          0x164         356   
.text.MiAPP_TaskHandler     0x33c0          0x164         356   
.text.frameTransmit         0x3524          0x160         352   
.text.SERCOM4_SPI_Inter     0x3684          0x154         340   
.text.sendPollRequest       0x37d8          0x150         336   
.text.send_frame            0x3928          0x140         320   
.text.PHY_PibGet            0x3a68          0x13c         316   
.text.xQueueGenericSend     0x3ba4          0x138         312   
.text.xQueueSemaphoreTa     0x3cdc          0x136         310   
.text.appNetworkStatusT     0x3e12            0x2           2   
.text.pvPortMalloc          0x3e14          0x128         296   
.text.xTaskIncrementTic     0x3f3c          0x120         288   
.text.dataTimerHandler      0x405c          0x118         280   
.text.SYS_Initialize        0x4174          0x118         280   
.text.MeshTasks             0x428c          0x10c         268   
.text.MiMAC_Tasks           0x4398          0x108         264   
.text.MiApp_EstablishCo     0x44a0          0x108         264   
.text.xQueueReceive         0x45a8           0xf8         248   
.text.internal_tal_rese     0x46a0           0xf0         240   
.text.SYS_TIME_PLIBCall     0x4790           0xe8         232   
.text.xTaskResumeAll        0x4878           0xe8         232   
.text.bloomFilterAddres     0x4960           0xe4         228   
.text                       0x4a44           0xe2         226  App's exec code 
.text.memFreeConfcb         0x4b26            0x2           2   
.text.SYS_TIME_AddToLis     0x4b28           0xdc         220   
.text.ScanChannel           0x4c04           0xd8         216   
.text.PHY_GetTrxConfig      0x4cdc           0xc8         200   
.text.SYS_TIME_Initiali     0x4da4           0xc4         196   
.text.vTaskSwitchContex     0x4e68           0xc4         196   
.text.sendKeepAlive         0x4f2c           0xc0         192   
.text.SYS_TIME_TimerObj     0x4fec           0xc0         192   
.text.calculatePermitCa     0x50ac           0xbc         188   
.text.SYS_TIME_HwTimerC     0x5168           0xbc         188   
.text.CLOCK_Initialize      0x5224           0xb8         184   
.rodata.set_trx_state       0x52dc           0xb4         180   
.text.MiApp_ProtocolIni     0x5390           0xb4         180   
.text.initiateRouteReq      0x5444           0xb4         180   
.text.MiApp_Set             0x54f8           0xb0         176   
.text.set_default_tx_pw     0x55a8           0xac         172   
.text                       0x5654           0xa8         168  App's exec code 
.text.beaconReqConfcb       0x56fc           0xa4         164   
.text.deviceTableInit       0x57a0           0xa4         164   
.text.xQueueGenericSend     0x5844           0x9e         158   
.text.nwkAckConfCb          0x58e2            0x2           2   
.text.handle_received_f     0x58e4           0x9c         156   
.text.Wsndemo_Init          0x5980           0x9c         156   
.text.dataReqConfcb         0x5a1c           0x9c         156   
.text.appSendData           0x5ab8           0x98         152   
.text.MiApp_SearchConne     0x5b50           0x98         152   
.text.startDataWaitInte     0x5be8           0x98         152   
.text.keepAliveTimerHan     0x5c80           0x98         152   
.text.PORT_Initialize       0x5d18           0x98         152   
.text.prvUnlockQueue        0x5db0           0x98         152   
.text.addDuplicateRejec     0x5e48           0x94         148   
.text.addRoute              0x5edc           0x94         148   
.text.sendForceLeaveNet     0x5f70           0x94         148   
.text.SYS_Tasks             0x6004           0x90         144   
.text.xTaskPriorityInhe     0x6094           0x90         144   
.text.handle_tx_end_irq     0x6124           0x8c         140   
.text                       0x61b0           0x8c         140  App's exec code 
.text.appDataConf           0x623c           0x88         136   
.text.dataWaitIntervalT     0x62c4           0x88         136   
.text.SYS_TIME_TimerCou     0x634c           0x88         136   
.text.tfa_pib_set           0x63d4           0x84         132   
.text.write_all_tal_pib     0x6458           0x84         132   
.text.searchConfim          0x64dc           0x84         132   
.text.MiApp_Get             0x6560           0x84         132   
.text.PHY_TaskHandler       0x65e4           0x80         128   
.text.addRebroadcastTab     0x6664           0x80         128   
.text.roleUpgradeTimerE     0x66e4           0x80         128   
.text.EIC_Initialize        0x6764           0x80         128   
.text.prvAddCurrentTask     0x67e4           0x7c         124   
.text.xQueueGiveFromISR     0x6860           0x7a         122   
.text.appCmdDataInd         0x68da            0x2           2   
.text.Demomsg_Init          0x68dc           0x78         120   
.text.xTaskRemoveFromEv     0x6954           0x78         120   
.text.prvCopyDataToQueu     0x69cc           0x76         118   
.text.routeUpdateConfcb     0x6a42            0x2           2   
.text.bmm_buffer_init       0x6a44           0x74         116   
.text.checkLinkFailureA     0x6ab8           0x74         116   
.text.initRouteTable        0x6b2c           0x70         112   
.text.trx_reg_read          0x6b9c           0x6c         108   
.text.vTaskPriorityDisi     0x6c08           0x6c         108   
.text.qmm_queue_remove      0x6c74           0x6a         106   
.text.routeReqConfcb        0x6cde            0x2           2   
.text.trx_reg_write         0x6ce0           0x68         104   
.rodata.PHY_GetTrxStatu     0x6d48           0x68         104   
.text.tal_generate_rand     0x6db0           0x68         104   
.text.nonAckDataCallbac     0x6e18           0x68         104   
.text.prvIdleTask           0x6e80           0x68         104   
.text.EstcommandConfcb      0x6ee8           0x64         100   
.text.xQueueGenericRese     0x6f4c           0x62          98   
.text.routeReplyConfcb      0x6fae            0x2           2   
.text.trx_frame_write       0x6fb0           0x60          96   
.text.trx_frame_read        0x7010           0x60          96   
.text.prepareGenericHea     0x7070           0x60          96   
.text.indirectDataTimer     0x70d0           0x60          96   
.text.EIC_InterruptHand     0x7130           0x60          96   
.text.SYS_TIME_RemoveFr     0x7190           0x60          96   
.text.SYS_TIME_TimerSta     0x71f0           0x60          96   
.text.xTaskPriorityDisi     0x7250           0x60          96   
.text.appDataSendingTim     0x72b0           0x5c          92   
.text.appLinkFailureCal     0x730c           0x5c          92   
.text.rebroadcastTimerH     0x7368           0x5c          92   
.text.duplicateRejectio     0x73c4           0x5c          92   
.text.calculateAckWaitT     0x7420           0x5c          92   
.text.__libc_start_init     0x747c           0x5c          92   
.text.OSAL_SEM_Create       0x74d8           0x5a          90   
.text.commandConfcb         0x7532            0x2           2   
.text.PHY_RxEnable          0x7534           0x58          88   
.text.NVIC_Initialize       0x758c           0x58          88   
.text.SYS_TIME_TimerAdd     0x75e4           0x58          88   
.text.SYS_TIME_Callback     0x763c           0x58          88   
.text.vPortFree             0x7694           0x58          88   
.text.xTaskCheckForTime     0x76ec           0x58          88   
.text.trx_irq_handler_c     0x7744           0x54          84   
.text.SYS_TIME_DelayUS      0x7798           0x54          84   
.text.prvInsertBlockInt     0x77ec           0x54          84   
.text.vTaskStartSchedul     0x7840           0x54          84   
.text.ed_scan_done          0x7894           0x50          80   
.text.APP_Tasks             0x78e4           0x50          80   
.text.prvNotifyQueueSet     0x7934           0x4e          78   
.text.EVSYS_Initialize      0x7982            0x2           2   
.text.convert_phyTransm     0x7984           0x4c          76   
.text.PHY_RxFrameCallba     0x79d0           0x4c          76   
.text.removeRoute           0x7a1c           0x4c          76   
.text.__pic32c_data_ini     0x7a68           0x4c          76   
.text                       0x7ab4           0x48          72  App's exec code 
.text.PAL_GetRandomNumb     0x7afc           0x48          72   
.text.limit_tx_pwr          0x7b44           0x48          72   
.text.init_tal_pib          0x7b8c           0x48          72   
.text.MiApp_Init            0x7bd4           0x48          72   
.text.scanDurationExpir     0x7c1c           0x48          72   
.text.Reset_Handler         0x7c64           0x48          72   
.text.PAL_Init              0x7cac           0x44          68   
.text.tx_done_handling      0x7cf0           0x44          68   
.text.PHY_TxFrame           0x7d34           0x44          68   
.text.PHY_TrxSleep          0x7d78           0x44          68   
.text.process_incoming_     0x7dbc           0x44          68   
.text.trx_ed_irq_handle     0x7e00           0x44          68   
.text.setHopCount           0x7e44           0x44          68   
.text.TAL_TaskHandler       0x7e88            0x8           8   
.text.xPortPendSVHandle     0x7e90           0x44          68   
.text                       0x7ed4           0x44          68  App's exec code 
.text.Connection_Confir     0x7f18           0x40          64   
.text.TC0_TimerInitiali     0x7f58           0x40          64   
.text.SYS_TIME_GetTimer     0x7f98           0x40          64   
.text.SYS_TIME_TimerDes     0x7fd8           0x40          64   
.text.SYS_TIME_TimerSto     0x8018           0x40          64   
.text                       0x8058           0x40          64  App's exec code 
.text.switch_pll_on         0x8098           0x3e          62   
.text.isCorrectIeeeAddr     0x80d6           0x3e          62   
.text.checkDuplicateRej     0x8114           0x3c          60   
.text.MiMAC_Init            0x8150           0x3c          60   
.text.SERCOM4_SPI_Initi     0x818c           0x3c          60   
.text.SYS_INT_SourceDis     0x81c8           0x3c          60   
.text.SYS_TIME_Resource     0x8204           0x3c          60   
.text.xPortStartSchedul     0x8240           0x3c          60   
.text                       0x827c           0x3c          60  App's exec code 
.text.bmm_buffer_alloc      0x82b8           0x38          56   
.text.eic_custom_cb         0x82f0           0x38          56   
.text.generalFrameConst     0x8328           0x38          56   
.text.SYS_TIME_UpdateTi     0x8360           0x38          56   
.text.PHY_ConfigRxPromi     0x8398           0x34          52   
.text.getNumberOfCoordi     0x83cc           0x34          52   
.text.generateJitterTim     0x8400           0x34          52   
.text.OSAL_SEM_PostISR      0x8434           0x34          52   
.text.OSAL_QUEUE_SendIS     0x8468           0x34          52   
.text.TC0_TimerInterrup     0x849c           0x34          52   
.text.vPortStartFirstTa     0x84d0           0x34          52   
.text.xQueueGenericCrea     0x8504           0x32          50   
.text.Dummy_Handler         0x8536            0x2           2   
.rodata.PHY_GetTrxConfi     0x8538           0x30          48   
.text.bmm_buffer_free       0x8568           0x30          48   
.text.MiWi_Init             0x8598           0x30          48   
.text.initRebroadcastTa     0x85c8           0x30          48   
.text.initDuplicateReje     0x85f8           0x30          48   
.text.PHY_EdEndCallback     0x8628           0x30          48   
.text.PHY_TxDoneCallbac     0x8658           0x30          48   
.rodata                     0x8688           0x30          48  Read-only const 
.text.qmm_queue_read        0x86b8           0x2e          46   
.text.PhyToMiwi_Status      0x86e6           0x2e          46   
.text.PM_Initialize         0x8714           0x2e          46   
.text.vListInsert           0x8742           0x2e          46   
.text.PHY_GetTrxStatus      0x8770           0x2c          44   
.text.MIWI_API_CALL         0x879c           0x2c          44   
.text.appCmdDataRequest     0x87c8           0x2c          44   
.text.getNextHopAddr        0x87f4           0x2c          44   
.text.TC0_Timer16bitCou     0x8820           0x2c          44   
.text.prvResetNextTaskU     0x884c           0x2c          44   
.text.SYS_TIME_TimerPer     0x8878           0x2a          42   
.text.PAL_TimerDelay        0x88a2           0x28          40   
.text.Dummy_App_Func        0x88ca            0x2           2   
.text.PHY_TrxWakeup         0x88cc           0x28          40   
.rodata.tx_pwr_table_Ch     0x88f4           0x28          40   
.rodata.tx_pwr_table_EU     0x891c           0x28          40   
.rodata.tx_pwr_table_NA     0x8944           0x28          40   
.text.PHY_PostTask          0x896c           0x28          40   
.text.TAL_PostTask          0x8994           0x28          40   
.text.qmm_queue_append      0x89bc           0x28          40   
.text.MiMac_PostTask        0x89e4           0x28          40   
.text.frameTxCallback       0x8a0c           0x28          40   
.text.handleCommissiong     0x8a34           0x28          40   
.text.MiMAC_SetPanId        0x8a5c           0x28          40   
.text.MiMAC_SetAltAddre     0x8a84           0x28          40   
.text.MiMAC_PowerState      0x8aac           0x28          40   
.text.getHopCount           0x8ad4           0x28          40   
.text.EIC_CallbackRegis     0x8afc           0x28          40   
.text.SERCOM4_SPI_IsBus     0x8b24           0x28          40   
.text.SYS_TIME_Resource     0x8b4c           0x28          40   
.text.vPortSetupTimerIn     0x8b74           0x28          40   
.text.MiApp_SendData        0x8b9c           0x26          38   
.text.MiMAC_Set             0x8bc2           0x26          38   
.text.uxListRemove          0x8be8           0x26          38   
.text.xQueueAddToSet        0x8c0e           0x26          38   
.text.trx_reg_bit_write     0x8c34           0x24          36   
.text.tal_trx_wakeup        0x8c58           0x24          36   
.text.trx_delay_micros      0x8c7c           0x24          36   
.text.MiApp_StateInit       0x8ca0           0x24          36   
.text.appCmdDataConf        0x8cc4           0x24          36   
.rodata.handleJoinMessa     0x8ce8           0x24          36   
.text.OSAL_SEM_Pend         0x8d0c           0x24          36   
.text.OSAL_MUTEX_Lock       0x8d30           0x24          36   
.text.OSAL_QUEUE_Send       0x8d54           0x24          36   
.text.OSAL_QUEUE_Receiv     0x8d78           0x24          36   
.text.xPortSysTickHandl     0x8d9c           0x24          36   
.text.prvCopyDataFromQu     0x8dc0           0x24          36   
.text.xQueueCreateMutex     0x8de4           0x24          36   
.text.Rx_On                 0x8e08           0x22          34   
.text.NonMaskableInt_Ha     0x8e2a            0x2           2   
.rodata.tx_done_handlin     0x8e2c           0x20          32   
.text.PHY_Tasks             0x8e4c           0x20          32   
.text.TAL_Tasks             0x8e6c           0x20          32   
.text.MiApp_MeshGetNext     0x8e8c           0x20          32   
.text.establishTimerExp     0x8eac           0x20          32   
.text.pxPortInitialiseS     0x8ecc           0x20          32   
.text.__dinit_copy          0x8eec           0x1e          30   
.text.HardFault_Handler     0x8f0a            0x2           2   
.text.PAL_TimerGetId        0x8f0c           0x1c          28   
.text.tal_get_trx_statu     0x8f28           0x1c          28   
.rodata.MiApp_Get           0x8f44           0x1c          28   
.text.MiMAC_SymbolToTic     0x8f60           0x1c          28   
.text.keepAliveReqConfc     0x8f7c           0x1c          28   
.text.TC0_TimerStart        0x8f98           0x1c          28   
.text.TC0_TimerStop         0x8fb4           0x1c          28   
.text.SYS_INT_SourceRes     0x8fd0           0x1c          28   
.text.SYS_TIME_GetElaps     0x8fec           0x1c          28   
.rodata.sysTimePlibAPI      0x9008           0x1c          28   
.text.vTaskPlaceOnEvent     0x9024           0x1c          28   
.text.pvTaskIncrementMu     0x9040           0x1c          28   
.text.APP_Initialize        0x905c           0x1c          28   
.text.memcmp                0x9078           0x1c          28   
.text.OSAL_CRIT_Enter       0x9094           0x1a          26   
.text.OSAL_MUTEX_Create     0x90ae           0x1a          26   
.text.trx_irq_awake_han     0x90c8           0x18          24   
.text.tfa_init              0x90e0           0x18          24   
.text.PHY_GetRSSIBaseVa     0x90f8           0x18          24   
.text.OSAL_CRIT_Leave       0x9110           0x18          24   
.text.OSAL_SEM_Post         0x9128           0x18          24   
.text.OSAL_MUTEX_Unlock     0x9140           0x18          24   
.text.OSAL_QUEUE_Create     0x9158           0x18          24   
.text.SYS_TIME_DelayIsC     0x9170           0x18          24   
.text.vPortYield            0x9188           0x18          24   
.text.vPortEnterCritica     0x91a0           0x18          24   
.text.vTaskInternalSetT     0x91b8           0x18          24   
.text.rand                  0x91d0           0x18          24   
.text                       0x91e8           0x18          24  App's exec code 
.text                       0x9200           0x18          24  App's exec code 
.text                       0x9218           0x18          24  App's exec code 
.text.OSAL_QUEUE_Select     0x9230           0x16          22   
.text.vListInitialise       0x9246           0x16          22   
.text.vListInsertEnd        0x925c           0x16          22   
.text.xQueueSelectFromS     0x9272           0x16          22   
.text.MiApp_SubscribeDa     0x9288           0x14          20   
.text.MiApp_SubscribeLi     0x929c           0x14          20   
.text.OSAL_QUEUE_Create     0x92b0           0x14          20   
.text.OSAL_QUEUE_AddToS     0x92c4           0x14          20   
.text.NVIC_INT_Restore      0x92d8           0x14          20   
.text.TC0_Timer16bitPer     0x92ec           0x14          20   
.text.TC0_Timer16bitCom     0x9300           0x14          20   
.text.vPortExitCritical     0x9314           0x14          20   
.text.prvIsQueueEmpty       0x9328           0x14          20   
.text.xQueueCreateCount     0x933c           0x14          20   
.rodata                     0x9350           0x14          20  Read-only const 
.text.memcpy                0x9364           0x14          20   
.text.memset                0x9378           0x14          20   
.text.trx_reg_bit_read      0x938c           0x12          18   
.text.appDataInd            0x939e           0x12          18   
.text.OSAL_SEM_GetCount     0x93b0           0x12          18   
.text.OSAL_QUEUE_IsFull     0x93c2           0x12          18   
.text.NVIC_INT_Disable      0x93d4           0x12          18   
.text.prvTaskExitError      0x93e6           0x12          18   
.text.uxQueueMessagesWa     0x93f8           0x12          18   
.text.__dinit_clear         0x940a           0x12          18   
.text.EIC_InterruptEnab     0x941c           0x10          16   
.text.EIC_InterruptDisa     0x942c           0x10          16   
.text.SERCOM4_SPI_Read      0x943c           0x10          16   
.text.vTaskSuspendAll       0x944c           0x10          16   
.text.main                  0x945c            0xe          14   
.text.qmm_queue_init        0x946a            0xc          12   
.text.vPortSVCHandler       0x9476            0x2           2   
.text.MiAppTimer_Init       0x9478            0xc          12   
.rodata                     0x9484            0xc          12  Read-only const 
.text.NVMCTRL_Initializ     0x9490            0xc          12   
.text.SERCOM4_SPI_Write     0x949c            0xc          12   
.text.TC0_TimerCallback     0x94a8            0xc          12   
.text.vTaskMissedYield      0x94b4            0xc          12   
.text.xQueueIsQueueFull     0x94c0            0xc          12   
.text.xQueueCreateSet       0x94cc            0xc          12   
.text.srand                 0x94d8            0xc          12   
.text.EIC_interrupt_cb      0x94e4            0xa          10   
.text.roleUpGradeReqCon     0x94ee            0xa          10   
.text.MiMac_TaskHandler     0x94f8            0x8           8   
.text.MiWi_ApplicationI     0x9500            0x8           8   
.text.MiMAC_GetPHYChann     0x9508            0x8           8   
.text.rxOffEdKeepAliveT     0x9510            0x8           8   
.text.OSAL_Malloc           0x9518            0x8           8   
.text.OSAL_Free             0x9520            0x8           8   
.text.TC0_TimerFrequenc     0x9528            0x8           8   
.text.SYS_INT_Disable       0x9530            0x8           8   
.text.SYS_INT_Restore       0x9538            0x8           8   
.text._MiMAC_Tasks          0x9540            0x8           8   
.text.lAPP_Tasks            0x9548            0x8           8   
.text._TAL_Tasks            0x9550            0x8           8   
.text._PHY_Tasks            0x9558            0x8           8   
.rodata.sysTimeInitData     0x9560            0x8           8   
.text.ulSetInterruptMas     0x9568            0x8           8   
.rodata                     0x9570            0x8           8  Read-only const 
.text.vClearInterruptMa     0x9578            0x6           6   
.text.vListInitialiseIt     0x957e            0x6           6   
.text.vApplicationStack     0x9584            0x4           4   
.text.vApplicationMallo     0x9588            0x4           4   
.text.__dummy_decompres     0x958c            0x4           4   
.text                       0x9590            0x4           4  App's exec code 
.text.__dummy               0x9594            0x2           2   
      Total ROM used  :      0x9596       38294  14.6% of 0x40000
        --------------------------------------------------------------------------
         Total Program Memory used  :      0x9596       38294  14.6% of 0x40000
        --------------------------------------------------------------------------


RAM Data-Memory Usage
section                    address  length [bytes]      (dec)  Description
-------                 ----------  -------------------------  -----------
.bss.ucHeap             0x20000000         0x2f40       12096   
.bss.buf_pool           0x20002f40          0x5fc        1532   
.bss.timerHandles       0x2000353c           0xc0         192   
.bss.eicCallbackObject  0x200035fc           0xc0         192   
.bss.timers             0x200036bc           0xa0         160   
.bss.coordRouteTable    0x2000375c           0x80         128   
.bss.buf_header         0x200037dc           0x68         104   
.bss.searchConfirmMem   0x20003844           0x64         100   
.bss.sleepdeviceTable   0x200038a8           0x64         100   
.bss.pxReadyTasksLists  0x2000390c           0x64         100   
.bss.palTimers          0x20003970           0x50          80   
.bss.deviceTable        0x200039c0           0x50          80   
.bss                    0x20003a10           0x50          80  Uninitialized data 
.bss.osalAPIList        0x20003a60           0x44          68   
.bss.mac_frame_ptr      0x20003aa4            0x4           4   
.bss.gSystemCounterObj  0x20003aa8           0x40          64   
.bss.appMsg             0x20003ae8           0x3d          61   
.bss.appNetworkStatus   0x20003b25            0x1           1   
.bss.appStates          0x20003b26            0x1           1   
.bss.wsnmsghandle       0x20003b27            0x1           1   
.bss.reBroadcastTable   0x20003b28           0x3c          60   
.bss.sercom4SPIObj      0x20003b64           0x2c          44   
.bss.duplicateRejection 0x20003b90           0x28          40   
.bss.coordHopCount      0x20003bb8           0x20          32   
.bss.tal_pib            0x20003bd8           0x1d          29   
.bss.busyLock           0x20003bf5            0x1           1   
.bss.currentChannel     0x20003bf6            0x1           1   
.bss.initStatus         0x20003bf7            0x1           1   
.bss                    0x20003bf8           0x1c          28  Uninitialized data 
.bss.phy_info           0x20003c14           0x18          24   
.bss.MACRxPacket        0x20003c2c           0x14          20   
.bss.xDelayedTaskList1  0x20003c40           0x14          20   
.bss.xDelayedTaskList2  0x20003c54           0x14          20   
.bss.xPendingReadyList  0x20003c68           0x14          20   
.bss.xSuspendedTaskList 0x20003c7c           0x14          20   
.bss.xTasksWaitingTermi 0x20003c90           0x14          20   
.bss.tal_incoming_frame 0x20003ca4            0xc          12   
.bss.free_large_buffer_ 0x20003cb0            0xc          12   
.bss.free_small_buffer_ 0x20003cbc            0xc          12   
.bss.ackWaitFrameQueue  0x20003cc8            0xc          12   
.bss.frameRxQueue       0x20003cd4            0xc          12   
.bss.frameTxQueue       0x20003ce0            0xc          12   
.bss.indirectFrameQueue 0x20003cec            0xc          12   
.bss.nonAckFrameQueue   0x20003cf8            0xc          12   
.bss.routeFrameQueue    0x20003d04            0xc          12   
.bss.MACInitParams      0x20003d10            0x8           8   
.bss.bloomFilterValue   0x20003d18            0x8           8   
.bss.TC0_CallbackObject 0x20003d20            0x8           8   
.bss.xStart             0x20003d28            0x8           8   
.bss.appData            0x20003d30            0x8           8   
.bss.apiReq             0x20003d38            0x6           6   
.bss.myShortAddress     0x20003d3e            0x2           2   
.bss.apiReqQueueData    0x20003d40            0x6           6   
.bss.numOfTimers        0x20003d46            0x1           1   
.bss.palTimerInitialize 0x20003d47            0x1           1   
.bss.tal_frame_to_tx    0x20003d48            0x4           4   
.bss.tal_rx_buffer      0x20003d4c            0x4           4   
.bss.sampler_counter    0x20003d50            0x4           4   
.bss.appDataSendingTime 0x20003d54            0x4           4   
.bss.appNetworkStatusTi 0x20003d58            0x4           4   
.bss.miwiDefaultRamOnly 0x20003d5c            0x4           4   
.bss.miwiDefaultRomOrRa 0x20003d60            0x4           4   
.bss.apiRequestQueueHan 0x20003d64            0x4           4   
.bss.mimac              0x20003d68            0x4           4   
.bss.pApiReqQueueData   0x20003d6c            0x4           4   
.bss.semStackInternalHa 0x20003d70            0x4           4   
.bss.xActivatedMember   0x20003d74            0x4           4   
.bss.xQueueSet          0x20003d78            0x4           4   
.bss.pktManuSpecRxcallb 0x20003d7c            0x4           4   
.bss.pktRxcallback      0x20003d80            0x4           4   
.bss.sentFrameCb        0x20003d84            0x4           4   
.bss.dataConfCallback   0x20003d88            0x4           4   
.bss.gChannelMap        0x20003d8c            0x4           4   
.bss.gEstConfCallback   0x20003d90            0x4           4   
.bss.gSearchConfCallbac 0x20003d94            0x4           4   
.bss.linkFailureCallbac 0x20003d98            0x4           4   
.bss.roleUpgradeCb      0x20003d9c            0x4           4   
.bss.searchConf         0x20003da0            0x4           4   
.bss.xAPP_Tasks         0x20003da4            0x4           4   
.bss.xMiMAC_Tasks       0x20003da8            0x4           4   
.bss.xPHY_Tasks         0x20003dac            0x4           4   
.bss.xTAL_Tasks         0x20003db0            0x4           4   
.bss.miwiRequestQueueHa 0x20003db4            0x4           4   
.bss.semPhyInternalHand 0x20003db8            0x4           4   
.bss.semTalInternalHand 0x20003dbc            0x4           4   
.bss.sysObj             0x20003dc0            0x4           4   
.bss.pxEnd              0x20003dc4            0x4           4   
.bss.xBlockAllocatedBit 0x20003dc8            0x4           4   
.bss.xFreeBytesRemainin 0x20003dcc            0x4           4   
.bss.xMinimumEverFreeBy 0x20003dd0            0x4           4   
.bss.xNumberOfSuccessfu 0x20003dd4            0x4           4   
.bss.xNumberOfSuccessfu 0x20003dd8            0x4           4   
.bss.pxCurrentTCB       0x20003ddc            0x4           4   
.bss.pxDelayedTaskList  0x20003de0            0x4           4   
.bss.pxOverflowDelayedT 0x20003de4            0x4           4   
.bss.uxCurrentNumberOfT 0x20003de8            0x4           4   
.bss.uxDeletedTasksWait 0x20003dec            0x4           4   
.bss.uxSchedulerSuspend 0x20003df0            0x4           4   
.bss.uxTaskNumber       0x20003df4            0x4           4   
.bss.uxTopReadyPriority 0x20003df8            0x4           4   
.bss.xIdleTaskHandle    0x20003dfc            0x4           4   
.bss.xNextTaskUnblockTi 0x20003e00            0x4           4   
.bss.xNumOfOverflows    0x20003e04            0x4           4   
.bss.xPendedTicks       0x20003e08            0x4           4   
.bss.xSchedulerRunning  0x20003e0c            0x4           4   
.bss.xTickCount         0x20003e10            0x4           4   
.bss.xYieldPending      0x20003e14            0x4           4   
.bss                    0x20003e18            0x4           4  Uninitialized data 
.bss                    0x20003e1c            0x4           4  Uninitialized data 
.bss                    0x20003e20            0x4           4  Uninitialized data 
.bss.myNetworkAddress   0x20003e24            0x2           2   
.bss.tal_sw_retry_count 0x20003e26            0x1           1   
.bss.tal_sw_retry_no_cs 0x20003e27            0x1           1   
.bss.MAC_PANID          0x20003e28            0x2           2   
.bss.trx_trac_status    0x20003e2a            0x1           1   
.bss.tfa_pib_rx_sens    0x20003e2b            0x1           1   
.bss.myPANID            0x20003e2c            0x2           2   
.bss.max_ed_level       0x20003e2e            0x1           1   
.bss.TAL_RETRY_TIMER    0x20003e2f            0x1           1   
.bss.defaultParamsRamOn 0x20003e30            0x1           1   
.bss.meshCurrentState   0x20003e31            0x1           1   
.bss.meshSequenceNumber 0x20003e32            0x1           1   
.bss.IEEESeqNum         0x20003e33            0x1           1   
.bss.routeUpdateInterva 0x20003e34            0x1           1   
.bss.SleepEndDeviceCapa 0x20003e35            0x1           1   
.bss.coordinatorHops    0x20003e36            0x1           1   
.bss.edInPollingState   0x20003e37            0x1           1   
.bss.edLinkFailureAttem 0x20003e38            0x1           1   
.bss.endDeviceCapacityP 0x20003e39            0x1           1   
.bss.gCapabilityInfo    0x20003e3a            0x1           1   
.bss.gScanDuration      0x20003e3b            0x1           1   
.bss.isLastByteTransfer 0x20003e3c            0x1           1   
.bss.appInitialized     0x20003e3d            0x1           1   
.bss.dummyVal           0x20003e3e            0x1           1   
.data.txCallbackReceive 0x20003e3f            0x1           1   
.data.defaultParamsRomO 0x20003e40           0x48          72   
.data.myLongAddress     0x20003e88            0x8           8   
.data.uxCriticalNesting 0x20003e90            0x4           4   
.data.myParentShortAddr 0x20003e94            0x2           2   
.data.gSysTimeTokenCoun 0x20003e96            0x2           2   
.data.bloomFilterAutoJo 0x20003e98            0x1           1   
.data.csmaMode          0x20003e99            0x1           1   
.data.performRetry      0x20003e9a            0x1           1   
         Total RAM used  :      0x3e9b       16027  48.9% of 0x8000
        --------------------------------------------------------------------------
            Total Data Memory used  :      0x3e9b       16027  48.9% of 0x8000
        --------------------------------------------------------------------------


Dynamic Data-Memory Reservation
section                    address  length [bytes]      (dec)  Description
-------                 ----------  -------------------------  -----------
heap                    0x20003ea0          0x200         512  Reserved for heap 
stack                   0x200040b8         0x3f38       16184  Reserved for stack 

        --------------------------------------------------------------------------

Microchip PIC32 Memory-Usage Report By Module

        text        data         bss         dec         hex    basename                     filename
--------------------------------------------------------------------------------
         468           0       12128       12596        3134    heap_4.o                 build/default/production/_ext/1665200909/heap_4.o
        5390           2         233        5625        15f9    miwi_mesh_join.o         build/default/production/_ext/1181623987/miwi_mesh_join.o
        3996           0           8        4004         fa4    miwi_mesh_frame.o        build/default/production/_ext/1181623987/miwi_mesh_frame.o
        2534           1          71        2606         a2e    miwi_mesh.o              build/default/production/_ext/1181623987/miwi_mesh.o
        2212           0         260        2472         9a8    FreeRTOS_tasks.o         build/default/production/_ext/404212886/FreeRTOS_tasks.o
        2058           2         224        2284         8ec    sys_time.o               build/default/production/_ext/101884895/sys_time.o
        2068           0           0        2068         814    phy_pib.o                build/default/production/_ext/559172130/phy_pib.o
        2054           0          13        2067         813    miwi_mesh_routing.o      build/default/production/_ext/1181623987/miwi_mesh_routing.o
         220           0        1660        1880         758    bmm.o                    build/default/production/_ext/1374435801/bmm.o
        1834           2          37        1873         751    mimac.o                  build/default/production/_ext/1181623987/mimac.o
        1860           0           0        1860         744    queue.o                  build/default/production/_ext/404212886/queue.o
        1540           0          78        1618         652    miwi_app.o               build/default/production/_ext/1181623987/miwi_app.o
        1216           0           0        1216         4c0    data_init                data_init
        1118           0          77        1195         4ab    phy.o                    build/default/production/_ext/559172130/phy.o
         844           0          45         889         379    plib_sercom4_spi_master.obuild/default/production/_ext/17022449/plib_sercom4_spi_master.o
         700           0           1         701         2bd    phy_init.o               build/default/production/_ext/559172130/phy_init.o
         628           0           3         631         277    phy_tx.o                 build/default/production/_ext/559172130/phy_tx.o
           0          80         541         621         26d    miwi_mesh_app.o          build/default/production/_ext/1181623987/miwi_mesh_app.o
         296           0         192         488         1e8    plib_eic.o               build/default/production/_ext/60167341/plib_eic.o
         458           0           0         458         1ca    phy_trx_reg_access.o     build/default/production/_ext/559172130/phy_trx_reg_access.o
         324           0          84         408         198    initialization.o         build/default/production/_ext/1171490990/initialization.o
         390           4           0         394         18a    port.o                   build/default/production/_ext/1624415188/port.o
         348           0          30         378         17a    mimac_task.o             build/default/production/_ext/1181623987/mimac_task.o
         372           0           0         372         174    osal_freertos.o          build/default/production/_ext/1529399856/osal_freertos.o
         352           0           0         352         160    phy_helper.o             build/default/production/_ext/559172130/phy_helper.o
         208           0          82         290         122    pal.o                    build/default/production/_ext/745501718/pal.o
         276           0           8         284         11c    plib_tc0.o               build/default/production/_ext/829342655/plib_tc0.o
         268           1           0         269         10d    miwi_mesh_commissioning.obuild/default/production/_ext/1181623987/miwi_mesh_commissioning.o
         224           0          16         240          f0    tasks.o                  build/default/production/_ext/1171490990/tasks.o
         234           0           0         234          ea    _udivmoddi4.o            libgcc.a
         228           0           0         228          e4    osal_freertos_extend.o   build/default/production/_ext/1529399856/osal_freertos_extend.o
         224           0           0         224          e0    phy_rx.o                 build/default/production/_ext/559172130/phy_rx.o
         204           0           0         204          cc    qmm.o                    build/default/production/_ext/874725666/qmm.o
         184           0           0         184          b8    plib_clock.o             build/default/production/_ext/1984496892/plib_clock.o
         170           0           0         170          aa    interrupts.o             build/default/production/_ext/1171490990/interrupts.o
         168           0           0         168          a8    _divsi3.o                libgcc.a
         156           0           1         157          9d    tfa.o                    build/default/production/_ext/559172130/tfa.o
         148           0           5         153          99    phy_ed.o                 build/default/production/_ext/559172130/phy_ed.o
         152           0           0         152          98    plib_port.o              build/default/production/_ext/1865521619/plib_port.o
         144           0           0         144          90    phy_pwr_mgmt.o           build/default/production/_ext/559172130/phy_pwr_mgmt.o
         144           0           0         144          90    phy_task.o               build/default/production/_ext/957911548/phy_task.o
         140           0           0         140          8c    _udivsi3.o               libgcc.a
         134           0           0         134          86    list.o                   build/default/production/_ext/404212886/list.o
         126           0           0         126          7e    plib_nvic.o              build/default/production/_ext/1865468468/plib_nvic.o
         112           0           8         120          78    miwi_init.o              build/default/production/_ext/1181623987/miwi_init.o
         118           0           0         118          76    phy_irq_handler.o        build/default/production/_ext/559172130/phy_irq_handler.o
         108           0          10         118          76    app.o                    build/default/production/_ext/1360937237/app.o
          80           0          28         108          6c    crtbegin.o               c:/program files/microchip/xc32/v4.35/bin/bin/../../lib/gcc/pic32c/8.3.1/thumb/v6-m/nofp/crtbegin.o
         100           0           4         104          68    data_init.o              libpic32c.a
         104           0           0         104          68    sys_int.o                build/default/production/_ext/1881668453/sys_int.o
          94           0           0          94          5e    __libc_start_main.o      libc-musl.a
          88           0           0          88          58    phy_rx_enable.o          build/default/production/_ext/559172130/phy_rx_enable.o
          82           0           0          82          52    commands.o               build/default/production/_ext/1181623987/commands.o
           0           0          80          80          50    libc.o                   libc-musl.a
          74           0           0          74          4a    startup_xc32.o           build/default/production/_ext/1171490990/startup_xc32.o
          68           0           0          68          44    _muldi3.o                libgcc.a
          64           0           0          64          40    _aeabi_uldivmod.o        libgcc.a
          60           0           0          60          3c    _clzsi2.o                libgcc.a
          46           0           0          46          2e    plib_pm.o                build/default/production/_ext/829342769/plib_pm.o
          36           0           4          40          28    rand.o                   libc-musl.a
          30           0           0          30          1e    pic32_data_init_copy.o   libpic32c.a
          28           0           0          28          1c    memcmp.o                 libc-musl.a
          24           0           0          24          18    _lshrdi3.o               libgcc.a
          24           0           0          24          18    _ashldi3.o               libgcc.a
          24           0           0          24          18    _clzdi2.o                libgcc.a
          20           0           0          20          14    memset.o                 libc-musl.a
          20           0           0          20          14    memcpy.o                 libc-musl.a
          18           0           0          18          12    pic32_data_init_clear.o  libpic32c.a
          16           0           0          16          10    crtn.o                   c:/program files/microchip/xc32/v4.35/bin/bin/../../lib/gcc/pic32c/8.3.1/thumb/v6-m/nofp/crtn.o
          14           0           0          14           e    main.o                   build/default/production/_ext/1360937237/main.o
          12           0           0          12           c    plib_nvmctrl.o           build/default/production/_ext/1593096446/plib_nvmctrl.o
           8           0           0           8           8    crti.o                   c:/program files/microchip/xc32/v4.35/bin/bin/../../lib/gcc/pic32c/8.3.1/thumb/v6-m/nofp/crti.o
           8           0           0           8           8    freertos_hooks.o         build/default/production/_ext/1171490990/freertos_hooks.o
           4           0           0           4           4    exceptions.o             build/default/production/_ext/1171490990/exceptions.o
           0           0           4           4           4    __environ.o              libc-musl.a
           4           0           0           4           4    _dvmd_tls.o              libgcc.a
           2           0           0           2           2    plib_evsys.o             build/default/production/_ext/1986646378/plib_evsys.o
--------------------------------------------------------------------------------
       38302          92       15935       54329        d439    dist/default/production/Project.X.production.elf


Discarded input sections

 .text          0x00000000        0x0 c:/program files/microchip/xc32/v4.35/bin/bin/../../lib/gcc/pic32c/8.3.1/thumb/v6-m/nofp/crti.o
 .data          0x00000000        0x0 c:/program files/microchip/xc32/v4.35/bin/bin/../../lib/gcc/pic32c/8.3.1/thumb/v6-m/nofp/crti.o
 .bss           0x00000000        0x0 c:/program files/microchip/xc32/v4.35/bin/bin/../../lib/gcc/pic32c/8.3.1/thumb/v6-m/nofp/crti.o
 .xc_stack_usage.hdr
                0x00000000        0xe c:/program files/microchip/xc32/v4.35/bin/bin/../../lib/gcc/pic32c/8.3.1/thumb/v6-m/nofp/crti.o
 .xc_stack_usage
                0x00000000       0x26 c:/program files/microchip/xc32/v4.35/bin/bin/../../lib/gcc/pic32c/8.3.1/thumb/v6-m/nofp/crti.o
 .data          0x00000000        0x4 c:/program files/microchip/xc32/v4.35/bin/bin/../../lib/gcc/pic32c/8.3.1/thumb/v6-m/nofp/crtbegin.o
 .xc_stack_usage
                0x00000000       0x3c c:/program files/microchip/xc32/v4.35/bin/bin/../../lib/gcc/pic32c/8.3.1/thumb/v6-m/nofp/crtbegin.o
 .xc_stack_usage.hdr
                0x00000000        0xe c:/program files/microchip/xc32/v4.35/bin/bin/../../lib/gcc/pic32c/8.3.1/thumb/v6-m/nofp/crtbegin.o
 .text          0x00000000        0x0 build/default/production/_ext/745501718/pal.o
 .data          0x00000000        0x0 build/default/production/_ext/745501718/pal.o
 .bss           0x00000000        0x0 build/default/production/_ext/745501718/pal.o
 .text.palTimerCallback
                0x00000000       0x5c build/default/production/_ext/745501718/pal.o
 .text.PAL_TimerStart
                0x00000000       0x80 build/default/production/_ext/745501718/pal.o
 .text.PAL_TimerStop
                0x00000000       0x2c build/default/production/_ext/745501718/pal.o
 .text.PAL_TimerIsRunning
                0x00000000       0x24 build/default/production/_ext/745501718/pal.o
 .text.PAL_GetCurrentTime
                0x00000000        0xc build/default/production/_ext/745501718/pal.o
 .text.delayms  0x00000000       0x2c build/default/production/_ext/745501718/pal.o
 .text.delayus  0x00000000       0x1e build/default/production/_ext/745501718/pal.o
 .text          0x00000000        0x0 build/default/production/_ext/559172130/phy_irq_handler.o
 .data          0x00000000        0x0 build/default/production/_ext/559172130/phy_irq_handler.o
 .bss           0x00000000        0x0 build/default/production/_ext/559172130/phy_irq_handler.o
 .text          0x00000000        0x0 build/default/production/_ext/559172130/phy_trx_reg_access.o
 .data          0x00000000        0x0 build/default/production/_ext/559172130/phy_trx_reg_access.o
 .bss           0x00000000        0x0 build/default/production/_ext/559172130/phy_trx_reg_access.o
 .text.trx_sram_write
                0x00000000       0x78 build/default/production/_ext/559172130/phy_trx_reg_access.o
 .text.trx_sram_read
                0x00000000       0x78 build/default/production/_ext/559172130/phy_trx_reg_access.o
 .text          0x00000000        0x0 build/default/production/_ext/559172130/phy_tx.o
 .data          0x00000000        0x0 build/default/production/_ext/559172130/phy_tx.o
 .bss           0x00000000        0x0 build/default/production/_ext/559172130/phy_tx.o
 .text.retransmissionTimerCallback
                0x00000000       0x24 build/default/production/_ext/559172130/phy_tx.o
 .text.tal_start_retransmission_timer
                0x00000000       0x54 build/default/production/_ext/559172130/phy_tx.o
 .text          0x00000000        0x0 build/default/production/_ext/559172130/phy_pwr_mgmt.o
 .data          0x00000000        0x0 build/default/production/_ext/559172130/phy_pwr_mgmt.o
 .bss           0x00000000        0x0 build/default/production/_ext/559172130/phy_pwr_mgmt.o
 .text          0x00000000        0x0 build/default/production/_ext/559172130/phy.o
 .data          0x00000000        0x0 build/default/production/_ext/559172130/phy.o
 .bss           0x00000000        0x0 build/default/production/_ext/559172130/phy.o
 .text.PHY_GetSWVersion
                0x00000000        0xc build/default/production/_ext/559172130/phy.o
 .text.tal_convert_symbols_to_us_def
                0x00000000       0x38 build/default/production/_ext/559172130/phy.o
 .text.tal_convert_us_to_symbols_def
                0x00000000       0x40 build/default/production/_ext/559172130/phy.o
 .text.trx_delay_millis
                0x00000000       0x28 build/default/production/_ext/559172130/phy.o
 .text          0x00000000        0x0 build/default/production/_ext/559172130/tfa.o
 .data          0x00000000        0x0 build/default/production/_ext/559172130/tfa.o
 .bss           0x00000000        0x0 build/default/production/_ext/559172130/tfa.o
 .text.PHY_CCAPerform
                0x00000000       0x98 build/default/production/_ext/559172130/tfa.o
 .text.PHY_EdSample
                0x00000000       0x94 build/default/production/_ext/559172130/tfa.o
 .text.PHY_StartContinuousTransmit
                0x00000000       0xb8 build/default/production/_ext/559172130/tfa.o
 .text.PHY_StopContinuousTransmit
                0x00000000        0xa build/default/production/_ext/559172130/tfa.o
 .text.tfa_reset
                0x00000000       0x1c build/default/production/_ext/559172130/tfa.o
 .text.tfa_pib_get
                0x00000000       0x14 build/default/production/_ext/559172130/tfa.o
 .bss.txcwdata  0x00000000       0x80 build/default/production/_ext/559172130/tfa.o
 .text          0x00000000        0x0 build/default/production/_ext/559172130/phy_pib.o
 .data          0x00000000        0x0 build/default/production/_ext/559172130/phy_pib.o
 .bss           0x00000000        0x0 build/default/production/_ext/559172130/phy_pib.o
 .text          0x00000000        0x0 build/default/production/_ext/559172130/phy_helper.o
 .data          0x00000000        0x0 build/default/production/_ext/559172130/phy_helper.o
 .bss           0x00000000        0x0 build/default/production/_ext/559172130/phy_helper.o
 .text.PHY_ConfigAntennaDiversity
                0x00000000       0xf8 build/default/production/_ext/559172130/phy_helper.o
 .text.tal_set_frequency
                0x00000000      0x1b4 build/default/production/_ext/559172130/phy_helper.o
 .text.tal_set_frequency_regs
                0x00000000       0x98 build/default/production/_ext/559172130/phy_helper.o
 .text.tal_calculate_frequency
                0x00000000       0xf4 build/default/production/_ext/559172130/phy_helper.o
 .rodata.tal_calculate_frequency
                0x00000000       0x1c build/default/production/_ext/559172130/phy_helper.o
 .text.PHY_ConfigRxSensitivity
                0x00000000       0x38 build/default/production/_ext/559172130/phy_helper.o
 .text.PHY_ConfigRxRPCMode
                0x00000000        0x4 build/default/production/_ext/559172130/phy_helper.o
 .text.PHY_ConfigAutoAck
                0x00000000       0x30 build/default/production/_ext/559172130/phy_helper.o
 .text.PHY_ConfigReservedFrameFiltering
                0x00000000       0x50 build/default/production/_ext/559172130/phy_helper.o
 .text.tal_dump_registers
                0x00000000       0x42 build/default/production/_ext/559172130/phy_helper.o
 .text          0x00000000        0x0 build/default/production/_ext/559172130/phy_rx.o
 .data          0x00000000        0x0 build/default/production/_ext/559172130/phy_rx.o
 .bss           0x00000000        0x0 build/default/production/_ext/559172130/phy_rx.o
 .text          0x00000000        0x0 build/default/production/_ext/559172130/phy_rx_enable.o
 .data          0x00000000        0x0 build/default/production/_ext/559172130/phy_rx_enable.o
 .bss           0x00000000        0x0 build/default/production/_ext/559172130/phy_rx_enable.o
 .text          0x00000000        0x0 build/default/production/_ext/559172130/phy_ed.o
 .data          0x00000000        0x0 build/default/production/_ext/559172130/phy_ed.o
 .bss           0x00000000        0x0 build/default/production/_ext/559172130/phy_ed.o
 .text.PHY_EdStart
                0x00000000       0xa8 build/default/production/_ext/559172130/phy_ed.o
 .text          0x00000000        0x0 build/default/production/_ext/559172130/phy_init.o
 .data          0x00000000        0x0 build/default/production/_ext/559172130/phy_init.o
 .bss           0x00000000        0x0 build/default/production/_ext/559172130/phy_init.o
 .text.PHY_Reset
                0x00000000       0x68 build/default/production/_ext/559172130/phy_init.o
 .text.trx_irq_flag_clear
                0x00000000        0xa build/default/production/_ext/559172130/phy_init.o
 .text          0x00000000        0x0 build/default/production/_ext/957911548/phy_task.o
 .data          0x00000000        0x0 build/default/production/_ext/957911548/phy_task.o
 .bss           0x00000000        0x0 build/default/production/_ext/957911548/phy_task.o
 .text          0x00000000        0x0 build/default/production/_ext/957911548/phy_rx_frame_cb.o
 .data          0x00000000        0x0 build/default/production/_ext/957911548/phy_rx_frame_cb.o
 .bss           0x00000000        0x0 build/default/production/_ext/957911548/phy_rx_frame_cb.o
 .text.PHY_RxFrameCallback
                0x00000000        0x2 build/default/production/_ext/957911548/phy_rx_frame_cb.o
 .debug_info    0x00000000      0x3ef build/default/production/_ext/957911548/phy_rx_frame_cb.o
 .debug_abbrev  0x00000000       0x88 build/default/production/_ext/957911548/phy_rx_frame_cb.o
 .debug_aranges
                0x00000000       0x20 build/default/production/_ext/957911548/phy_rx_frame_cb.o
 .debug_ranges  0x00000000       0x10 build/default/production/_ext/957911548/phy_rx_frame_cb.o
 .debug_line    0x00000000      0x17f build/default/production/_ext/957911548/phy_rx_frame_cb.o
 .debug_str     0x00000000        0x0 build/default/production/_ext/957911548/phy_rx_frame_cb.o
 .comment       0x00000000       0x2c build/default/production/_ext/957911548/phy_rx_frame_cb.o
 .debug_frame   0x00000000       0x20 build/default/production/_ext/957911548/phy_rx_frame_cb.o
 .ARM.attributes
                0x00000000       0x2c build/default/production/_ext/957911548/phy_rx_frame_cb.o
 .text          0x00000000        0x0 build/default/production/_ext/957911548/phy_tx_frame_done_cb.o
 .data          0x00000000        0x0 build/default/production/_ext/957911548/phy_tx_frame_done_cb.o
 .bss           0x00000000        0x0 build/default/production/_ext/957911548/phy_tx_frame_done_cb.o
 .text.PHY_TxDoneCallback
                0x00000000        0x2 build/default/production/_ext/957911548/phy_tx_frame_done_cb.o
 .debug_info    0x00000000      0x54c build/default/production/_ext/957911548/phy_tx_frame_done_cb.o
 .debug_abbrev  0x00000000       0xc9 build/default/production/_ext/957911548/phy_tx_frame_done_cb.o
 .debug_loc     0x00000000       0x25 build/default/production/_ext/957911548/phy_tx_frame_done_cb.o
 .debug_aranges
                0x00000000       0x20 build/default/production/_ext/957911548/phy_tx_frame_done_cb.o
 .debug_ranges  0x00000000       0x10 build/default/production/_ext/957911548/phy_tx_frame_done_cb.o
 .debug_line    0x00000000      0x185 build/default/production/_ext/957911548/phy_tx_frame_done_cb.o
 .debug_str     0x00000000        0x0 build/default/production/_ext/957911548/phy_tx_frame_done_cb.o
 .comment       0x00000000       0x2c build/default/production/_ext/957911548/phy_tx_frame_done_cb.o
 .debug_frame   0x00000000       0x20 build/default/production/_ext/957911548/phy_tx_frame_done_cb.o
 .ARM.attributes
                0x00000000       0x2c build/default/production/_ext/957911548/phy_tx_frame_done_cb.o
 .text          0x00000000        0x0 build/default/production/_ext/957911548/phy_ed_end_cb.o
 .data          0x00000000        0x0 build/default/production/_ext/957911548/phy_ed_end_cb.o
 .bss           0x00000000        0x0 build/default/production/_ext/957911548/phy_ed_end_cb.o
 .text.PHY_EdEndCallback
                0x00000000        0x2 build/default/production/_ext/957911548/phy_ed_end_cb.o
 .debug_info    0x00000000      0x339 build/default/production/_ext/957911548/phy_ed_end_cb.o
 .debug_abbrev  0x00000000       0x5e build/default/production/_ext/957911548/phy_ed_end_cb.o
 .debug_loc     0x00000000       0x25 build/default/production/_ext/957911548/phy_ed_end_cb.o
 .debug_aranges
                0x00000000       0x20 build/default/production/_ext/957911548/phy_ed_end_cb.o
 .debug_ranges  0x00000000       0x10 build/default/production/_ext/957911548/phy_ed_end_cb.o
 .debug_line    0x00000000       0xca build/default/production/_ext/957911548/phy_ed_end_cb.o
 .debug_str     0x00000000        0x0 build/default/production/_ext/957911548/phy_ed_end_cb.o
 .comment       0x00000000       0x2c build/default/production/_ext/957911548/phy_ed_end_cb.o
 .debug_frame   0x00000000       0x20 build/default/production/_ext/957911548/phy_ed_end_cb.o
 .ARM.attributes
                0x00000000       0x2c build/default/production/_ext/957911548/phy_ed_end_cb.o
 .text          0x00000000        0x0 build/default/production/_ext/1374435801/bmm.o
 .data          0x00000000        0x0 build/default/production/_ext/1374435801/bmm.o
 .bss           0x00000000        0x0 build/default/production/_ext/1374435801/bmm.o
 .text.bmm_PercentageOfFreeBuffers
                0x00000000        0xc build/default/production/_ext/1374435801/bmm.o
 .text          0x00000000        0x0 build/default/production/_ext/874725666/qmm.o
 .data          0x00000000        0x0 build/default/production/_ext/874725666/qmm.o
 .bss           0x00000000        0x0 build/default/production/_ext/874725666/qmm.o
 .text.qmm_queue_flush
                0x00000000       0x28 build/default/production/_ext/874725666/qmm.o
 .text          0x00000000        0x0 build/default/production/_ext/1331220252/led.o
 .data          0x00000000        0x0 build/default/production/_ext/1331220252/led.o
 .bss           0x00000000        0x0 build/default/production/_ext/1331220252/led.o
 .debug_info    0x00000000      0x2e6 build/default/production/_ext/1331220252/led.o
 .debug_abbrev  0x00000000       0x1b build/default/production/_ext/1331220252/led.o
 .debug_aranges
                0x00000000       0x18 build/default/production/_ext/1331220252/led.o
 .debug_line    0x00000000       0x1d build/default/production/_ext/1331220252/led.o
 .debug_str     0x00000000        0x0 build/default/production/_ext/1331220252/led.o
 .comment       0x00000000       0x2c build/default/production/_ext/1331220252/led.o
 .ARM.attributes
                0x00000000       0x32 build/default/production/_ext/1331220252/led.o
 .text          0x00000000        0x0 build/default/production/_ext/1331220252/wlPdsTypesConverter.o
 .data          0x00000000        0x0 build/default/production/_ext/1331220252/wlPdsTypesConverter.o
 .bss           0x00000000        0x0 build/default/production/_ext/1331220252/wlPdsTypesConverter.o
 .debug_info    0x00000000      0x2f6 build/default/production/_ext/1331220252/wlPdsTypesConverter.o
 .debug_abbrev  0x00000000       0x1b build/default/production/_ext/1331220252/wlPdsTypesConverter.o
 .debug_aranges
                0x00000000       0x18 build/default/production/_ext/1331220252/wlPdsTypesConverter.o
 .debug_line    0x00000000       0x1d build/default/production/_ext/1331220252/wlPdsTypesConverter.o
 .debug_str     0x00000000        0x0 build/default/production/_ext/1331220252/wlPdsTypesConverter.o
 .comment       0x00000000       0x2c build/default/production/_ext/1331220252/wlPdsTypesConverter.o
 .ARM.attributes
                0x00000000       0x32 build/default/production/_ext/1331220252/wlPdsTypesConverter.o
 .text          0x00000000        0x0 build/default/production/_ext/1181623987/miwi_app.o
 .data          0x00000000        0x0 build/default/production/_ext/1181623987/miwi_app.o
 .bss           0x00000000        0x0 build/default/production/_ext/1181623987/miwi_app.o
 .text.wsndemo_task
                0x00000000        0x8 build/default/production/_ext/1181623987/miwi_app.o
 .text.MiMesh_TaskHandler
                0x00000000        0x8 build/default/production/_ext/1181623987/miwi_app.o
 .text.MiMAC_FFDDemoInit
                0x00000000       0xb0 build/default/production/_ext/1181623987/miwi_app.o
 .text.MiApp_TransceiverPowerState
                0x00000000        0x8 build/default/production/_ext/1181623987/miwi_app.o
 .bss.channelCount
                0x00000000        0x1 build/default/production/_ext/1181623987/miwi_app.o
 .bss.maxRSSI   0x00000000        0x1 build/default/production/_ext/1181623987/miwi_app.o
 .text          0x00000000        0x0 build/default/production/_ext/1181623987/miwi_init.o
 .data          0x00000000        0x0 build/default/production/_ext/1181623987/miwi_init.o
 .bss           0x00000000        0x0 build/default/production/_ext/1181623987/miwi_init.o
 .text          0x00000000        0x0 build/default/production/_ext/1181623987/miwi_mesh_app.o
 .data          0x00000000        0x0 build/default/production/_ext/1181623987/miwi_mesh_app.o
 .bss           0x00000000        0x0 build/default/production/_ext/1181623987/miwi_mesh_app.o
 .bss.commnDeviceTable
                0x00000000      0x100 build/default/production/_ext/1181623987/miwi_mesh_app.o
 .bss.coordinatorTable
                0x00000000      0x300 build/default/production/_ext/1181623987/miwi_mesh_app.o
 .data.networkKey
                0x00000000       0x10 build/default/production/_ext/1181623987/miwi_mesh_app.o
 .data.publicKey
                0x00000000       0x10 build/default/production/_ext/1181623987/miwi_mesh_app.o
 .text          0x00000000        0x0 build/default/production/_ext/1181623987/mimac_task.o
 .data          0x00000000        0x0 build/default/production/_ext/1181623987/mimac_task.o
 .bss           0x00000000        0x0 build/default/production/_ext/1181623987/mimac_task.o
 .text          0x00000000        0x0 build/default/production/_ext/1181623987/miwi_mesh_frame.o
 .data          0x00000000        0x0 build/default/production/_ext/1181623987/miwi_mesh_frame.o
 .bss           0x00000000        0x0 build/default/production/_ext/1181623987/miwi_mesh_frame.o
 .text.MiApp_SubscribeManuSpecDataIndicationCallback
                0x00000000       0x14 build/default/production/_ext/1181623987/miwi_mesh_frame.o
 .text          0x00000000        0x0 build/default/production/_ext/1181623987/miwi_mesh.o
 .data          0x00000000        0x0 build/default/production/_ext/1181623987/miwi_mesh.o
 .bss           0x00000000        0x0 build/default/production/_ext/1181623987/miwi_mesh.o
 .text.isSameAddress
                0x00000000       0x26 build/default/production/_ext/1181623987/miwi_mesh.o
 .text.MiTrxParam_Get
                0x00000000       0x84 build/default/production/_ext/1181623987/miwi_mesh.o
 .text.MiApp_IsConnected
                0x00000000       0x18 build/default/production/_ext/1181623987/miwi_mesh.o
 .text.MiApp_ManuSpecSendData
                0x00000000       0x26 build/default/production/_ext/1181623987/miwi_mesh.o
 .bss.pdsRestoreFlag
                0x00000000        0x1 build/default/production/_ext/1181623987/miwi_mesh.o
 .text          0x00000000        0x0 build/default/production/_ext/1181623987/commands.o
 .data          0x00000000        0x0 build/default/production/_ext/1181623987/commands.o
 .bss           0x00000000        0x0 build/default/production/_ext/1181623987/commands.o
 .text.appCmdIdentifyPeriodTimerHandler
                0x00000000        0x2 build/default/production/_ext/1181623987/commands.o
 .text.appCmdIdentifyDurationTimerHandler
                0x00000000       0x2c build/default/production/_ext/1181623987/commands.o
 .text.APP_CommandsInit
                0x00000000        0x2 build/default/production/_ext/1181623987/commands.o
 .text.APP_CommandsByteReceived
                0x00000000      0x180 build/default/production/_ext/1181623987/commands.o
 .rodata.APP_CommandsByteReceived
                0x00000000       0x14 build/default/production/_ext/1181623987/commands.o
 .bss.appCmdIdentifyDurationTimer
                0x00000000       0x14 build/default/production/_ext/1181623987/commands.o
 .bss.appCmdIdentifyDurationTimerHandle
                0x00000000        0x4 build/default/production/_ext/1181623987/commands.o
 .bss.appCmdIdentifyPeriodTimer
                0x00000000       0x14 build/default/production/_ext/1181623987/commands.o
 .bss.appCmdIdentifyPeriodTimerHandle
                0x00000000        0x4 build/default/production/_ext/1181623987/commands.o
 .bss.appCmdUartBuf
                0x00000000       0x10 build/default/production/_ext/1181623987/commands.o
 .bss.appCmdUartCsum
                0x00000000        0x1 build/default/production/_ext/1181623987/commands.o
 .bss.appCmdUartPtr
                0x00000000        0x1 build/default/production/_ext/1181623987/commands.o
 .bss.appCmdUartState
                0x00000000        0x1 build/default/production/_ext/1181623987/commands.o
 .bss.joinTimer
                0x00000000       0x14 build/default/production/_ext/1181623987/commands.o
 .bss.joinTimerHandle
                0x00000000        0x4 build/default/production/_ext/1181623987/commands.o
 .bss.keepAliveTimer
                0x00000000       0x14 build/default/production/_ext/1181623987/commands.o
 .bss.keepAliveTimerHandle
                0x00000000        0x4 build/default/production/_ext/1181623987/commands.o
 .text          0x00000000        0x0 build/default/production/_ext/1181623987/miwi_mesh_commissioning.o
 .data          0x00000000        0x0 build/default/production/_ext/1181623987/miwi_mesh_commissioning.o
 .bss           0x00000000        0x0 build/default/production/_ext/1181623987/miwi_mesh_commissioning.o
 .text          0x00000000        0x0 build/default/production/_ext/1181623987/mimac.o
 .data          0x00000000        0x0 build/default/production/_ext/1181623987/mimac.o
 .bss           0x00000000        0x0 build/default/production/_ext/1181623987/mimac.o
 .text.MiMAC_DiscardPacket
                0x00000000        0x2 build/default/production/_ext/1181623987/mimac.o
 .text.MiMAC_ChannelAssessment
                0x00000000       0x16 build/default/production/_ext/1181623987/mimac.o
 .text          0x00000000        0x0 build/default/production/_ext/1181623987/miwi_mesh_pds.o
 .data          0x00000000        0x0 build/default/production/_ext/1181623987/miwi_mesh_pds.o
 .bss           0x00000000        0x0 build/default/production/_ext/1181623987/miwi_mesh_pds.o
 .debug_info    0x00000000      0x2e7 build/default/production/_ext/1181623987/miwi_mesh_pds.o
 .debug_abbrev  0x00000000       0x1b build/default/production/_ext/1181623987/miwi_mesh_pds.o
 .debug_aranges
                0x00000000       0x18 build/default/production/_ext/1181623987/miwi_mesh_pds.o
 .debug_line    0x00000000       0x1d build/default/production/_ext/1181623987/miwi_mesh_pds.o
 .debug_str     0x00000000        0x0 build/default/production/_ext/1181623987/miwi_mesh_pds.o
 .comment       0x00000000       0x2c build/default/production/_ext/1181623987/miwi_mesh_pds.o
 .ARM.attributes
                0x00000000       0x32 build/default/production/_ext/1181623987/miwi_mesh_pds.o
 .text          0x00000000        0x0 build/default/production/_ext/1181623987/miwi_mesh_routing.o
 .data          0x00000000        0x0 build/default/production/_ext/1181623987/miwi_mesh_routing.o
 .bss           0x00000000        0x0 build/default/production/_ext/1181623987/miwi_mesh_routing.o
 .text.setNextHopAddr
                0x00000000       0x1c build/default/production/_ext/1181623987/miwi_mesh_routing.o
 .text          0x00000000        0x0 build/default/production/_ext/1181623987/miwi_mesh_join.o
 .data          0x00000000        0x0 build/default/production/_ext/1181623987/miwi_mesh_join.o
 .bss           0x00000000        0x0 build/default/production/_ext/1181623987/miwi_mesh_join.o
 .text.edScanDurationExpired
                0x00000000        0xc build/default/production/_ext/1181623987/miwi_mesh_join.o
 .text.MiApp_RoleUpgradeNotification_Subscribe
                0x00000000       0x14 build/default/production/_ext/1181623987/miwi_mesh_join.o
 .text.MiApp_NoiseDetection
                0x00000000      0x104 build/default/production/_ext/1181623987/miwi_mesh_join.o
 .bss.backupChannel
                0x00000000        0x1 build/default/production/_ext/1181623987/miwi_mesh_join.o
 .bss.noiseDetectionInProgress
                0x00000000        0x1 build/default/production/_ext/1181623987/miwi_mesh_join.o
 .text          0x00000000        0x0 build/default/production/_ext/1181623987/miwi_mesh_security.o
 .data          0x00000000        0x0 build/default/production/_ext/1181623987/miwi_mesh_security.o
 .bss           0x00000000        0x0 build/default/production/_ext/1181623987/miwi_mesh_security.o
 .debug_info    0x00000000      0x2ec build/default/production/_ext/1181623987/miwi_mesh_security.o
 .debug_abbrev  0x00000000       0x1b build/default/production/_ext/1181623987/miwi_mesh_security.o
 .debug_aranges
                0x00000000       0x18 build/default/production/_ext/1181623987/miwi_mesh_security.o
 .debug_line    0x00000000       0x1d build/default/production/_ext/1181623987/miwi_mesh_security.o
 .debug_str     0x00000000        0x0 build/default/production/_ext/1181623987/miwi_mesh_security.o
 .comment       0x00000000       0x2c build/default/production/_ext/1181623987/miwi_mesh_security.o
 .ARM.attributes
                0x00000000       0x32 build/default/production/_ext/1181623987/miwi_mesh_security.o
 .text          0x00000000        0x0 build/default/production/_ext/1529399856/osal_freertos.o
 .data          0x00000000        0x0 build/default/production/_ext/1529399856/osal_freertos.o
 .bss           0x00000000        0x0 build/default/production/_ext/1529399856/osal_freertos.o
 .text.OSAL_SEM_Delete
                0x00000000       0x12 build/default/production/_ext/1529399856/osal_freertos.o
 .text.OSAL_MUTEX_Delete
                0x00000000       0x1a build/default/production/_ext/1529399856/osal_freertos.o
 .text.OSAL_Initialize
                0x00000000        0x4 build/default/production/_ext/1529399856/osal_freertos.o
 .text          0x00000000        0x0 build/default/production/_ext/1529399856/osal_freertos_extend.o
 .data          0x00000000        0x0 build/default/production/_ext/1529399856/osal_freertos_extend.o
 .bss           0x00000000        0x0 build/default/production/_ext/1529399856/osal_freertos_extend.o
 .text          0x00000000        0x0 build/default/production/_ext/1984496892/plib_clock.o
 .data          0x00000000        0x0 build/default/production/_ext/1984496892/plib_clock.o
 .bss           0x00000000        0x0 build/default/production/_ext/1984496892/plib_clock.o
 .text          0x00000000        0x0 build/default/production/_ext/60167341/plib_eic.o
 .data          0x00000000        0x0 build/default/production/_ext/60167341/plib_eic.o
 .bss           0x00000000        0x0 build/default/production/_ext/60167341/plib_eic.o
 .text          0x00000000        0x0 build/default/production/_ext/1986646378/plib_evsys.o
 .data          0x00000000        0x0 build/default/production/_ext/1986646378/plib_evsys.o
 .bss           0x00000000        0x0 build/default/production/_ext/1986646378/plib_evsys.o
 .text          0x00000000        0x0 build/default/production/_ext/1865468468/plib_nvic.o
 .data          0x00000000        0x0 build/default/production/_ext/1865468468/plib_nvic.o
 .bss           0x00000000        0x0 build/default/production/_ext/1865468468/plib_nvic.o
 .text.NVIC_INT_Enable
                0x00000000        0x8 build/default/production/_ext/1865468468/plib_nvic.o
 .text          0x00000000        0x0 build/default/production/_ext/1593096446/plib_nvmctrl.o
 .data          0x00000000        0x0 build/default/production/_ext/1593096446/plib_nvmctrl.o
 .bss           0x00000000        0x0 build/default/production/_ext/1593096446/plib_nvmctrl.o
 .text.NVMCTRL_CacheInvalidate
                0x00000000       0x10 build/default/production/_ext/1593096446/plib_nvmctrl.o
 .text.NVMCTRL_RWWEEPROM_Read
                0x00000000       0x10 build/default/production/_ext/1593096446/plib_nvmctrl.o
 .text.NVMCTRL_RWWEEPROM_PageWrite
                0x00000000       0x28 build/default/production/_ext/1593096446/plib_nvmctrl.o
 .text.NVMCTRL_RWWEEPROM_RowErase
                0x00000000       0x18 build/default/production/_ext/1593096446/plib_nvmctrl.o
 .text.NVMCTRL_Read
                0x00000000       0x10 build/default/production/_ext/1593096446/plib_nvmctrl.o
 .text.NVMCTRL_PageBufferWrite
                0x00000000       0x14 build/default/production/_ext/1593096446/plib_nvmctrl.o
 .text.NVMCTRL_PageBufferCommit
                0x00000000       0x30 build/default/production/_ext/1593096446/plib_nvmctrl.o
 .text.NVMCTRL_PageWrite
                0x00000000       0x28 build/default/production/_ext/1593096446/plib_nvmctrl.o
 .text.NVMCTRL_RowErase
                0x00000000       0x18 build/default/production/_ext/1593096446/plib_nvmctrl.o
 .text.NVMCTRL_USER_ROW_PageWrite
                0x00000000       0x38 build/default/production/_ext/1593096446/plib_nvmctrl.o
 .text.NVMCTRL_USER_ROW_RowErase
                0x00000000       0x2c build/default/production/_ext/1593096446/plib_nvmctrl.o
 .text.NVMCTRL_ErrorGet
                0x00000000       0x18 build/default/production/_ext/1593096446/plib_nvmctrl.o
 .text.NVMCTRL_IsBusy
                0x00000000       0x14 build/default/production/_ext/1593096446/plib_nvmctrl.o
 .text.NVMCTRL_RegionLock
                0x00000000       0x14 build/default/production/_ext/1593096446/plib_nvmctrl.o
 .text.NVMCTRL_RegionUnlock
                0x00000000       0x14 build/default/production/_ext/1593096446/plib_nvmctrl.o
 .text.NVMCTRL_SecurityBitSet
                0x00000000       0x10 build/default/production/_ext/1593096446/plib_nvmctrl.o
 .text          0x00000000        0x0 build/default/production/_ext/829342769/plib_pm.o
 .data          0x00000000        0x0 build/default/production/_ext/829342769/plib_pm.o
 .bss           0x00000000        0x0 build/default/production/_ext/829342769/plib_pm.o
 .text.PM_IdleModeEnter
                0x00000000       0x14 build/default/production/_ext/829342769/plib_pm.o
 .text.PM_StandbyModeEnter
                0x00000000       0x14 build/default/production/_ext/829342769/plib_pm.o
 .text.PM_BackupModeEnter
                0x00000000       0x14 build/default/production/_ext/829342769/plib_pm.o
 .text.PM_OffModeEnter
                0x00000000       0x14 build/default/production/_ext/829342769/plib_pm.o
 .text.PM_IO_RetentionSet
                0x00000000        0xe build/default/production/_ext/829342769/plib_pm.o
 .text.PM_IO_RetentionClear
                0x00000000        0xe build/default/production/_ext/829342769/plib_pm.o
 .text.PM_ConfigurePerformanceLevel
                0x00000000       0x3e build/default/production/_ext/829342769/plib_pm.o
 .text          0x00000000        0x0 build/default/production/_ext/1865521619/plib_port.o
 .data          0x00000000        0x0 build/default/production/_ext/1865521619/plib_port.o
 .bss           0x00000000        0x0 build/default/production/_ext/1865521619/plib_port.o
 .text.PORT_GroupRead
                0x00000000        0x4 build/default/production/_ext/1865521619/plib_port.o
 .text.PORT_GroupWrite
                0x00000000        0xc build/default/production/_ext/1865521619/plib_port.o
 .text.PORT_GroupLatchRead
                0x00000000        0x4 build/default/production/_ext/1865521619/plib_port.o
 .text.PORT_GroupSet
                0x00000000        0x4 build/default/production/_ext/1865521619/plib_port.o
 .text.PORT_GroupClear
                0x00000000        0x4 build/default/production/_ext/1865521619/plib_port.o
 .text.PORT_GroupToggle
                0x00000000        0x4 build/default/production/_ext/1865521619/plib_port.o
 .text.PORT_GroupInputEnable
                0x00000000        0x4 build/default/production/_ext/1865521619/plib_port.o
 .text.PORT_GroupOutputEnable
                0x00000000        0x4 build/default/production/_ext/1865521619/plib_port.o
 .text.PORT_PinPeripheralFunctionConfig
                0x00000000       0x48 build/default/production/_ext/1865521619/plib_port.o
 .text.PORT_PinGPIOConfig
                0x00000000       0x20 build/default/production/_ext/1865521619/plib_port.o
 .text          0x00000000        0x0 build/default/production/_ext/17022449/plib_sercom4_spi_master.o
 .data          0x00000000        0x0 build/default/production/_ext/17022449/plib_sercom4_spi_master.o
 .bss           0x00000000        0x0 build/default/production/_ext/17022449/plib_sercom4_spi_master.o
 .text.SERCOM4_SPI_TransferSetup
                0x00000000       0x90 build/default/production/_ext/17022449/plib_sercom4_spi_master.o
 .text.SERCOM4_SPI_CallbackRegister
                0x00000000        0xc build/default/production/_ext/17022449/plib_sercom4_spi_master.o
 .text.SERCOM4_SPI_IsTransmitterBusy
                0x00000000       0x14 build/default/production/_ext/17022449/plib_sercom4_spi_master.o
 .text          0x00000000        0x0 build/default/production/_ext/829342655/plib_tc0.o
 .data          0x00000000        0x0 build/default/production/_ext/829342655/plib_tc0.o
 .bss           0x00000000        0x0 build/default/production/_ext/829342655/plib_tc0.o
 .text.TC0_TimerCommandSet
                0x00000000       0x18 build/default/production/_ext/829342655/plib_tc0.o
 .text.TC0_Timer16bitCounterSet
                0x00000000       0x14 build/default/production/_ext/829342655/plib_tc0.o
 .text.TC0_Timer16bitPeriodGet
                0x00000000        0xc build/default/production/_ext/829342655/plib_tc0.o
 .text          0x00000000        0x0 build/default/production/_ext/163028504/xc32_monitor.o
 .data          0x00000000        0x0 build/default/production/_ext/163028504/xc32_monitor.o
 .bss           0x00000000        0x0 build/default/production/_ext/163028504/xc32_monitor.o
 .text.read     0x00000000        0x6 build/default/production/_ext/163028504/xc32_monitor.o
 .text.write    0x00000000        0x6 build/default/production/_ext/163028504/xc32_monitor.o
 .debug_info    0x00000000      0x312 build/default/production/_ext/163028504/xc32_monitor.o
 .debug_abbrev  0x00000000       0x96 build/default/production/_ext/163028504/xc32_monitor.o
 .debug_loc     0x00000000       0x4a build/default/production/_ext/163028504/xc32_monitor.o
 .debug_aranges
                0x00000000       0x28 build/default/production/_ext/163028504/xc32_monitor.o
 .debug_ranges  0x00000000       0x18 build/default/production/_ext/163028504/xc32_monitor.o
 .debug_line    0x00000000       0xce build/default/production/_ext/163028504/xc32_monitor.o
 .debug_str     0x00000000        0x0 build/default/production/_ext/163028504/xc32_monitor.o
 .comment       0x00000000       0x2c build/default/production/_ext/163028504/xc32_monitor.o
 .debug_frame   0x00000000       0x30 build/default/production/_ext/163028504/xc32_monitor.o
 .ARM.attributes
                0x00000000       0x2c build/default/production/_ext/163028504/xc32_monitor.o
 .text          0x00000000        0x0 build/default/production/_ext/1881668453/sys_int.o
 .data          0x00000000        0x0 build/default/production/_ext/1881668453/sys_int.o
 .bss           0x00000000        0x0 build/default/production/_ext/1881668453/sys_int.o
 .text.SYS_INT_Enable
                0x00000000        0x8 build/default/production/_ext/1881668453/sys_int.o
 .text          0x00000000        0x0 build/default/production/_ext/101884895/sys_time.o
 .data          0x00000000        0x0 build/default/production/_ext/101884895/sys_time.o
 .bss           0x00000000        0x0 build/default/production/_ext/101884895/sys_time.o
 .text.SYS_TIME_Deinitialize
                0x00000000       0x30 build/default/production/_ext/101884895/sys_time.o
 .text.SYS_TIME_Status
                0x00000000       0x18 build/default/production/_ext/101884895/sys_time.o
 .text.SYS_TIME_FrequencyGet
                0x00000000        0xc build/default/production/_ext/101884895/sys_time.o
 .text.SYS_TIME_Counter64Get
                0x00000000       0x30 build/default/production/_ext/101884895/sys_time.o
 .text.SYS_TIME_CounterGet
                0x00000000        0x8 build/default/production/_ext/101884895/sys_time.o
 .text.SYS_TIME_CounterSet
                0x00000000       0x1c build/default/production/_ext/101884895/sys_time.o
 .text.SYS_TIME_CountToUS
                0x00000000       0x3c build/default/production/_ext/101884895/sys_time.o
 .text.SYS_TIME_CountToMS
                0x00000000       0x20 build/default/production/_ext/101884895/sys_time.o
 .text.SYS_TIME_USToCount
                0x00000000       0x24 build/default/production/_ext/101884895/sys_time.o
 .text.SYS_TIME_MSToCount
                0x00000000       0x20 build/default/production/_ext/101884895/sys_time.o
 .text.SYS_TIME_TimerCreate
                0x00000000       0x20 build/default/production/_ext/101884895/sys_time.o
 .text.SYS_TIME_TimerReload
                0x00000000       0x9c build/default/production/_ext/101884895/sys_time.o
 .text.SYS_TIME_DelayMS
                0x00000000       0x54 build/default/production/_ext/101884895/sys_time.o
 .text.SYS_TIME_CallbackRegisterUS
                0x00000000       0x5c build/default/production/_ext/101884895/sys_time.o
 .text          0x00000000        0x0 build/default/production/_ext/1171490990/tasks.o
 .data          0x00000000        0x0 build/default/production/_ext/1171490990/tasks.o
 .bss           0x00000000        0x0 build/default/production/_ext/1171490990/tasks.o
 .text          0x00000000        0x0 build/default/production/_ext/1171490990/libc_syscalls.o
 .data          0x00000000        0x0 build/default/production/_ext/1171490990/libc_syscalls.o
 .bss           0x00000000        0x0 build/default/production/_ext/1171490990/libc_syscalls.o
 .text._exit    0x00000000        0x2 build/default/production/_ext/1171490990/libc_syscalls.o
 .debug_info    0x00000000      0x2f9 build/default/production/_ext/1171490990/libc_syscalls.o
 .debug_abbrev  0x00000000       0x52 build/default/production/_ext/1171490990/libc_syscalls.o
 .debug_loc     0x00000000       0x15 build/default/production/_ext/1171490990/libc_syscalls.o
 .debug_aranges
                0x00000000       0x20 build/default/production/_ext/1171490990/libc_syscalls.o
 .debug_ranges  0x00000000       0x10 build/default/production/_ext/1171490990/libc_syscalls.o
 .debug_line    0x00000000       0x5b build/default/production/_ext/1171490990/libc_syscalls.o
 .debug_str     0x00000000        0x0 build/default/production/_ext/1171490990/libc_syscalls.o
 .comment       0x00000000       0x2c build/default/production/_ext/1171490990/libc_syscalls.o
 .debug_frame   0x00000000       0x20 build/default/production/_ext/1171490990/libc_syscalls.o
 .ARM.attributes
                0x00000000       0x2c build/default/production/_ext/1171490990/libc_syscalls.o
 .text          0x00000000        0x0 build/default/production/_ext/1171490990/interrupts.o
 .data          0x00000000        0x0 build/default/production/_ext/1171490990/interrupts.o
 .bss           0x00000000        0x0 build/default/production/_ext/1171490990/interrupts.o
 .text          0x00000000        0x0 build/default/production/_ext/1171490990/freertos_hooks.o
 .data          0x00000000        0x0 build/default/production/_ext/1171490990/freertos_hooks.o
 .bss           0x00000000        0x0 build/default/production/_ext/1171490990/freertos_hooks.o
 .text.vApplicationIdleHook
                0x00000000        0x2 build/default/production/_ext/1171490990/freertos_hooks.o
 .text.vApplicationTickHook
                0x00000000        0x2 build/default/production/_ext/1171490990/freertos_hooks.o
 .text.vAssertCalled
                0x00000000       0x1a build/default/production/_ext/1171490990/freertos_hooks.o
 .text          0x00000000        0x0 build/default/production/_ext/1171490990/initialization.o
 .data          0x00000000        0x0 build/default/production/_ext/1171490990/initialization.o
 .bss           0x00000000        0x0 build/default/production/_ext/1171490990/initialization.o
 .text          0x00000000        0x0 build/default/production/_ext/1171490990/startup_xc32.o
 .data          0x00000000        0x0 build/default/production/_ext/1171490990/startup_xc32.o
 .bss           0x00000000        0x0 build/default/production/_ext/1171490990/startup_xc32.o
 .text          0x00000000        0x0 build/default/production/_ext/1171490990/exceptions.o
 .data          0x00000000        0x0 build/default/production/_ext/1171490990/exceptions.o
 .bss           0x00000000        0x0 build/default/production/_ext/1171490990/exceptions.o
 .text          0x00000000        0x0 build/default/production/_ext/1624415188/port.o
 .data          0x00000000        0x0 build/default/production/_ext/1624415188/port.o
 .bss           0x00000000        0x0 build/default/production/_ext/1624415188/port.o
 .text.vPortEndScheduler
                0x00000000        0x2 build/default/production/_ext/1624415188/port.o
 .text          0x00000000        0x0 build/default/production/_ext/1665200909/heap_4.o
 .data          0x00000000        0x0 build/default/production/_ext/1665200909/heap_4.o
 .bss           0x00000000        0x0 build/default/production/_ext/1665200909/heap_4.o
 .text.xPortGetFreeHeapSize
                0x00000000        0xc build/default/production/_ext/1665200909/heap_4.o
 .text.xPortGetMinimumEverFreeHeapSize
                0x00000000        0xc build/default/production/_ext/1665200909/heap_4.o
 .text.vPortInitialiseBlocks
                0x00000000        0x2 build/default/production/_ext/1665200909/heap_4.o
 .text.vPortGetHeapStats
                0x00000000       0x84 build/default/production/_ext/1665200909/heap_4.o
 .text          0x00000000        0x0 build/default/production/_ext/404212886/croutine.o
 .data          0x00000000        0x0 build/default/production/_ext/404212886/croutine.o
 .bss           0x00000000        0x0 build/default/production/_ext/404212886/croutine.o
 .debug_info    0x00000000      0x2d8 build/default/production/_ext/404212886/croutine.o
 .debug_abbrev  0x00000000       0x1b build/default/production/_ext/404212886/croutine.o
 .debug_aranges
                0x00000000       0x18 build/default/production/_ext/404212886/croutine.o
 .debug_line    0x00000000       0x1d build/default/production/_ext/404212886/croutine.o
 .debug_str     0x00000000        0x0 build/default/production/_ext/404212886/croutine.o
 .comment       0x00000000       0x2c build/default/production/_ext/404212886/croutine.o
 .ARM.attributes
                0x00000000       0x32 build/default/production/_ext/404212886/croutine.o
 .text          0x00000000        0x0 build/default/production/_ext/404212886/list.o
 .data          0x00000000        0x0 build/default/production/_ext/404212886/list.o
 .bss           0x00000000        0x0 build/default/production/_ext/404212886/list.o
 .text          0x00000000        0x0 build/default/production/_ext/404212886/FreeRTOS_tasks.o
 .data          0x00000000        0x0 build/default/production/_ext/404212886/FreeRTOS_tasks.o
 .bss           0x00000000        0x0 build/default/production/_ext/404212886/FreeRTOS_tasks.o
 .text.vTaskDelete
                0x00000000       0x98 build/default/production/_ext/404212886/FreeRTOS_tasks.o
 .text.uxTaskPriorityGet
                0x00000000       0x20 build/default/production/_ext/404212886/FreeRTOS_tasks.o
 .text.uxTaskPriorityGetFromISR
                0x00000000       0x20 build/default/production/_ext/404212886/FreeRTOS_tasks.o
 .text.vTaskPrioritySet
                0x00000000       0xb4 build/default/production/_ext/404212886/FreeRTOS_tasks.o
 .text.vTaskResume
                0x00000000       0x7c build/default/production/_ext/404212886/FreeRTOS_tasks.o
 .text.vTaskEndScheduler
                0x00000000       0x14 build/default/production/_ext/404212886/FreeRTOS_tasks.o
 .text.xTaskGetTickCount
                0x00000000        0xc build/default/production/_ext/404212886/FreeRTOS_tasks.o
 .text.xTaskGetTickCountFromISR
                0x00000000        0xc build/default/production/_ext/404212886/FreeRTOS_tasks.o
 .text.uxTaskGetNumberOfTasks
                0x00000000        0xc build/default/production/_ext/404212886/FreeRTOS_tasks.o
 .text.pcTaskGetName
                0x00000000       0x14 build/default/production/_ext/404212886/FreeRTOS_tasks.o
 .text.vTaskDelayUntil
                0x00000000       0x54 build/default/production/_ext/404212886/FreeRTOS_tasks.o
 .text.vTaskDelay
                0x00000000       0x20 build/default/production/_ext/404212886/FreeRTOS_tasks.o
 .text.xTaskCatchUpTicks
                0x00000000       0x1c build/default/production/_ext/404212886/FreeRTOS_tasks.o
 .text.vTaskSuspend
                0x00000000       0x9c build/default/production/_ext/404212886/FreeRTOS_tasks.o
 .text.vTaskPlaceOnUnorderedEventList
                0x00000000       0x28 build/default/production/_ext/404212886/FreeRTOS_tasks.o
 .text.vTaskRemoveFromUnorderedEventList
                0x00000000       0x5c build/default/production/_ext/404212886/FreeRTOS_tasks.o
 .text.vTaskSetTimeOutState
                0x00000000       0x24 build/default/production/_ext/404212886/FreeRTOS_tasks.o
 .text.xTaskGetCurrentTaskHandle
                0x00000000        0xc build/default/production/_ext/404212886/FreeRTOS_tasks.o
 .text.uxTaskResetEventItemValue
                0x00000000       0x18 build/default/production/_ext/404212886/FreeRTOS_tasks.o
 .text.ulTaskNotifyTake
                0x00000000       0x6c build/default/production/_ext/404212886/FreeRTOS_tasks.o
 .text.xTaskNotifyWait
                0x00000000       0x84 build/default/production/_ext/404212886/FreeRTOS_tasks.o
 .text.xTaskGenericNotify
                0x00000000       0xa4 build/default/production/_ext/404212886/FreeRTOS_tasks.o
 .text.xTaskGenericNotifyFromISR
                0x00000000       0xdc build/default/production/_ext/404212886/FreeRTOS_tasks.o
 .text.vTaskNotifyGiveFromISR
                0x00000000       0x94 build/default/production/_ext/404212886/FreeRTOS_tasks.o
 .text.xTaskNotifyStateClear
                0x00000000       0x30 build/default/production/_ext/404212886/FreeRTOS_tasks.o
 .text.ulTaskNotifyValueClear
                0x00000000       0x2c build/default/production/_ext/404212886/FreeRTOS_tasks.o
 .text          0x00000000        0x0 build/default/production/_ext/404212886/timers.o
 .data          0x00000000        0x0 build/default/production/_ext/404212886/timers.o
 .bss           0x00000000        0x0 build/default/production/_ext/404212886/timers.o
 .debug_info    0x00000000      0x2d6 build/default/production/_ext/404212886/timers.o
 .debug_abbrev  0x00000000       0x1b build/default/production/_ext/404212886/timers.o
 .debug_aranges
                0x00000000       0x18 build/default/production/_ext/404212886/timers.o
 .debug_line    0x00000000       0x1d build/default/production/_ext/404212886/timers.o
 .debug_str     0x00000000        0x0 build/default/production/_ext/404212886/timers.o
 .comment       0x00000000       0x2c build/default/production/_ext/404212886/timers.o
 .ARM.attributes
                0x00000000       0x32 build/default/production/_ext/404212886/timers.o
 .text          0x00000000        0x0 build/default/production/_ext/404212886/event_groups.o
 .data          0x00000000        0x0 build/default/production/_ext/404212886/event_groups.o
 .bss           0x00000000        0x0 build/default/production/_ext/404212886/event_groups.o
 .text.xEventGroupCreate
                0x00000000       0x18 build/default/production/_ext/404212886/event_groups.o
 .text.xEventGroupWaitBits
                0x00000000       0xbc build/default/production/_ext/404212886/event_groups.o
 .text.xEventGroupClearBits
                0x00000000       0x1a build/default/production/_ext/404212886/event_groups.o
 .text.xEventGroupGetBitsFromISR
                0x00000000       0x12 build/default/production/_ext/404212886/event_groups.o
 .text.xEventGroupSetBits
                0x00000000       0x64 build/default/production/_ext/404212886/event_groups.o
 .text.xEventGroupSync
                0x00000000       0x86 build/default/production/_ext/404212886/event_groups.o
 .text.vEventGroupDelete
                0x00000000       0x2c build/default/production/_ext/404212886/event_groups.o
 .text.vEventGroupSetBitsCallback
                0x00000000        0x8 build/default/production/_ext/404212886/event_groups.o
 .text.vEventGroupClearBitsCallback
                0x00000000        0x8 build/default/production/_ext/404212886/event_groups.o
 .debug_info    0x00000000      0xecd build/default/production/_ext/404212886/event_groups.o
 .debug_abbrev  0x00000000      0x24d build/default/production/_ext/404212886/event_groups.o
 .debug_loc     0x00000000      0xce1 build/default/production/_ext/404212886/event_groups.o
 .debug_aranges
                0x00000000       0x60 build/default/production/_ext/404212886/event_groups.o
 .debug_ranges  0x00000000       0x98 build/default/production/_ext/404212886/event_groups.o
 .debug_line    0x00000000      0x5ca build/default/production/_ext/404212886/event_groups.o
 .debug_str     0x00000000      0x1ec build/default/production/_ext/404212886/event_groups.o
 .comment       0x00000000       0x2c build/default/production/_ext/404212886/event_groups.o
 .debug_frame   0x00000000      0x10c build/default/production/_ext/404212886/event_groups.o
 .ARM.attributes
                0x00000000       0x2c build/default/production/_ext/404212886/event_groups.o
 .text          0x00000000        0x0 build/default/production/_ext/404212886/stream_buffer.o
 .data          0x00000000        0x0 build/default/production/_ext/404212886/stream_buffer.o
 .bss           0x00000000        0x0 build/default/production/_ext/404212886/stream_buffer.o
 .text.prvBytesInBuffer
                0x00000000       0x12 build/default/production/_ext/404212886/stream_buffer.o
 .text.prvWriteBytesToBuffer
                0x00000000       0x46 build/default/production/_ext/404212886/stream_buffer.o
 .text.prvReadBytesFromBuffer
                0x00000000       0x52 build/default/production/_ext/404212886/stream_buffer.o
 .text.xStreamBufferGenericCreate
                0x00000000       0x3a build/default/production/_ext/404212886/stream_buffer.o
 .text.vStreamBufferDelete
                0x00000000       0x18 build/default/production/_ext/404212886/stream_buffer.o
 .text.xStreamBufferReset
                0x00000000       0x48 build/default/production/_ext/404212886/stream_buffer.o
 .text.xStreamBufferSetTriggerLevel
                0x00000000       0x16 build/default/production/_ext/404212886/stream_buffer.o
 .text.xStreamBufferSpacesAvailable
                0x00000000       0x14 build/default/production/_ext/404212886/stream_buffer.o
 .text.xStreamBufferBytesAvailable
                0x00000000        0x8 build/default/production/_ext/404212886/stream_buffer.o
 .text.xStreamBufferSend
                0x00000000       0xd6 build/default/production/_ext/404212886/stream_buffer.o
 .text.xStreamBufferSendFromISR
                0x00000000       0x88 build/default/production/_ext/404212886/stream_buffer.o
 .text.xStreamBufferReceive
                0x00000000       0xc0 build/default/production/_ext/404212886/stream_buffer.o
 .text.xStreamBufferNextMessageLengthBytes
                0x00000000       0x32 build/default/production/_ext/404212886/stream_buffer.o
 .text.xStreamBufferReceiveFromISR
                0x00000000       0x8e build/default/production/_ext/404212886/stream_buffer.o
 .text.xStreamBufferIsEmpty
                0x00000000        0xc build/default/production/_ext/404212886/stream_buffer.o
 .text.xStreamBufferIsFull
                0x00000000       0x18 build/default/production/_ext/404212886/stream_buffer.o
 .text.xStreamBufferSendCompletedFromISR
                0x00000000       0x36 build/default/production/_ext/404212886/stream_buffer.o
 .text.xStreamBufferReceiveCompletedFromISR
                0x00000000       0x36 build/default/production/_ext/404212886/stream_buffer.o
 .debug_info    0x00000000     0x1bf6 build/default/production/_ext/404212886/stream_buffer.o
 .debug_abbrev  0x00000000      0x349 build/default/production/_ext/404212886/stream_buffer.o
 .debug_loc     0x00000000     0x1c1f build/default/production/_ext/404212886/stream_buffer.o
 .debug_aranges
                0x00000000       0xa8 build/default/production/_ext/404212886/stream_buffer.o
 .debug_ranges  0x00000000      0x130 build/default/production/_ext/404212886/stream_buffer.o
 .debug_line    0x00000000      0xac2 build/default/production/_ext/404212886/stream_buffer.o
 .debug_str     0x00000000      0x269 build/default/production/_ext/404212886/stream_buffer.o
 .comment       0x00000000       0x2c build/default/production/_ext/404212886/stream_buffer.o
 .debug_frame   0x00000000      0x200 build/default/production/_ext/404212886/stream_buffer.o
 .ARM.attributes
                0x00000000       0x2c build/default/production/_ext/404212886/stream_buffer.o
 .text          0x00000000        0x0 build/default/production/_ext/404212886/queue.o
 .data          0x00000000        0x0 build/default/production/_ext/404212886/queue.o
 .bss           0x00000000        0x0 build/default/production/_ext/404212886/queue.o
 .text.xQueuePeek
                0x00000000       0xea build/default/production/_ext/404212886/queue.o
 .text.xQueueReceiveFromISR
                0x00000000       0x6a build/default/production/_ext/404212886/queue.o
 .text.xQueuePeekFromISR
                0x00000000       0x2e build/default/production/_ext/404212886/queue.o
 .text.uxQueueSpacesAvailable
                0x00000000       0x16 build/default/production/_ext/404212886/queue.o
 .text.uxQueueMessagesWaitingFromISR
                0x00000000        0x4 build/default/production/_ext/404212886/queue.o
 .text.vQueueDelete
                0x00000000        0x8 build/default/production/_ext/404212886/queue.o
 .text.xQueueIsQueueEmptyFromISR
                0x00000000        0x8 build/default/production/_ext/404212886/queue.o
 .text.xQueueRemoveFromSet
                0x00000000       0x24 build/default/production/_ext/404212886/queue.o
 .text.xQueueSelectFromSetFromISR
                0x00000000       0x16 build/default/production/_ext/404212886/queue.o
 .text          0x00000000        0x0 build/default/production/_ext/1360937237/main.o
 .data          0x00000000        0x0 build/default/production/_ext/1360937237/main.o
 .bss           0x00000000        0x0 build/default/production/_ext/1360937237/main.o
 .text          0x00000000        0x0 build/default/production/_ext/1360937237/app.o
 .data          0x00000000        0x0 build/default/production/_ext/1360937237/app.o
 .bss           0x00000000        0x0 build/default/production/_ext/1360937237/app.o
 .text          0x00000000        0x0 build/default/production/_ext/1360937237/app_idle_task.o
 .data          0x00000000        0x0 build/default/production/_ext/1360937237/app_idle_task.o
 .bss           0x00000000        0x0 build/default/production/_ext/1360937237/app_idle_task.o
 .text.app_idle_task
                0x00000000        0x2 build/default/production/_ext/1360937237/app_idle_task.o
 .debug_info    0x00000000      0x2f1 build/default/production/_ext/1360937237/app_idle_task.o
 .debug_abbrev  0x00000000       0x3b build/default/production/_ext/1360937237/app_idle_task.o
 .debug_aranges
                0x00000000       0x20 build/default/production/_ext/1360937237/app_idle_task.o
 .debug_ranges  0x00000000       0x10 build/default/production/_ext/1360937237/app_idle_task.o
 .debug_line    0x00000000       0x49 build/default/production/_ext/1360937237/app_idle_task.o
 .debug_str     0x00000000        0x0 build/default/production/_ext/1360937237/app_idle_task.o
 .comment       0x00000000       0x2c build/default/production/_ext/1360937237/app_idle_task.o
 .debug_frame   0x00000000       0x20 build/default/production/_ext/1360937237/app_idle_task.o
 .ARM.attributes
                0x00000000       0x2c build/default/production/_ext/1360937237/app_idle_task.o
 .text          0x00000000        0x0 c:/program files/microchip/xc32/v4.35/bin/bin/../../lib/gcc/pic32c/8.3.1/../../../../pic32c/lib/thumb/v6-m/nofp\libpic32c.a(data_init.o)
 .data          0x00000000        0x0 c:/program files/microchip/xc32/v4.35/bin/bin/../../lib/gcc/pic32c/8.3.1/../../../../pic32c/lib/thumb/v6-m/nofp\libpic32c.a(data_init.o)
 .xc_stack_usage
                0x00000000       0x4a c:/program files/microchip/xc32/v4.35/bin/bin/../../lib/gcc/pic32c/8.3.1/../../../../pic32c/lib/thumb/v6-m/nofp\libpic32c.a(data_init.o)
 .xc_stack_usage.hdr
                0x00000000        0xe c:/program files/microchip/xc32/v4.35/bin/bin/../../lib/gcc/pic32c/8.3.1/../../../../pic32c/lib/thumb/v6-m/nofp\libpic32c.a(data_init.o)
 .ARM.attributes
                0x00000000       0x1c c:/program files/microchip/xc32/v4.35/bin/bin/../../lib/gcc/pic32c/8.3.1/../../../../pic32c/lib/thumb/v6-m/nofp\libm-fast-emfloat.a(__aeabi_fadd.o)
 .text.__aeabi_fadd
                0x00000000      0x13a c:/program files/microchip/xc32/v4.35/bin/bin/../../lib/gcc/pic32c/8.3.1/../../../../pic32c/lib/thumb/v6-m/nofp\libm-fast-emfloat.a(__aeabi_fadd.o)
 .xc_stack_usage.hdr
                0x00000000        0xe c:/program files/microchip/xc32/v4.35/bin/bin/../../lib/gcc/pic32c/8.3.1/../../../../pic32c/lib/thumb/v6-m/nofp\libm-fast-emfloat.a(__aeabi_fadd.o)
 .xc_stack_usage
                0x00000000       0x41 c:/program files/microchip/xc32/v4.35/bin/bin/../../lib/gcc/pic32c/8.3.1/../../../../pic32c/lib/thumb/v6-m/nofp\libm-fast-emfloat.a(__aeabi_fadd.o)
 .ARM.attributes
                0x00000000       0x1c c:/program files/microchip/xc32/v4.35/bin/bin/../../lib/gcc/pic32c/8.3.1/../../../../pic32c/lib/thumb/v6-m/nofp\libm-fast-emfloat.a(__aeabi_dadd.o)
 .text.__aeabi_dadd
                0x00000000      0x1c8 c:/program files/microchip/xc32/v4.35/bin/bin/../../lib/gcc/pic32c/8.3.1/../../../../pic32c/lib/thumb/v6-m/nofp\libm-fast-emfloat.a(__aeabi_dadd.o)
 .xc_stack_usage.hdr
                0x00000000        0xe c:/program files/microchip/xc32/v4.35/bin/bin/../../lib/gcc/pic32c/8.3.1/../../../../pic32c/lib/thumb/v6-m/nofp\libm-fast-emfloat.a(__aeabi_dadd.o)
 .xc_stack_usage
                0x00000000       0x41 c:/program files/microchip/xc32/v4.35/bin/bin/../../lib/gcc/pic32c/8.3.1/../../../../pic32c/lib/thumb/v6-m/nofp\libm-fast-emfloat.a(__aeabi_dadd.o)
 .ARM.attributes
                0x00000000       0x1c c:/program files/microchip/xc32/v4.35/bin/bin/../../lib/gcc/pic32c/8.3.1/../../../../pic32c/lib/thumb/v6-m/nofp\libm-fast-emfloat.a(__aeabi_fsub.o)
 .text.__aeabi_fsub
                0x00000000       0x10 c:/program files/microchip/xc32/v4.35/bin/bin/../../lib/gcc/pic32c/8.3.1/../../../../pic32c/lib/thumb/v6-m/nofp\libm-fast-emfloat.a(__aeabi_fsub.o)
 .xc_stack_usage.hdr
                0x00000000        0xe c:/program files/microchip/xc32/v4.35/bin/bin/../../lib/gcc/pic32c/8.3.1/../../../../pic32c/lib/thumb/v6-m/nofp\libm-fast-emfloat.a(__aeabi_fsub.o)
 .xc_stack_usage
                0x00000000       0x1a c:/program files/microchip/xc32/v4.35/bin/bin/../../lib/gcc/pic32c/8.3.1/../../../../pic32c/lib/thumb/v6-m/nofp\libm-fast-emfloat.a(__aeabi_fsub.o)
 .ARM.attributes
                0x00000000       0x1c c:/program files/microchip/xc32/v4.35/bin/bin/../../lib/gcc/pic32c/8.3.1/../../../../pic32c/lib/thumb/v6-m/nofp\libm-fast-emfloat.a(__aeabi_fmul.o)
 .text.__aeabi_fmul
                0x00000000       0xb6 c:/program files/microchip/xc32/v4.35/bin/bin/../../lib/gcc/pic32c/8.3.1/../../../../pic32c/lib/thumb/v6-m/nofp\libm-fast-emfloat.a(__aeabi_fmul.o)
 .xc_stack_usage.hdr
                0x00000000        0xe c:/program files/microchip/xc32/v4.35/bin/bin/../../lib/gcc/pic32c/8.3.1/../../../../pic32c/lib/thumb/v6-m/nofp\libm-fast-emfloat.a(__aeabi_fmul.o)
 .xc_stack_usage
                0x00000000       0x1a c:/program files/microchip/xc32/v4.35/bin/bin/../../lib/gcc/pic32c/8.3.1/../../../../pic32c/lib/thumb/v6-m/nofp\libm-fast-emfloat.a(__aeabi_fmul.o)
 .ARM.attributes
                0x00000000       0x1c c:/program files/microchip/xc32/v4.35/bin/bin/../../lib/gcc/pic32c/8.3.1/../../../../pic32c/lib/thumb/v6-m/nofp\libm-fast-emfloat.a(__aeabi_dmul_aux.o)
 .text.__aeabi_dmul_aux
                0x00000000      0x18a c:/program files/microchip/xc32/v4.35/bin/bin/../../lib/gcc/pic32c/8.3.1/../../../../pic32c/lib/thumb/v6-m/nofp\libm-fast-emfloat.a(__aeabi_dmul_aux.o)
 .xc_stack_usage.hdr
                0x00000000        0xe c:/program files/microchip/xc32/v4.35/bin/bin/../../lib/gcc/pic32c/8.3.1/../../../../pic32c/lib/thumb/v6-m/nofp\libm-fast-emfloat.a(__aeabi_dmul_aux.o)
 .xc_stack_usage
                0x00000000       0x38 c:/program files/microchip/xc32/v4.35/bin/bin/../../lib/gcc/pic32c/8.3.1/../../../../pic32c/lib/thumb/v6-m/nofp\libm-fast-emfloat.a(__aeabi_dmul_aux.o)
 .ARM.attributes
                0x00000000       0x1c c:/program files/microchip/xc32/v4.35/bin/bin/../../lib/gcc/pic32c/8.3.1/../../../../pic32c/lib/thumb/v6-m/nofp\libm-fast-emfloat.a(__aeabi_fcmple.o)
 .text.__aeabi_fcmple
                0x00000000       0x32 c:/program files/microchip/xc32/v4.35/bin/bin/../../lib/gcc/pic32c/8.3.1/../../../../pic32c/lib/thumb/v6-m/nofp\libm-fast-emfloat.a(__aeabi_fcmple.o)
 .xc_stack_usage.hdr
                0x00000000        0xe c:/program files/microchip/xc32/v4.35/bin/bin/../../lib/gcc/pic32c/8.3.1/../../../../pic32c/lib/thumb/v6-m/nofp\libm-fast-emfloat.a(__aeabi_fcmple.o)
 .xc_stack_usage
                0x00000000       0x1c c:/program files/microchip/xc32/v4.35/bin/bin/../../lib/gcc/pic32c/8.3.1/../../../../pic32c/lib/thumb/v6-m/nofp\libm-fast-emfloat.a(__aeabi_fcmple.o)
 .ARM.attributes
                0x00000000       0x1c c:/program files/microchip/xc32/v4.35/bin/bin/../../lib/gcc/pic32c/8.3.1/../../../../pic32c/lib/thumb/v6-m/nofp\libm-fast-emfloat.a(__aeabi_fcmpge.o)
 .text.__aeabi_fcmpge
                0x00000000       0x32 c:/program files/microchip/xc32/v4.35/bin/bin/../../lib/gcc/pic32c/8.3.1/../../../../pic32c/lib/thumb/v6-m/nofp\libm-fast-emfloat.a(__aeabi_fcmpge.o)
 .xc_stack_usage.hdr
                0x00000000        0xe c:/program files/microchip/xc32/v4.35/bin/bin/../../lib/gcc/pic32c/8.3.1/../../../../pic32c/lib/thumb/v6-m/nofp\libm-fast-emfloat.a(__aeabi_fcmpge.o)
 .xc_stack_usage
                0x00000000       0x1c c:/program files/microchip/xc32/v4.35/bin/bin/../../lib/gcc/pic32c/8.3.1/../../../../pic32c/lib/thumb/v6-m/nofp\libm-fast-emfloat.a(__aeabi_fcmpge.o)
 .ARM.attributes
                0x00000000       0x1c c:/program files/microchip/xc32/v4.35/bin/bin/../../lib/gcc/pic32c/8.3.1/../../../../pic32c/lib/thumb/v6-m/nofp\libm-fast-emfloat.a(__aeabi_f2iz.o)
 .text.__aeabi_f2iz
                0x00000000       0x3e c:/program files/microchip/xc32/v4.35/bin/bin/../../lib/gcc/pic32c/8.3.1/../../../../pic32c/lib/thumb/v6-m/nofp\libm-fast-emfloat.a(__aeabi_f2iz.o)
 .xc_stack_usage.hdr
                0x00000000        0xe c:/program files/microchip/xc32/v4.35/bin/bin/../../lib/gcc/pic32c/8.3.1/../../../../pic32c/lib/thumb/v6-m/nofp\libm-fast-emfloat.a(__aeabi_f2iz.o)
 .xc_stack_usage
                0x00000000       0x1a c:/program files/microchip/xc32/v4.35/bin/bin/../../lib/gcc/pic32c/8.3.1/../../../../pic32c/lib/thumb/v6-m/nofp\libm-fast-emfloat.a(__aeabi_f2iz.o)
 .ARM.attributes
                0x00000000       0x1c c:/program files/microchip/xc32/v4.35/bin/bin/../../lib/gcc/pic32c/8.3.1/../../../../pic32c/lib/thumb/v6-m/nofp\libm-fast-emfloat.a(__aeabi_f2uiz.o)
 .text.__aeabi_f2uiz
                0x00000000       0x24 c:/program files/microchip/xc32/v4.35/bin/bin/../../lib/gcc/pic32c/8.3.1/../../../../pic32c/lib/thumb/v6-m/nofp\libm-fast-emfloat.a(__aeabi_f2uiz.o)
 .xc_stack_usage.hdr
                0x00000000        0xe c:/program files/microchip/xc32/v4.35/bin/bin/../../lib/gcc/pic32c/8.3.1/../../../../pic32c/lib/thumb/v6-m/nofp\libm-fast-emfloat.a(__aeabi_f2uiz.o)
 .xc_stack_usage
                0x00000000       0x1b c:/program files/microchip/xc32/v4.35/bin/bin/../../lib/gcc/pic32c/8.3.1/../../../../pic32c/lib/thumb/v6-m/nofp\libm-fast-emfloat.a(__aeabi_f2uiz.o)
 .ARM.attributes
                0x00000000       0x1c c:/program files/microchip/xc32/v4.35/bin/bin/../../lib/gcc/pic32c/8.3.1/../../../../pic32c/lib/thumb/v6-m/nofp\libm-fast-emfloat.a(__aeabi_i2f.o)
 .text.__aeabi_i2f
                0x00000000       0x26 c:/program files/microchip/xc32/v4.35/bin/bin/../../lib/gcc/pic32c/8.3.1/../../../../pic32c/lib/thumb/v6-m/nofp\libm-fast-emfloat.a(__aeabi_i2f.o)
 .xc_stack_usage.hdr
                0x00000000        0xe c:/program files/microchip/xc32/v4.35/bin/bin/../../lib/gcc/pic32c/8.3.1/../../../../pic32c/lib/thumb/v6-m/nofp\libm-fast-emfloat.a(__aeabi_i2f.o)
 .xc_stack_usage
                0x00000000       0x19 c:/program files/microchip/xc32/v4.35/bin/bin/../../lib/gcc/pic32c/8.3.1/../../../../pic32c/lib/thumb/v6-m/nofp\libm-fast-emfloat.a(__aeabi_i2f.o)
 .ARM.attributes
                0x00000000       0x1c c:/program files/microchip/xc32/v4.35/bin/bin/../../lib/gcc/pic32c/8.3.1/../../../../pic32c/lib/thumb/v6-m/nofp\libm-fast-emfloat.a(__aeabi_i2d.o)
 .text.__aeabi_i2d
                0x00000000       0x1c c:/program files/microchip/xc32/v4.35/bin/bin/../../lib/gcc/pic32c/8.3.1/../../../../pic32c/lib/thumb/v6-m/nofp\libm-fast-emfloat.a(__aeabi_i2d.o)
 .xc_stack_usage.hdr
                0x00000000        0xe c:/program files/microchip/xc32/v4.35/bin/bin/../../lib/gcc/pic32c/8.3.1/../../../../pic32c/lib/thumb/v6-m/nofp\libm-fast-emfloat.a(__aeabi_i2d.o)
 .xc_stack_usage
                0x00000000       0x19 c:/program files/microchip/xc32/v4.35/bin/bin/../../lib/gcc/pic32c/8.3.1/../../../../pic32c/lib/thumb/v6-m/nofp\libm-fast-emfloat.a(__aeabi_i2d.o)
 .ARM.attributes
                0x00000000       0x1c c:/program files/microchip/xc32/v4.35/bin/bin/../../lib/gcc/pic32c/8.3.1/../../../../pic32c/lib/thumb/v6-m/nofp\libm-fast-emfloat.a(__aeabi_ui2d.o)
 .text.__aeabi_ui2d
                0x00000000       0x1c c:/program files/microchip/xc32/v4.35/bin/bin/../../lib/gcc/pic32c/8.3.1/../../../../pic32c/lib/thumb/v6-m/nofp\libm-fast-emfloat.a(__aeabi_ui2d.o)
 .xc_stack_usage.hdr
                0x00000000        0xe c:/program files/microchip/xc32/v4.35/bin/bin/../../lib/gcc/pic32c/8.3.1/../../../../pic32c/lib/thumb/v6-m/nofp\libm-fast-emfloat.a(__aeabi_ui2d.o)
 .xc_stack_usage
                0x00000000       0x1a c:/program files/microchip/xc32/v4.35/bin/bin/../../lib/gcc/pic32c/8.3.1/../../../../pic32c/lib/thumb/v6-m/nofp\libm-fast-emfloat.a(__aeabi_ui2d.o)
 .ARM.attributes
                0x00000000       0x1c c:/program files/microchip/xc32/v4.35/bin/bin/../../lib/gcc/pic32c/8.3.1/../../../../pic32c/lib/thumb/v6-m/nofp\libm-fast-emfloat.a(__aeabi_d2f.o)
 .text.__aeabi_d2f
                0x00000000       0x62 c:/program files/microchip/xc32/v4.35/bin/bin/../../lib/gcc/pic32c/8.3.1/../../../../pic32c/lib/thumb/v6-m/nofp\libm-fast-emfloat.a(__aeabi_d2f.o)
 .xc_stack_usage.hdr
                0x00000000        0xe c:/program files/microchip/xc32/v4.35/bin/bin/../../lib/gcc/pic32c/8.3.1/../../../../pic32c/lib/thumb/v6-m/nofp\libm-fast-emfloat.a(__aeabi_d2f.o)
 .xc_stack_usage
                0x00000000       0x19 c:/program files/microchip/xc32/v4.35/bin/bin/../../lib/gcc/pic32c/8.3.1/../../../../pic32c/lib/thumb/v6-m/nofp\libm-fast-emfloat.a(__aeabi_d2f.o)
 .text          0x00000000        0x0 c:/program files/microchip/xc32/v4.35/bin/bin/../../lib/gcc/pic32c/8.3.1/../../../../pic32c/lib/thumb/v6-m/nofp\libc-musl.a(__libc_start_main.o)
 .data          0x00000000        0x0 c:/program files/microchip/xc32/v4.35/bin/bin/../../lib/gcc/pic32c/8.3.1/../../../../pic32c/lib/thumb/v6-m/nofp\libc-musl.a(__libc_start_main.o)
 .bss           0x00000000        0x0 c:/program files/microchip/xc32/v4.35/bin/bin/../../lib/gcc/pic32c/8.3.1/../../../../pic32c/lib/thumb/v6-m/nofp\libc-musl.a(__libc_start_main.o)
 .xc_stack_usage
                0x00000000       0x34 c:/program files/microchip/xc32/v4.35/bin/bin/../../lib/gcc/pic32c/8.3.1/../../../../pic32c/lib/thumb/v6-m/nofp\libc-musl.a(__libc_start_main.o)
 .xc_stack_usage.hdr
                0x00000000        0xe c:/program files/microchip/xc32/v4.35/bin/bin/../../lib/gcc/pic32c/8.3.1/../../../../pic32c/lib/thumb/v6-m/nofp\libc-musl.a(__libc_start_main.o)
 .text          0x00000000        0x0 c:/program files/microchip/xc32/v4.35/bin/bin/../../lib/gcc/pic32c/8.3.1/../../../../pic32c/lib/thumb/v6-m/nofp\libc-musl.a(libc.o)
 .data          0x00000000        0x0 c:/program files/microchip/xc32/v4.35/bin/bin/../../lib/gcc/pic32c/8.3.1/../../../../pic32c/lib/thumb/v6-m/nofp\libc-musl.a(libc.o)
 .xc_stack_usage.hdr
                0x00000000        0xe c:/program files/microchip/xc32/v4.35/bin/bin/../../lib/gcc/pic32c/8.3.1/../../../../pic32c/lib/thumb/v6-m/nofp\libc-musl.a(libc.o)
 .text          0x00000000        0x0 c:/program files/microchip/xc32/v4.35/bin/bin/../../lib/gcc/pic32c/8.3.1/../../../../pic32c/lib/thumb/v6-m/nofp\libc-musl.a(rand.o)
 .data          0x00000000        0x0 c:/program files/microchip/xc32/v4.35/bin/bin/../../lib/gcc/pic32c/8.3.1/../../../../pic32c/lib/thumb/v6-m/nofp\libc-musl.a(rand.o)
 .xc_stack_usage
                0x00000000       0x25 c:/program files/microchip/xc32/v4.35/bin/bin/../../lib/gcc/pic32c/8.3.1/../../../../pic32c/lib/thumb/v6-m/nofp\libc-musl.a(rand.o)
 .xc_stack_usage.hdr
                0x00000000        0xe c:/program files/microchip/xc32/v4.35/bin/bin/../../lib/gcc/pic32c/8.3.1/../../../../pic32c/lib/thumb/v6-m/nofp\libc-musl.a(rand.o)
 .text          0x00000000        0x0 c:/program files/microchip/xc32/v4.35/bin/bin/../../lib/gcc/pic32c/8.3.1/../../../../pic32c/lib/thumb/v6-m/nofp\libc-musl.a(memcmp.o)
 .data          0x00000000        0x0 c:/program files/microchip/xc32/v4.35/bin/bin/../../lib/gcc/pic32c/8.3.1/../../../../pic32c/lib/thumb/v6-m/nofp\libc-musl.a(memcmp.o)
 .bss           0x00000000        0x0 c:/program files/microchip/xc32/v4.35/bin/bin/../../lib/gcc/pic32c/8.3.1/../../../../pic32c/lib/thumb/v6-m/nofp\libc-musl.a(memcmp.o)
 .xc_stack_usage
                0x00000000       0x14 c:/program files/microchip/xc32/v4.35/bin/bin/../../lib/gcc/pic32c/8.3.1/../../../../pic32c/lib/thumb/v6-m/nofp\libc-musl.a(memcmp.o)
 .xc_stack_usage.hdr
                0x00000000        0xe c:/program files/microchip/xc32/v4.35/bin/bin/../../lib/gcc/pic32c/8.3.1/../../../../pic32c/lib/thumb/v6-m/nofp\libc-musl.a(memcmp.o)
 .text          0x00000000        0x0 c:/program files/microchip/xc32/v4.35/bin/bin/../../lib/gcc/pic32c/8.3.1/../../../../pic32c/lib/thumb/v6-m/nofp\libc-musl.a(memcpy.o)
 .data          0x00000000        0x0 c:/program files/microchip/xc32/v4.35/bin/bin/../../lib/gcc/pic32c/8.3.1/../../../../pic32c/lib/thumb/v6-m/nofp\libc-musl.a(memcpy.o)
 .bss           0x00000000        0x0 c:/program files/microchip/xc32/v4.35/bin/bin/../../lib/gcc/pic32c/8.3.1/../../../../pic32c/lib/thumb/v6-m/nofp\libc-musl.a(memcpy.o)
 .xc_stack_usage
                0x00000000       0x14 c:/program files/microchip/xc32/v4.35/bin/bin/../../lib/gcc/pic32c/8.3.1/../../../../pic32c/lib/thumb/v6-m/nofp\libc-musl.a(memcpy.o)
 .xc_stack_usage.hdr
                0x00000000        0xe c:/program files/microchip/xc32/v4.35/bin/bin/../../lib/gcc/pic32c/8.3.1/../../../../pic32c/lib/thumb/v6-m/nofp\libc-musl.a(memcpy.o)
 .text          0x00000000        0x0 c:/program files/microchip/xc32/v4.35/bin/bin/../../lib/gcc/pic32c/8.3.1/../../../../pic32c/lib/thumb/v6-m/nofp\libc-musl.a(memset.o)
 .data          0x00000000        0x0 c:/program files/microchip/xc32/v4.35/bin/bin/../../lib/gcc/pic32c/8.3.1/../../../../pic32c/lib/thumb/v6-m/nofp\libc-musl.a(memset.o)
 .bss           0x00000000        0x0 c:/program files/microchip/xc32/v4.35/bin/bin/../../lib/gcc/pic32c/8.3.1/../../../../pic32c/lib/thumb/v6-m/nofp\libc-musl.a(memset.o)
 .xc_stack_usage
                0x00000000       0x14 c:/program files/microchip/xc32/v4.35/bin/bin/../../lib/gcc/pic32c/8.3.1/../../../../pic32c/lib/thumb/v6-m/nofp\libc-musl.a(memset.o)
 .xc_stack_usage.hdr
                0x00000000        0xe c:/program files/microchip/xc32/v4.35/bin/bin/../../lib/gcc/pic32c/8.3.1/../../../../pic32c/lib/thumb/v6-m/nofp\libc-musl.a(memset.o)
 .text          0x00000000        0x0 c:/program files/microchip/xc32/v4.35/bin/bin/../../lib/gcc/pic32c/8.3.1/../../../../pic32c/lib/thumb/v6-m/nofp\libc-musl.a(__environ.o)
 .data          0x00000000        0x0 c:/program files/microchip/xc32/v4.35/bin/bin/../../lib/gcc/pic32c/8.3.1/../../../../pic32c/lib/thumb/v6-m/nofp\libc-musl.a(__environ.o)
 .xc_stack_usage.hdr
                0x00000000        0xe c:/program files/microchip/xc32/v4.35/bin/bin/../../lib/gcc/pic32c/8.3.1/../../../../pic32c/lib/thumb/v6-m/nofp\libc-musl.a(__environ.o)
 .data          0x00000000        0x0 c:/program files/microchip/xc32/v4.35/bin/bin/../../lib/gcc/pic32c/8.3.1/thumb/v6-m/nofp\libgcc.a(_udivsi3.o)
 .bss           0x00000000        0x0 c:/program files/microchip/xc32/v4.35/bin/bin/../../lib/gcc/pic32c/8.3.1/thumb/v6-m/nofp\libgcc.a(_udivsi3.o)
 .xc_stack_usage.hdr
                0x00000000        0xe c:/program files/microchip/xc32/v4.35/bin/bin/../../lib/gcc/pic32c/8.3.1/thumb/v6-m/nofp\libgcc.a(_udivsi3.o)
 .xc_stack_usage
                0x00000000       0x35 c:/program files/microchip/xc32/v4.35/bin/bin/../../lib/gcc/pic32c/8.3.1/thumb/v6-m/nofp\libgcc.a(_udivsi3.o)
 .data          0x00000000        0x0 c:/program files/microchip/xc32/v4.35/bin/bin/../../lib/gcc/pic32c/8.3.1/thumb/v6-m/nofp\libgcc.a(_divsi3.o)
 .bss           0x00000000        0x0 c:/program files/microchip/xc32/v4.35/bin/bin/../../lib/gcc/pic32c/8.3.1/thumb/v6-m/nofp\libgcc.a(_divsi3.o)
 .xc_stack_usage.hdr
                0x00000000        0xe c:/program files/microchip/xc32/v4.35/bin/bin/../../lib/gcc/pic32c/8.3.1/thumb/v6-m/nofp\libgcc.a(_divsi3.o)
 .xc_stack_usage
                0x00000000       0x33 c:/program files/microchip/xc32/v4.35/bin/bin/../../lib/gcc/pic32c/8.3.1/thumb/v6-m/nofp\libgcc.a(_divsi3.o)
 .data          0x00000000        0x0 c:/program files/microchip/xc32/v4.35/bin/bin/../../lib/gcc/pic32c/8.3.1/thumb/v6-m/nofp\libgcc.a(_dvmd_tls.o)
 .bss           0x00000000        0x0 c:/program files/microchip/xc32/v4.35/bin/bin/../../lib/gcc/pic32c/8.3.1/thumb/v6-m/nofp\libgcc.a(_dvmd_tls.o)
 .xc_stack_usage.hdr
                0x00000000        0xe c:/program files/microchip/xc32/v4.35/bin/bin/../../lib/gcc/pic32c/8.3.1/thumb/v6-m/nofp\libgcc.a(_dvmd_tls.o)
 .xc_stack_usage
                0x00000000       0x36 c:/program files/microchip/xc32/v4.35/bin/bin/../../lib/gcc/pic32c/8.3.1/thumb/v6-m/nofp\libgcc.a(_dvmd_tls.o)
 .data          0x00000000        0x0 c:/program files/microchip/xc32/v4.35/bin/bin/../../lib/gcc/pic32c/8.3.1/thumb/v6-m/nofp\libgcc.a(_aeabi_uldivmod.o)
 .bss           0x00000000        0x0 c:/program files/microchip/xc32/v4.35/bin/bin/../../lib/gcc/pic32c/8.3.1/thumb/v6-m/nofp\libgcc.a(_aeabi_uldivmod.o)
 .xc_stack_usage.hdr
                0x00000000        0xe c:/program files/microchip/xc32/v4.35/bin/bin/../../lib/gcc/pic32c/8.3.1/thumb/v6-m/nofp\libgcc.a(_aeabi_uldivmod.o)
 .xc_stack_usage
                0x00000000       0x1e c:/program files/microchip/xc32/v4.35/bin/bin/../../lib/gcc/pic32c/8.3.1/thumb/v6-m/nofp\libgcc.a(_aeabi_uldivmod.o)
 .data          0x00000000        0x0 c:/program files/microchip/xc32/v4.35/bin/bin/../../lib/gcc/pic32c/8.3.1/thumb/v6-m/nofp\libgcc.a(_muldi3.o)
 .bss           0x00000000        0x0 c:/program files/microchip/xc32/v4.35/bin/bin/../../lib/gcc/pic32c/8.3.1/thumb/v6-m/nofp\libgcc.a(_muldi3.o)
 .xc_stack_usage
                0x00000000       0x16 c:/program files/microchip/xc32/v4.35/bin/bin/../../lib/gcc/pic32c/8.3.1/thumb/v6-m/nofp\libgcc.a(_muldi3.o)
 .xc_stack_usage.hdr
                0x00000000        0xe c:/program files/microchip/xc32/v4.35/bin/bin/../../lib/gcc/pic32c/8.3.1/thumb/v6-m/nofp\libgcc.a(_muldi3.o)
 .data          0x00000000        0x0 c:/program files/microchip/xc32/v4.35/bin/bin/../../lib/gcc/pic32c/8.3.1/thumb/v6-m/nofp\libgcc.a(_udivmoddi4.o)
 .bss           0x00000000        0x0 c:/program files/microchip/xc32/v4.35/bin/bin/../../lib/gcc/pic32c/8.3.1/thumb/v6-m/nofp\libgcc.a(_udivmoddi4.o)
 .xc_stack_usage
                0x00000000       0x1a c:/program files/microchip/xc32/v4.35/bin/bin/../../lib/gcc/pic32c/8.3.1/thumb/v6-m/nofp\libgcc.a(_udivmoddi4.o)
 .ARM.extab     0x00000000        0x0 c:/program files/microchip/xc32/v4.35/bin/bin/../../lib/gcc/pic32c/8.3.1/thumb/v6-m/nofp\libgcc.a(_udivmoddi4.o)
 .xc_stack_usage.hdr
                0x00000000        0xe c:/program files/microchip/xc32/v4.35/bin/bin/../../lib/gcc/pic32c/8.3.1/thumb/v6-m/nofp\libgcc.a(_udivmoddi4.o)
 .data          0x00000000        0x0 c:/program files/microchip/xc32/v4.35/bin/bin/../../lib/gcc/pic32c/8.3.1/thumb/v6-m/nofp\libgcc.a(_lshrdi3.o)
 .bss           0x00000000        0x0 c:/program files/microchip/xc32/v4.35/bin/bin/../../lib/gcc/pic32c/8.3.1/thumb/v6-m/nofp\libgcc.a(_lshrdi3.o)
 .xc_stack_usage.hdr
                0x00000000        0xe c:/program files/microchip/xc32/v4.35/bin/bin/../../lib/gcc/pic32c/8.3.1/thumb/v6-m/nofp\libgcc.a(_lshrdi3.o)
 .xc_stack_usage
                0x00000000       0x17 c:/program files/microchip/xc32/v4.35/bin/bin/../../lib/gcc/pic32c/8.3.1/thumb/v6-m/nofp\libgcc.a(_lshrdi3.o)
 .data          0x00000000        0x0 c:/program files/microchip/xc32/v4.35/bin/bin/../../lib/gcc/pic32c/8.3.1/thumb/v6-m/nofp\libgcc.a(_ashldi3.o)
 .bss           0x00000000        0x0 c:/program files/microchip/xc32/v4.35/bin/bin/../../lib/gcc/pic32c/8.3.1/thumb/v6-m/nofp\libgcc.a(_ashldi3.o)
 .xc_stack_usage.hdr
                0x00000000        0xe c:/program files/microchip/xc32/v4.35/bin/bin/../../lib/gcc/pic32c/8.3.1/thumb/v6-m/nofp\libgcc.a(_ashldi3.o)
 .xc_stack_usage
                0x00000000       0x17 c:/program files/microchip/xc32/v4.35/bin/bin/../../lib/gcc/pic32c/8.3.1/thumb/v6-m/nofp\libgcc.a(_ashldi3.o)
 .data          0x00000000        0x0 c:/program files/microchip/xc32/v4.35/bin/bin/../../lib/gcc/pic32c/8.3.1/thumb/v6-m/nofp\libgcc.a(_clzdi2.o)
 .bss           0x00000000        0x0 c:/program files/microchip/xc32/v4.35/bin/bin/../../lib/gcc/pic32c/8.3.1/thumb/v6-m/nofp\libgcc.a(_clzdi2.o)
 .xc_stack_usage.hdr
                0x00000000        0xe c:/program files/microchip/xc32/v4.35/bin/bin/../../lib/gcc/pic32c/8.3.1/thumb/v6-m/nofp\libgcc.a(_clzdi2.o)
 .xc_stack_usage
                0x00000000       0x16 c:/program files/microchip/xc32/v4.35/bin/bin/../../lib/gcc/pic32c/8.3.1/thumb/v6-m/nofp\libgcc.a(_clzdi2.o)
 .data          0x00000000        0x0 c:/program files/microchip/xc32/v4.35/bin/bin/../../lib/gcc/pic32c/8.3.1/thumb/v6-m/nofp\libgcc.a(_clzsi2.o)
 .bss           0x00000000        0x0 c:/program files/microchip/xc32/v4.35/bin/bin/../../lib/gcc/pic32c/8.3.1/thumb/v6-m/nofp\libgcc.a(_clzsi2.o)
 .xc_stack_usage.hdr
                0x00000000        0xe c:/program files/microchip/xc32/v4.35/bin/bin/../../lib/gcc/pic32c/8.3.1/thumb/v6-m/nofp\libgcc.a(_clzsi2.o)
 .xc_stack_usage
                0x00000000       0x16 c:/program files/microchip/xc32/v4.35/bin/bin/../../lib/gcc/pic32c/8.3.1/thumb/v6-m/nofp\libgcc.a(_clzsi2.o)
 .text          0x00000000        0x0 c:/program files/microchip/xc32/v4.35/bin/bin/../../lib/gcc/pic32c/8.3.1/thumb/v6-m/nofp/crtend.o
 .data          0x00000000        0x0 c:/program files/microchip/xc32/v4.35/bin/bin/../../lib/gcc/pic32c/8.3.1/thumb/v6-m/nofp/crtend.o
 .bss           0x00000000        0x0 c:/program files/microchip/xc32/v4.35/bin/bin/../../lib/gcc/pic32c/8.3.1/thumb/v6-m/nofp/crtend.o
 .eh_frame      0x00000000        0x4 c:/program files/microchip/xc32/v4.35/bin/bin/../../lib/gcc/pic32c/8.3.1/thumb/v6-m/nofp/crtend.o
 .xc_stack_usage.hdr
                0x00000000        0xe c:/program files/microchip/xc32/v4.35/bin/bin/../../lib/gcc/pic32c/8.3.1/thumb/v6-m/nofp/crtend.o
 .comment       0x00000000       0x2c c:/program files/microchip/xc32/v4.35/bin/bin/../../lib/gcc/pic32c/8.3.1/thumb/v6-m/nofp/crtend.o
 .ARM.attributes
                0x00000000       0x2c c:/program files/microchip/xc32/v4.35/bin/bin/../../lib/gcc/pic32c/8.3.1/thumb/v6-m/nofp/crtend.o
 .text          0x00000000        0x0 c:/program files/microchip/xc32/v4.35/bin/bin/../../lib/gcc/pic32c/8.3.1/thumb/v6-m/nofp/crtn.o
 .data          0x00000000        0x0 c:/program files/microchip/xc32/v4.35/bin/bin/../../lib/gcc/pic32c/8.3.1/thumb/v6-m/nofp/crtn.o
 .bss           0x00000000        0x0 c:/program files/microchip/xc32/v4.35/bin/bin/../../lib/gcc/pic32c/8.3.1/thumb/v6-m/nofp/crtn.o
 .xc_stack_usage.hdr
                0x00000000        0xe c:/program files/microchip/xc32/v4.35/bin/bin/../../lib/gcc/pic32c/8.3.1/thumb/v6-m/nofp/crtn.o
 .text          0x00000000        0x0 c:/program files/microchip/xc32/v4.35/bin/bin/../../lib/gcc/pic32c/8.3.1/../../../../pic32c/lib/thumb/v6-m/nofp\libpic32c.a(pic32_data_init_clear.o)
 .data          0x00000000        0x0 c:/program files/microchip/xc32/v4.35/bin/bin/../../lib/gcc/pic32c/8.3.1/../../../../pic32c/lib/thumb/v6-m/nofp\libpic32c.a(pic32_data_init_clear.o)
 .bss           0x00000000        0x0 c:/program files/microchip/xc32/v4.35/bin/bin/../../lib/gcc/pic32c/8.3.1/../../../../pic32c/lib/thumb/v6-m/nofp\libpic32c.a(pic32_data_init_clear.o)
 .xc_stack_usage
                0x00000000       0x1b c:/program files/microchip/xc32/v4.35/bin/bin/../../lib/gcc/pic32c/8.3.1/../../../../pic32c/lib/thumb/v6-m/nofp\libpic32c.a(pic32_data_init_clear.o)
 .xc_stack_usage.hdr
                0x00000000        0xe c:/program files/microchip/xc32/v4.35/bin/bin/../../lib/gcc/pic32c/8.3.1/../../../../pic32c/lib/thumb/v6-m/nofp\libpic32c.a(pic32_data_init_clear.o)
 .text          0x00000000        0x0 c:/program files/microchip/xc32/v4.35/bin/bin/../../lib/gcc/pic32c/8.3.1/../../../../pic32c/lib/thumb/v6-m/nofp\libpic32c.a(pic32_data_init_copy.o)
 .data          0x00000000        0x0 c:/program files/microchip/xc32/v4.35/bin/bin/../../lib/gcc/pic32c/8.3.1/../../../../pic32c/lib/thumb/v6-m/nofp\libpic32c.a(pic32_data_init_copy.o)
 .bss           0x00000000        0x0 c:/program files/microchip/xc32/v4.35/bin/bin/../../lib/gcc/pic32c/8.3.1/../../../../pic32c/lib/thumb/v6-m/nofp\libpic32c.a(pic32_data_init_copy.o)
 .xc_stack_usage
                0x00000000       0x1a c:/program files/microchip/xc32/v4.35/bin/bin/../../lib/gcc/pic32c/8.3.1/../../../../pic32c/lib/thumb/v6-m/nofp\libpic32c.a(pic32_data_init_copy.o)
 .xc_stack_usage.hdr
                0x00000000        0xe c:/program files/microchip/xc32/v4.35/bin/bin/../../lib/gcc/pic32c/8.3.1/../../../../pic32c/lib/thumb/v6-m/nofp\libpic32c.a(pic32_data_init_copy.o)

Memory Configuration

Name             Origin             Length             Attributes
rom              0x00000000         0x00040000         xrl
ram              0x20000000         0x00008000         xw !r
lpram            0x30000000         0x00002000         xw !r
config_D0804000  0xd0804000         0x00000004
config_D0806020  0xd0806020         0x00000004
config_D0804004  0xd0804004         0x00000004
config_D0806034  0xd0806034         0x00000004
config_D0806030  0xd0806030         0x00000004
*default*        0x00000000         0xffffffff

Linker script and memory map

LOAD c:/program files/microchip/xc32/v4.35/bin/bin/../../lib/gcc/pic32c/8.3.1/thumb/v6-m/nofp/crti.o
LOAD c:/program files/microchip/xc32/v4.35/bin/bin/../../lib/gcc/pic32c/8.3.1/thumb/v6-m/nofp/crtbegin.o
LOAD build/default/production/_ext/745501718/pal.o
LOAD build/default/production/_ext/559172130/phy_irq_handler.o
LOAD build/default/production/_ext/559172130/phy_trx_reg_access.o
LOAD build/default/production/_ext/559172130/phy_tx.o
LOAD build/default/production/_ext/559172130/phy_pwr_mgmt.o
LOAD build/default/production/_ext/559172130/phy.o
LOAD build/default/production/_ext/559172130/tfa.o
LOAD build/default/production/_ext/559172130/phy_pib.o
LOAD build/default/production/_ext/559172130/phy_helper.o
LOAD build/default/production/_ext/559172130/phy_rx.o
LOAD build/default/production/_ext/559172130/phy_rx_enable.o
LOAD build/default/production/_ext/559172130/phy_ed.o
LOAD build/default/production/_ext/559172130/phy_init.o
LOAD build/default/production/_ext/957911548/phy_task.o
LOAD build/default/production/_ext/957911548/phy_rx_frame_cb.o
LOAD build/default/production/_ext/957911548/phy_tx_frame_done_cb.o
LOAD build/default/production/_ext/957911548/phy_ed_end_cb.o
LOAD build/default/production/_ext/1374435801/bmm.o
LOAD build/default/production/_ext/874725666/qmm.o
LOAD build/default/production/_ext/1331220252/led.o
LOAD build/default/production/_ext/1331220252/wlPdsTypesConverter.o
LOAD build/default/production/_ext/1181623987/miwi_app.o
LOAD build/default/production/_ext/1181623987/miwi_init.o
LOAD build/default/production/_ext/1181623987/miwi_mesh_app.o
LOAD build/default/production/_ext/1181623987/mimac_task.o
LOAD build/default/production/_ext/1181623987/miwi_mesh_frame.o
LOAD build/default/production/_ext/1181623987/miwi_mesh.o
LOAD build/default/production/_ext/1181623987/commands.o
LOAD build/default/production/_ext/1181623987/miwi_mesh_commissioning.o
LOAD build/default/production/_ext/1181623987/mimac.o
LOAD build/default/production/_ext/1181623987/miwi_mesh_pds.o
LOAD build/default/production/_ext/1181623987/miwi_mesh_routing.o
LOAD build/default/production/_ext/1181623987/miwi_mesh_join.o
LOAD build/default/production/_ext/1181623987/miwi_mesh_security.o
LOAD build/default/production/_ext/1529399856/osal_freertos.o
LOAD build/default/production/_ext/1529399856/osal_freertos_extend.o
LOAD build/default/production/_ext/1984496892/plib_clock.o
LOAD build/default/production/_ext/60167341/plib_eic.o
LOAD build/default/production/_ext/1986646378/plib_evsys.o
LOAD build/default/production/_ext/1865468468/plib_nvic.o
LOAD build/default/production/_ext/1593096446/plib_nvmctrl.o
LOAD build/default/production/_ext/829342769/plib_pm.o
LOAD build/default/production/_ext/1865521619/plib_port.o
LOAD build/default/production/_ext/17022449/plib_sercom4_spi_master.o
LOAD build/default/production/_ext/829342655/plib_tc0.o
LOAD build/default/production/_ext/163028504/xc32_monitor.o
LOAD build/default/production/_ext/1881668453/sys_int.o
LOAD build/default/production/_ext/101884895/sys_time.o
LOAD build/default/production/_ext/1171490990/tasks.o
LOAD build/default/production/_ext/1171490990/libc_syscalls.o
LOAD build/default/production/_ext/1171490990/interrupts.o
LOAD build/default/production/_ext/1171490990/freertos_hooks.o
LOAD build/default/production/_ext/1171490990/initialization.o
LOAD build/default/production/_ext/1171490990/startup_xc32.o
LOAD build/default/production/_ext/1171490990/exceptions.o
LOAD build/default/production/_ext/1624415188/port.o
LOAD build/default/production/_ext/1665200909/heap_4.o
LOAD build/default/production/_ext/404212886/croutine.o
LOAD build/default/production/_ext/404212886/list.o
LOAD build/default/production/_ext/404212886/FreeRTOS_tasks.o
LOAD build/default/production/_ext/404212886/timers.o
LOAD build/default/production/_ext/404212886/event_groups.o
LOAD build/default/production/_ext/404212886/stream_buffer.o
LOAD build/default/production/_ext/404212886/queue.o
LOAD build/default/production/_ext/1360937237/main.o
LOAD build/default/production/_ext/1360937237/app.o
LOAD build/default/production/_ext/1360937237/app_idle_task.o
                0x00000001                __MPLAB_BUILD = 0x1
                0x00040000                __rom_end = (ORIGIN (rom) + LENGTH (rom))
                0x20008000                __ram_end = (ORIGIN (ram) + LENGTH (ram))

.config_D0804000
 *(.config_D0804000)

.config_D0806020
 *(.config_D0806020)

.config_D0804004
 *(.config_D0804004)

.config_D0806034
 *(.config_D0806034)

.config_D0806030
 *(.config_D0806030)

.vectors        0x00000000       0xa8
                0x00000000                . = ALIGN (0x4)
                0x00000000                _sfixed = .
 *(.vectors .vectors.* .vectors_default .vectors_default.*)
 .vectors.exception_table
                0x00000000       0xa8 build/default/production/_ext/1171490990/interrupts.o
                0x00000000                exception_table
 *(.isr_vector)
 *(.reset*)
 *(.after_vectors)

.text           0x000000a8       0x20
                0x000000a8                . = ALIGN (0x4)
 *(.glue_7t)
 .glue_7t       0x000000a8        0x0 linker stubs
 *(.glue_7)
 .glue_7        0x000000a8        0x0 linker stubs
 *(.gnu.linkonce.r.*)
 *(.ARM.extab* .gnu.linkonce.armextab.*)
                0x000000a8                . = ALIGN (0x4)
 *(.init)
 .init          0x000000a8        0x4 c:/program files/microchip/xc32/v4.35/bin/bin/../../lib/gcc/pic32c/8.3.1/thumb/v6-m/nofp/crti.o
                0x000000a8                _init
 .init          0x000000ac        0x8 c:/program files/microchip/xc32/v4.35/bin/bin/../../lib/gcc/pic32c/8.3.1/thumb/v6-m/nofp/crtn.o
                0x000000b4                . = ALIGN (0x4)
                0x000000b4                __preinit_array_start = .
 *(.preinit_array)
                0x000000b4                __preinit_array_end = .
                0x000000b4                . = ALIGN (0x4)
                0x000000b4                __init_array_start = .
 *(SORT_BY_NAME(.init_array.*))
 *(.init_array)
 .init_array    0x000000b4        0x4 c:/program files/microchip/xc32/v4.35/bin/bin/../../lib/gcc/pic32c/8.3.1/thumb/v6-m/nofp/crtbegin.o
                0x000000b8                __init_array_end = .
                0x000000b8                . = ALIGN (0x4)
 *crtbegin.o(.ctors)
 *(EXCLUDE_FILE(*crtend.o) .ctors)
 *(SORT_BY_NAME(.ctors.*))
 *crtend.o(.ctors)
                0x000000b8                . = ALIGN (0x4)
 *(.fini)
 .fini          0x000000b8        0x4 c:/program files/microchip/xc32/v4.35/bin/bin/../../lib/gcc/pic32c/8.3.1/thumb/v6-m/nofp/crti.o
                0x000000b8                _fini
 .fini          0x000000bc        0x8 c:/program files/microchip/xc32/v4.35/bin/bin/../../lib/gcc/pic32c/8.3.1/thumb/v6-m/nofp/crtn.o
                0x000000c4                . = ALIGN (0x4)
                0x000000c4                __fini_array_start = .
 *(.fini_array)
 .fini_array    0x000000c4        0x4 c:/program files/microchip/xc32/v4.35/bin/bin/../../lib/gcc/pic32c/8.3.1/thumb/v6-m/nofp/crtbegin.o
 *(SORT_BY_NAME(.fini_array.*))
                0x000000c8                __fini_array_end = .
 *crtbegin.o(.dtors)
 *(EXCLUDE_FILE(*crtend.o) .dtors)
 *(SORT_BY_NAME(.dtors.*))
 *crtend.o(.dtors)
                0x000000c8                . = ALIGN (0x4)
                0x000000c8                _efixed = .
                [!provide]                PROVIDE (__exidx_start = .)

.ARM.exidx      0x000000c8        0x8
 *(.ARM.exidx* .gnu.linkonce.armexidx.*)
 .ARM.exidx     0x000000c8        0x8 c:/program files/microchip/xc32/v4.35/bin/bin/../../lib/gcc/pic32c/8.3.1/thumb/v6-m/nofp\libgcc.a(_udivmoddi4.o)
                [!provide]                PROVIDE (__exidx_end = .)
                0x000000d0                . = ALIGN (0x4)
                0x000000d0                _etext = .

.bss            0x20000000        0x0
                0x20000000                . = ALIGN (0x4)
                0x20000000                __bss_start__ = .
                0x20000000                _sbss = .
                0x20000000                _szero = .
 *(COMMON)
                0x20000000                . = ALIGN (0x4)
                0x20000000                __bss_end__ = .
                0x20000000                _ebss = .
                0x20000000                _ezero = .
                0x20000000                . = ALIGN (0x4)
                0x20000000                _end = .
                0x20007fff                _ram_end_ = ((ORIGIN (ram) + LENGTH (ram)) - 0x1)

.lpram_output   0x30000000        0x0
                0x30000000                . = ALIGN (0x4)
 *(.lpram .lpram.*)
                0x30000000                . = ALIGN (0x4)
                0x30000000                . = ALIGN (0x4)
                0x30001fff                _lpram_end_ = ((ORIGIN (lpram) + LENGTH (lpram)) - 0x1)
                0x00000200                _min_heap_size = 0x200
START GROUP
LOAD c:/program files/microchip/xc32/v4.35/bin/bin/../../lib/gcc/pic32c/8.3.1/../../../../pic32c/lib/thumb/v6-m/nofp\libpic32c.a
LOAD c:/program files/microchip/xc32/v4.35/bin/bin/../../lib/gcc/pic32c/8.3.1/../../../../pic32c/lib/thumb/v6-m/nofp\libm-fast-emfloat.a
LOAD c:/program files/microchip/xc32/v4.35/bin/bin/../../lib/gcc/pic32c/8.3.1/../../../../pic32c/lib/thumb/v6-m/nofp\libc-musl.a
LOAD c:/program files/microchip/xc32/v4.35/bin/bin/../../lib/gcc/pic32c/8.3.1/../../../../pic32c/lib/thumb/v6-m/nofp\libm-fast-emfloat.a
LOAD c:/program files/microchip/xc32/v4.35/bin/bin/../../lib/gcc/pic32c/8.3.1/thumb/v6-m/nofp\libgcc.a
END GROUP
LOAD c:/program files/microchip/xc32/v4.35/bin/bin/../../lib/gcc/pic32c/8.3.1/thumb/v6-m/nofp/crtend.o
LOAD c:/program files/microchip/xc32/v4.35/bin/bin/../../lib/gcc/pic32c/8.3.1/thumb/v6-m/nofp/crtn.o
OUTPUT(dist/default/production/Project.X.production.elf elf32-littlearm)
LOAD data_init
LOAD stack

.ARM.attributes
                0x00000000       0x2a
 .ARM.attributes
                0x00000000       0x1e c:/program files/microchip/xc32/v4.35/bin/bin/../../lib/gcc/pic32c/8.3.1/thumb/v6-m/nofp/crti.o
 .ARM.attributes
                0x0000001e       0x2c c:/program files/microchip/xc32/v4.35/bin/bin/../../lib/gcc/pic32c/8.3.1/thumb/v6-m/nofp/crtbegin.o
 .ARM.attributes
                0x0000004a       0x2c build/default/production/_ext/745501718/pal.o
 .ARM.attributes
                0x00000076       0x2c build/default/production/_ext/559172130/phy_irq_handler.o
 .ARM.attributes
                0x000000a2       0x2c build/default/production/_ext/559172130/phy_trx_reg_access.o
 .ARM.attributes
                0x000000ce       0x2c build/default/production/_ext/559172130/phy_tx.o
 .ARM.attributes
                0x000000fa       0x2c build/default/production/_ext/559172130/phy_pwr_mgmt.o
 .ARM.attributes
                0x00000126       0x2c build/default/production/_ext/559172130/phy.o
 .ARM.attributes
                0x00000152       0x2c build/default/production/_ext/559172130/tfa.o
 .ARM.attributes
                0x0000017e       0x2c build/default/production/_ext/559172130/phy_pib.o
 .ARM.attributes
                0x000001aa       0x2c build/default/production/_ext/559172130/phy_helper.o
 .ARM.attributes
                0x000001d6       0x2c build/default/production/_ext/559172130/phy_rx.o
 .ARM.attributes
                0x00000202       0x2c build/default/production/_ext/559172130/phy_rx_enable.o
 .ARM.attributes
                0x0000022e       0x2c build/default/production/_ext/559172130/phy_ed.o
 .ARM.attributes
                0x0000025a       0x2c build/default/production/_ext/559172130/phy_init.o
 .ARM.attributes
                0x00000286       0x2c build/default/production/_ext/957911548/phy_task.o
 .ARM.attributes
                0x000002b2       0x2c build/default/production/_ext/1374435801/bmm.o
 .ARM.attributes
                0x000002de       0x2c build/default/production/_ext/874725666/qmm.o
 .ARM.attributes
                0x0000030a       0x2c build/default/production/_ext/1181623987/miwi_app.o
 .ARM.attributes
                0x00000336       0x2c build/default/production/_ext/1181623987/miwi_init.o
 .ARM.attributes
                0x00000362       0x32 build/default/production/_ext/1181623987/miwi_mesh_app.o
 .ARM.attributes
                0x00000394       0x2c build/default/production/_ext/1181623987/mimac_task.o
 .ARM.attributes
                0x000003c0       0x2c build/default/production/_ext/1181623987/miwi_mesh_frame.o
 .ARM.attributes
                0x000003ec       0x2c build/default/production/_ext/1181623987/miwi_mesh.o
 .ARM.attributes
                0x00000418       0x2c build/default/production/_ext/1181623987/commands.o
 .ARM.attributes
                0x00000444       0x2c build/default/production/_ext/1181623987/miwi_mesh_commissioning.o
 .ARM.attributes
                0x00000470       0x2c build/default/production/_ext/1181623987/mimac.o
 .ARM.attributes
                0x0000049c       0x2c build/default/production/_ext/1181623987/miwi_mesh_routing.o
 .ARM.attributes
                0x000004c8       0x2c build/default/production/_ext/1181623987/miwi_mesh_join.o
 .ARM.attributes
                0x000004f4       0x2c build/default/production/_ext/1529399856/osal_freertos.o
 .ARM.attributes
                0x00000520       0x2c build/default/production/_ext/1529399856/osal_freertos_extend.o
 .ARM.attributes
                0x0000054c       0x2c build/default/production/_ext/1984496892/plib_clock.o
 .ARM.attributes
                0x00000578       0x2c build/default/production/_ext/60167341/plib_eic.o
 .ARM.attributes
                0x000005a4       0x2c build/default/production/_ext/1986646378/plib_evsys.o
 .ARM.attributes
                0x000005d0       0x2c build/default/production/_ext/1865468468/plib_nvic.o
 .ARM.attributes
                0x000005fc       0x2c build/default/production/_ext/1593096446/plib_nvmctrl.o
 .ARM.attributes
                0x00000628       0x2c build/default/production/_ext/829342769/plib_pm.o
 .ARM.attributes
                0x00000654       0x2c build/default/production/_ext/1865521619/plib_port.o
 .ARM.attributes
                0x00000680       0x2c build/default/production/_ext/17022449/plib_sercom4_spi_master.o
 .ARM.attributes
                0x000006ac       0x2c build/default/production/_ext/829342655/plib_tc0.o
 .ARM.attributes
                0x000006d8       0x2c build/default/production/_ext/1881668453/sys_int.o
 .ARM.attributes
                0x00000704       0x2c build/default/production/_ext/101884895/sys_time.o
 .ARM.attributes
                0x00000730       0x2c build/default/production/_ext/1171490990/tasks.o
 .ARM.attributes
                0x0000075c       0x2c build/default/production/_ext/1171490990/interrupts.o
 .ARM.attributes
                0x00000788       0x2c build/default/production/_ext/1171490990/freertos_hooks.o
 .ARM.attributes
                0x000007b4       0x2c build/default/production/_ext/1171490990/initialization.o
 .ARM.attributes
                0x000007e0       0x2c build/default/production/_ext/1171490990/startup_xc32.o
 .ARM.attributes
                0x0000080c       0x2c build/default/production/_ext/1171490990/exceptions.o
 .ARM.attributes
                0x00000838       0x2c build/default/production/_ext/1624415188/port.o
 .ARM.attributes
                0x00000864       0x2c build/default/production/_ext/1665200909/heap_4.o
 .ARM.attributes
                0x00000890       0x2c build/default/production/_ext/404212886/list.o
 .ARM.attributes
                0x000008bc       0x2c build/default/production/_ext/404212886/FreeRTOS_tasks.o
 .ARM.attributes
                0x000008e8       0x2c build/default/production/_ext/404212886/queue.o
 .ARM.attributes
                0x00000914       0x2c build/default/production/_ext/1360937237/main.o
 .ARM.attributes
                0x00000940       0x2c build/default/production/_ext/1360937237/app.o
 .ARM.attributes
                0x0000096c       0x2c c:/program files/microchip/xc32/v4.35/bin/bin/../../lib/gcc/pic32c/8.3.1/../../../../pic32c/lib/thumb/v6-m/nofp\libpic32c.a(data_init.o)
 .ARM.attributes
                0x00000998       0x2e c:/program files/microchip/xc32/v4.35/bin/bin/../../lib/gcc/pic32c/8.3.1/../../../../pic32c/lib/thumb/v6-m/nofp\libc-musl.a(__libc_start_main.o)
 .ARM.attributes
                0x000009c6       0x2e c:/program files/microchip/xc32/v4.35/bin/bin/../../lib/gcc/pic32c/8.3.1/../../../../pic32c/lib/thumb/v6-m/nofp\libc-musl.a(libc.o)
 .ARM.attributes
                0x000009f4       0x2e c:/program files/microchip/xc32/v4.35/bin/bin/../../lib/gcc/pic32c/8.3.1/../../../../pic32c/lib/thumb/v6-m/nofp\libc-musl.a(rand.o)
 .ARM.attributes
                0x00000a22       0x2e c:/program files/microchip/xc32/v4.35/bin/bin/../../lib/gcc/pic32c/8.3.1/../../../../pic32c/lib/thumb/v6-m/nofp\libc-musl.a(memcmp.o)
 .ARM.attributes
                0x00000a50       0x2e c:/program files/microchip/xc32/v4.35/bin/bin/../../lib/gcc/pic32c/8.3.1/../../../../pic32c/lib/thumb/v6-m/nofp\libc-musl.a(memcpy.o)
 .ARM.attributes
                0x00000a7e       0x2e c:/program files/microchip/xc32/v4.35/bin/bin/../../lib/gcc/pic32c/8.3.1/../../../../pic32c/lib/thumb/v6-m/nofp\libc-musl.a(memset.o)
 .ARM.attributes
                0x00000aac       0x2e c:/program files/microchip/xc32/v4.35/bin/bin/../../lib/gcc/pic32c/8.3.1/../../../../pic32c/lib/thumb/v6-m/nofp\libc-musl.a(__environ.o)
 .ARM.attributes
                0x00000ada       0x1e c:/program files/microchip/xc32/v4.35/bin/bin/../../lib/gcc/pic32c/8.3.1/thumb/v6-m/nofp\libgcc.a(_udivsi3.o)
 .ARM.attributes
                0x00000af8       0x1e c:/program files/microchip/xc32/v4.35/bin/bin/../../lib/gcc/pic32c/8.3.1/thumb/v6-m/nofp\libgcc.a(_divsi3.o)
 .ARM.attributes
                0x00000b16       0x1e c:/program files/microchip/xc32/v4.35/bin/bin/../../lib/gcc/pic32c/8.3.1/thumb/v6-m/nofp\libgcc.a(_dvmd_tls.o)
 .ARM.attributes
                0x00000b34       0x1e c:/program files/microchip/xc32/v4.35/bin/bin/../../lib/gcc/pic32c/8.3.1/thumb/v6-m/nofp\libgcc.a(_aeabi_uldivmod.o)
 .ARM.attributes
                0x00000b52       0x2c c:/program files/microchip/xc32/v4.35/bin/bin/../../lib/gcc/pic32c/8.3.1/thumb/v6-m/nofp\libgcc.a(_muldi3.o)
 .ARM.attributes
                0x00000b7e       0x2c c:/program files/microchip/xc32/v4.35/bin/bin/../../lib/gcc/pic32c/8.3.1/thumb/v6-m/nofp\libgcc.a(_udivmoddi4.o)
 .ARM.attributes
                0x00000baa       0x1e c:/program files/microchip/xc32/v4.35/bin/bin/../../lib/gcc/pic32c/8.3.1/thumb/v6-m/nofp\libgcc.a(_lshrdi3.o)
 .ARM.attributes
                0x00000bc8       0x1e c:/program files/microchip/xc32/v4.35/bin/bin/../../lib/gcc/pic32c/8.3.1/thumb/v6-m/nofp\libgcc.a(_ashldi3.o)
 .ARM.attributes
                0x00000be6       0x1e c:/program files/microchip/xc32/v4.35/bin/bin/../../lib/gcc/pic32c/8.3.1/thumb/v6-m/nofp\libgcc.a(_clzdi2.o)
 .ARM.attributes
                0x00000c04       0x1e c:/program files/microchip/xc32/v4.35/bin/bin/../../lib/gcc/pic32c/8.3.1/thumb/v6-m/nofp\libgcc.a(_clzsi2.o)
 .ARM.attributes
                0x00000c22       0x1e c:/program files/microchip/xc32/v4.35/bin/bin/../../lib/gcc/pic32c/8.3.1/thumb/v6-m/nofp/crtn.o
 .ARM.attributes
                0x00000c40       0x2c c:/program files/microchip/xc32/v4.35/bin/bin/../../lib/gcc/pic32c/8.3.1/../../../../pic32c/lib/thumb/v6-m/nofp\libpic32c.a(pic32_data_init_clear.o)
 .ARM.attributes
                0x00000c6c       0x2c c:/program files/microchip/xc32/v4.35/bin/bin/../../lib/gcc/pic32c/8.3.1/../../../../pic32c/lib/thumb/v6-m/nofp\libpic32c.a(pic32_data_init_copy.o)

.comment        0x00000000       0x2b
 .comment       0x00000000       0x2b c:/program files/microchip/xc32/v4.35/bin/bin/../../lib/gcc/pic32c/8.3.1/thumb/v6-m/nofp/crtbegin.o
                                 0x2c (size before relaxing)
 .comment       0x0000002b       0x2c build/default/production/_ext/745501718/pal.o
 .comment       0x0000002b       0x2c build/default/production/_ext/559172130/phy_irq_handler.o
 .comment       0x0000002b       0x2c build/default/production/_ext/559172130/phy_trx_reg_access.o
 .comment       0x0000002b       0x2c build/default/production/_ext/559172130/phy_tx.o
 .comment       0x0000002b       0x2c build/default/production/_ext/559172130/phy_pwr_mgmt.o
 .comment       0x0000002b       0x2c build/default/production/_ext/559172130/phy.o
 .comment       0x0000002b       0x2c build/default/production/_ext/559172130/tfa.o
 .comment       0x0000002b       0x2c build/default/production/_ext/559172130/phy_pib.o
 .comment       0x0000002b       0x2c build/default/production/_ext/559172130/phy_helper.o
 .comment       0x0000002b       0x2c build/default/production/_ext/559172130/phy_rx.o
 .comment       0x0000002b       0x2c build/default/production/_ext/559172130/phy_rx_enable.o
 .comment       0x0000002b       0x2c build/default/production/_ext/559172130/phy_ed.o
 .comment       0x0000002b       0x2c build/default/production/_ext/559172130/phy_init.o
 .comment       0x0000002b       0x2c build/default/production/_ext/957911548/phy_task.o
 .comment       0x0000002b       0x2c build/default/production/_ext/1374435801/bmm.o
 .comment       0x0000002b       0x2c build/default/production/_ext/874725666/qmm.o
 .comment       0x0000002b       0x2c build/default/production/_ext/1181623987/miwi_app.o
 .comment       0x0000002b       0x2c build/default/production/_ext/1181623987/miwi_init.o
 .comment       0x0000002b       0x2c build/default/production/_ext/1181623987/miwi_mesh_app.o
 .comment       0x0000002b       0x2c build/default/production/_ext/1181623987/mimac_task.o
 .comment       0x0000002b       0x2c build/default/production/_ext/1181623987/miwi_mesh_frame.o
 .comment       0x0000002b       0x2c build/default/production/_ext/1181623987/miwi_mesh.o
 .comment       0x0000002b       0x2c build/default/production/_ext/1181623987/commands.o
 .comment       0x0000002b       0x2c build/default/production/_ext/1181623987/miwi_mesh_commissioning.o
 .comment       0x0000002b       0x2c build/default/production/_ext/1181623987/mimac.o
 .comment       0x0000002b       0x2c build/default/production/_ext/1181623987/miwi_mesh_routing.o
 .comment       0x0000002b       0x2c build/default/production/_ext/1181623987/miwi_mesh_join.o
 .comment       0x0000002b       0x2c build/default/production/_ext/1529399856/osal_freertos.o
 .comment       0x0000002b       0x2c build/default/production/_ext/1529399856/osal_freertos_extend.o
 .comment       0x0000002b       0x2c build/default/production/_ext/1984496892/plib_clock.o
 .comment       0x0000002b       0x2c build/default/production/_ext/60167341/plib_eic.o
 .comment       0x0000002b       0x2c build/default/production/_ext/1986646378/plib_evsys.o
 .comment       0x0000002b       0x2c build/default/production/_ext/1865468468/plib_nvic.o
 .comment       0x0000002b       0x2c build/default/production/_ext/1593096446/plib_nvmctrl.o
 .comment       0x0000002b       0x2c build/default/production/_ext/829342769/plib_pm.o
 .comment       0x0000002b       0x2c build/default/production/_ext/1865521619/plib_port.o
 .comment       0x0000002b       0x2c build/default/production/_ext/17022449/plib_sercom4_spi_master.o
 .comment       0x0000002b       0x2c build/default/production/_ext/829342655/plib_tc0.o
 .comment       0x0000002b       0x2c build/default/production/_ext/1881668453/sys_int.o
 .comment       0x0000002b       0x2c build/default/production/_ext/101884895/sys_time.o
 .comment       0x0000002b       0x2c build/default/production/_ext/1171490990/tasks.o
 .comment       0x0000002b       0x2c build/default/production/_ext/1171490990/interrupts.o
 .comment       0x0000002b       0x2c build/default/production/_ext/1171490990/freertos_hooks.o
 .comment       0x0000002b       0x2c build/default/production/_ext/1171490990/initialization.o
 .comment       0x0000002b       0x2c build/default/production/_ext/1171490990/startup_xc32.o
 .comment       0x0000002b       0x2c build/default/production/_ext/1171490990/exceptions.o
 .comment       0x0000002b       0x2c build/default/production/_ext/1624415188/port.o
 .comment       0x0000002b       0x2c build/default/production/_ext/1665200909/heap_4.o
 .comment       0x0000002b       0x2c build/default/production/_ext/404212886/list.o
 .comment       0x0000002b       0x2c build/default/production/_ext/404212886/FreeRTOS_tasks.o
 .comment       0x0000002b       0x2c build/default/production/_ext/404212886/queue.o
 .comment       0x0000002b       0x2c build/default/production/_ext/1360937237/main.o
 .comment       0x0000002b       0x2c build/default/production/_ext/1360937237/app.o
 .comment       0x0000002b       0x2c c:/program files/microchip/xc32/v4.35/bin/bin/../../lib/gcc/pic32c/8.3.1/../../../../pic32c/lib/thumb/v6-m/nofp\libpic32c.a(data_init.o)
 .comment       0x0000002b       0x2c c:/program files/microchip/xc32/v4.35/bin/bin/../../lib/gcc/pic32c/8.3.1/../../../../pic32c/lib/thumb/v6-m/nofp\libc-musl.a(__libc_start_main.o)
 .comment       0x0000002b       0x2c c:/program files/microchip/xc32/v4.35/bin/bin/../../lib/gcc/pic32c/8.3.1/../../../../pic32c/lib/thumb/v6-m/nofp\libc-musl.a(libc.o)
 .comment       0x0000002b       0x2c c:/program files/microchip/xc32/v4.35/bin/bin/../../lib/gcc/pic32c/8.3.1/../../../../pic32c/lib/thumb/v6-m/nofp\libc-musl.a(rand.o)
 .comment       0x0000002b       0x2c c:/program files/microchip/xc32/v4.35/bin/bin/../../lib/gcc/pic32c/8.3.1/../../../../pic32c/lib/thumb/v6-m/nofp\libc-musl.a(memcmp.o)
 .comment       0x0000002b       0x2c c:/program files/microchip/xc32/v4.35/bin/bin/../../lib/gcc/pic32c/8.3.1/../../../../pic32c/lib/thumb/v6-m/nofp\libc-musl.a(memcpy.o)
 .comment       0x0000002b       0x2c c:/program files/microchip/xc32/v4.35/bin/bin/../../lib/gcc/pic32c/8.3.1/../../../../pic32c/lib/thumb/v6-m/nofp\libc-musl.a(memset.o)
 .comment       0x0000002b       0x2c c:/program files/microchip/xc32/v4.35/bin/bin/../../lib/gcc/pic32c/8.3.1/../../../../pic32c/lib/thumb/v6-m/nofp\libc-musl.a(__environ.o)
 .comment       0x0000002b       0x2c c:/program files/microchip/xc32/v4.35/bin/bin/../../lib/gcc/pic32c/8.3.1/thumb/v6-m/nofp\libgcc.a(_muldi3.o)
 .comment       0x0000002b       0x2c c:/program files/microchip/xc32/v4.35/bin/bin/../../lib/gcc/pic32c/8.3.1/thumb/v6-m/nofp\libgcc.a(_udivmoddi4.o)
 .comment       0x0000002b       0x2c c:/program files/microchip/xc32/v4.35/bin/bin/../../lib/gcc/pic32c/8.3.1/../../../../pic32c/lib/thumb/v6-m/nofp\libpic32c.a(pic32_data_init_clear.o)
 .comment       0x0000002b       0x2c c:/program files/microchip/xc32/v4.35/bin/bin/../../lib/gcc/pic32c/8.3.1/../../../../pic32c/lib/thumb/v6-m/nofp\libpic32c.a(pic32_data_init_copy.o)

.debug_info     0x00000000    0x3db7f
 .debug_info    0x00000000      0xedd build/default/production/_ext/745501718/pal.o
 .debug_info    0x00000edd      0x9cb build/default/production/_ext/559172130/phy_irq_handler.o
 .debug_info    0x000018a8      0xbe9 build/default/production/_ext/559172130/phy_trx_reg_access.o
 .debug_info    0x00002491     0x1579 build/default/production/_ext/559172130/phy_tx.o
 .debug_info    0x00003a0a      0xcae build/default/production/_ext/559172130/phy_pwr_mgmt.o
 .debug_info    0x000046b8     0x17b5 build/default/production/_ext/559172130/phy.o
 .debug_info    0x00005e6d     0x1635 build/default/production/_ext/559172130/tfa.o
 .debug_info    0x000074a2     0x1742 build/default/production/_ext/559172130/phy_pib.o
 .debug_info    0x00008be4     0x17d1 build/default/production/_ext/559172130/phy_helper.o
 .debug_info    0x0000a3b5      0xca5 build/default/production/_ext/559172130/phy_rx.o
 .debug_info    0x0000b05a      0xa06 build/default/production/_ext/559172130/phy_rx_enable.o
 .debug_info    0x0000ba60      0xd0e build/default/production/_ext/559172130/phy_ed.o
 .debug_info    0x0000c76e     0x1ac3 build/default/production/_ext/559172130/phy_init.o
 .debug_info    0x0000e231      0x51f build/default/production/_ext/957911548/phy_task.o
 .debug_info    0x0000e750      0x6d6 build/default/production/_ext/1374435801/bmm.o
 .debug_info    0x0000ee26      0x82e build/default/production/_ext/874725666/qmm.o
 .debug_info    0x0000f654     0x3151 build/default/production/_ext/1181623987/miwi_app.o
 .debug_info    0x000127a5     0x153d build/default/production/_ext/1181623987/miwi_init.o
 .debug_info    0x00013ce2      0xfa4 build/default/production/_ext/1181623987/miwi_mesh_app.o
 .debug_info    0x00014c86     0x124c build/default/production/_ext/1181623987/mimac_task.o
 .debug_info    0x00015ed2     0x353a build/default/production/_ext/1181623987/miwi_mesh_frame.o
 .debug_info    0x0001940c     0x31f9 build/default/production/_ext/1181623987/miwi_mesh.o
 .debug_info    0x0001c605     0x1433 build/default/production/_ext/1181623987/commands.o
 .debug_info    0x0001da38      0xb3e build/default/production/_ext/1181623987/miwi_mesh_commissioning.o
 .debug_info    0x0001e576     0x25a6 build/default/production/_ext/1181623987/mimac.o
 .debug_info    0x00020b1c     0x2319 build/default/production/_ext/1181623987/miwi_mesh_routing.o
 .debug_info    0x00022e35     0x3f74 build/default/production/_ext/1181623987/miwi_mesh_join.o
 .debug_info    0x00026da9      0xbbc build/default/production/_ext/1529399856/osal_freertos.o
 .debug_info    0x00027965      0x8f5 build/default/production/_ext/1529399856/osal_freertos_extend.o
 .debug_info    0x0002825a      0xaa9 build/default/production/_ext/1984496892/plib_clock.o
 .debug_info    0x00028d03      0x6a5 build/default/production/_ext/60167341/plib_eic.o
 .debug_info    0x000293a8      0x308 build/default/production/_ext/1986646378/plib_evsys.o
 .debug_info    0x000296b0      0xab6 build/default/production/_ext/1865468468/plib_nvic.o
 .debug_info    0x0002a166      0xb3e build/default/production/_ext/1593096446/plib_nvmctrl.o
 .debug_info    0x0002aca4      0x605 build/default/production/_ext/829342769/plib_pm.o
 .debug_info    0x0002b2a9      0xcbe build/default/production/_ext/1865521619/plib_port.o
 .debug_info    0x0002bf67     0x14aa build/default/production/_ext/17022449/plib_sercom4_spi_master.o
 .debug_info    0x0002d411      0xc89 build/default/production/_ext/829342655/plib_tc0.o
 .debug_info    0x0002e09a      0x99f build/default/production/_ext/1881668453/sys_int.o
 .debug_info    0x0002ea39     0x2735 build/default/production/_ext/101884895/sys_time.o
 .debug_info    0x0003116e      0x61b build/default/production/_ext/1171490990/tasks.o
 .debug_info    0x00031789      0x825 build/default/production/_ext/1171490990/interrupts.o
 .debug_info    0x00031fae      0x486 build/default/production/_ext/1171490990/freertos_hooks.o
 .debug_info    0x00032434     0x1382 build/default/production/_ext/1171490990/initialization.o
 .debug_info    0x000337b6      0x48d build/default/production/_ext/1171490990/startup_xc32.o
 .debug_info    0x00033c43      0x32c build/default/production/_ext/1171490990/exceptions.o
 .debug_info    0x00033f6f      0x6df build/default/production/_ext/1624415188/port.o
 .debug_info    0x0003464e      0xa34 build/default/production/_ext/1665200909/heap_4.o
 .debug_info    0x00035082      0x622 build/default/production/_ext/404212886/list.o
 .debug_info    0x000356a4     0x2cb9 build/default/production/_ext/404212886/FreeRTOS_tasks.o
 .debug_info    0x0003835d     0x247e build/default/production/_ext/404212886/queue.o
 .debug_info    0x0003a7db      0x321 build/default/production/_ext/1360937237/main.o
 .debug_info    0x0003aafc      0x59e build/default/production/_ext/1360937237/app.o
 .debug_info    0x0003b09a      0x2b9 c:/program files/microchip/xc32/v4.35/bin/bin/../../lib/gcc/pic32c/8.3.1/../../../../pic32c/lib/thumb/v6-m/nofp\libpic32c.a(data_init.o)
 .debug_info    0x0003b353      0x616 c:/program files/microchip/xc32/v4.35/bin/bin/../../lib/gcc/pic32c/8.3.1/../../../../pic32c/lib/thumb/v6-m/nofp\libc-musl.a(__libc_start_main.o)
 .debug_info    0x0003b969      0x528 c:/program files/microchip/xc32/v4.35/bin/bin/../../lib/gcc/pic32c/8.3.1/../../../../pic32c/lib/thumb/v6-m/nofp\libc-musl.a(libc.o)
 .debug_info    0x0003be91      0x31f c:/program files/microchip/xc32/v4.35/bin/bin/../../lib/gcc/pic32c/8.3.1/../../../../pic32c/lib/thumb/v6-m/nofp\libc-musl.a(rand.o)
 .debug_info    0x0003c1b0      0x2cf c:/program files/microchip/xc32/v4.35/bin/bin/../../lib/gcc/pic32c/8.3.1/../../../../pic32c/lib/thumb/v6-m/nofp\libc-musl.a(memcmp.o)
 .debug_info    0x0003c47f      0x2e8 c:/program files/microchip/xc32/v4.35/bin/bin/../../lib/gcc/pic32c/8.3.1/../../../../pic32c/lib/thumb/v6-m/nofp\libc-musl.a(memcpy.o)
 .debug_info    0x0003c767      0x2b2 c:/program files/microchip/xc32/v4.35/bin/bin/../../lib/gcc/pic32c/8.3.1/../../../../pic32c/lib/thumb/v6-m/nofp\libc-musl.a(memset.o)
 .debug_info    0x0003ca19      0x2a2 c:/program files/microchip/xc32/v4.35/bin/bin/../../lib/gcc/pic32c/8.3.1/../../../../pic32c/lib/thumb/v6-m/nofp\libc-musl.a(__environ.o)
 .debug_info    0x0003ccbb       0x26 c:/program files/microchip/xc32/v4.35/bin/bin/../../lib/gcc/pic32c/8.3.1/thumb/v6-m/nofp\libgcc.a(_udivsi3.o)
 .debug_info    0x0003cce1       0x26 c:/program files/microchip/xc32/v4.35/bin/bin/../../lib/gcc/pic32c/8.3.1/thumb/v6-m/nofp\libgcc.a(_divsi3.o)
 .debug_info    0x0003cd07       0x26 c:/program files/microchip/xc32/v4.35/bin/bin/../../lib/gcc/pic32c/8.3.1/thumb/v6-m/nofp\libgcc.a(_dvmd_tls.o)
 .debug_info    0x0003cd2d       0x26 c:/program files/microchip/xc32/v4.35/bin/bin/../../lib/gcc/pic32c/8.3.1/thumb/v6-m/nofp\libgcc.a(_aeabi_uldivmod.o)
 .debug_info    0x0003cd53      0x492 c:/program files/microchip/xc32/v4.35/bin/bin/../../lib/gcc/pic32c/8.3.1/thumb/v6-m/nofp\libgcc.a(_muldi3.o)
 .debug_info    0x0003d1e5      0x3df c:/program files/microchip/xc32/v4.35/bin/bin/../../lib/gcc/pic32c/8.3.1/thumb/v6-m/nofp\libgcc.a(_udivmoddi4.o)
 .debug_info    0x0003d5c4       0x26 c:/program files/microchip/xc32/v4.35/bin/bin/../../lib/gcc/pic32c/8.3.1/thumb/v6-m/nofp\libgcc.a(_lshrdi3.o)
 .debug_info    0x0003d5ea       0x26 c:/program files/microchip/xc32/v4.35/bin/bin/../../lib/gcc/pic32c/8.3.1/thumb/v6-m/nofp\libgcc.a(_ashldi3.o)
 .debug_info    0x0003d610       0x26 c:/program files/microchip/xc32/v4.35/bin/bin/../../lib/gcc/pic32c/8.3.1/thumb/v6-m/nofp\libgcc.a(_clzdi2.o)
 .debug_info    0x0003d636       0x26 c:/program files/microchip/xc32/v4.35/bin/bin/../../lib/gcc/pic32c/8.3.1/thumb/v6-m/nofp\libgcc.a(_clzsi2.o)
 .debug_info    0x0003d65c      0x292 c:/program files/microchip/xc32/v4.35/bin/bin/../../lib/gcc/pic32c/8.3.1/../../../../pic32c/lib/thumb/v6-m/nofp\libpic32c.a(pic32_data_init_clear.o)
 .debug_info    0x0003d8ee      0x291 c:/program files/microchip/xc32/v4.35/bin/bin/../../lib/gcc/pic32c/8.3.1/../../../../pic32c/lib/thumb/v6-m/nofp\libpic32c.a(pic32_data_init_copy.o)

.debug_abbrev   0x00000000     0x84fc
 .debug_abbrev  0x00000000      0x3a5 build/default/production/_ext/745501718/pal.o
 .debug_abbrev  0x000003a5      0x16b build/default/production/_ext/559172130/phy_irq_handler.o
 .debug_abbrev  0x00000510      0x175 build/default/production/_ext/559172130/phy_trx_reg_access.o
 .debug_abbrev  0x00000685      0x2a4 build/default/production/_ext/559172130/phy_tx.o
 .debug_abbrev  0x00000929      0x1c0 build/default/production/_ext/559172130/phy_pwr_mgmt.o
 .debug_abbrev  0x00000ae9      0x31d build/default/production/_ext/559172130/phy.o
 .debug_abbrev  0x00000e06      0x363 build/default/production/_ext/559172130/tfa.o
 .debug_abbrev  0x00001169      0x329 build/default/production/_ext/559172130/phy_pib.o
 .debug_abbrev  0x00001492      0x29a build/default/production/_ext/559172130/phy_helper.o
 .debug_abbrev  0x0000172c      0x240 build/default/production/_ext/559172130/phy_rx.o
 .debug_abbrev  0x0000196c      0x162 build/default/production/_ext/559172130/phy_rx_enable.o
 .debug_abbrev  0x00001ace      0x1b6 build/default/production/_ext/559172130/phy_ed.o
 .debug_abbrev  0x00001c84      0x396 build/default/production/_ext/559172130/phy_init.o
 .debug_abbrev  0x0000201a       0xe0 build/default/production/_ext/957911548/phy_task.o
 .debug_abbrev  0x000020fa      0x190 build/default/production/_ext/1374435801/bmm.o
 .debug_abbrev  0x0000228a      0x2b4 build/default/production/_ext/874725666/qmm.o
 .debug_abbrev  0x0000253e      0x595 build/default/production/_ext/1181623987/miwi_app.o
 .debug_abbrev  0x00002ad3      0x254 build/default/production/_ext/1181623987/miwi_init.o
 .debug_abbrev  0x00002d27      0x162 build/default/production/_ext/1181623987/miwi_mesh_app.o
 .debug_abbrev  0x00002e89      0x2a7 build/default/production/_ext/1181623987/mimac_task.o
 .debug_abbrev  0x00003130      0x498 build/default/production/_ext/1181623987/miwi_mesh_frame.o
 .debug_abbrev  0x000035c8      0x4e0 build/default/production/_ext/1181623987/miwi_mesh.o
 .debug_abbrev  0x00003aa8      0x3db build/default/production/_ext/1181623987/commands.o
 .debug_abbrev  0x00003e83      0x232 build/default/production/_ext/1181623987/miwi_mesh_commissioning.o
 .debug_abbrev  0x000040b5      0x496 build/default/production/_ext/1181623987/mimac.o
 .debug_abbrev  0x0000454b      0x48f build/default/production/_ext/1181623987/miwi_mesh_routing.o
 .debug_abbrev  0x000049da      0x5c7 build/default/production/_ext/1181623987/miwi_mesh_join.o
 .debug_abbrev  0x00004fa1      0x1f9 build/default/production/_ext/1529399856/osal_freertos.o
 .debug_abbrev  0x0000519a      0x189 build/default/production/_ext/1529399856/osal_freertos_extend.o
 .debug_abbrev  0x00005323      0x151 build/default/production/_ext/1984496892/plib_clock.o
 .debug_abbrev  0x00005474      0x1af build/default/production/_ext/60167341/plib_eic.o
 .debug_abbrev  0x00005623       0x3b build/default/production/_ext/1986646378/plib_evsys.o
 .debug_abbrev  0x0000565e      0x1e1 build/default/production/_ext/1865468468/plib_nvic.o
 .debug_abbrev  0x0000583f      0x1b8 build/default/production/_ext/1593096446/plib_nvmctrl.o
 .debug_abbrev  0x000059f7       0xfb build/default/production/_ext/829342769/plib_pm.o
 .debug_abbrev  0x00005af2      0x1d6 build/default/production/_ext/1865521619/plib_port.o
 .debug_abbrev  0x00005cc8      0x2b2 build/default/production/_ext/17022449/plib_sercom4_spi_master.o
 .debug_abbrev  0x00005f7a      0x1e9 build/default/production/_ext/829342655/plib_tc0.o
 .debug_abbrev  0x00006163      0x246 build/default/production/_ext/1881668453/sys_int.o
 .debug_abbrev  0x000063a9      0x516 build/default/production/_ext/101884895/sys_time.o
 .debug_abbrev  0x000068bf      0x124 build/default/production/_ext/1171490990/tasks.o
 .debug_abbrev  0x000069e3       0xb5 build/default/production/_ext/1171490990/interrupts.o
 .debug_abbrev  0x00006a98       0xf7 build/default/production/_ext/1171490990/freertos_hooks.o
 .debug_abbrev  0x00006b8f      0x229 build/default/production/_ext/1171490990/initialization.o
 .debug_abbrev  0x00006db8      0x110 build/default/production/_ext/1171490990/startup_xc32.o
 .debug_abbrev  0x00006ec8       0x3e build/default/production/_ext/1171490990/exceptions.o
 .debug_abbrev  0x00006f06      0x1cf build/default/production/_ext/1624415188/port.o
 .debug_abbrev  0x000070d5      0x261 build/default/production/_ext/1665200909/heap_4.o
 .debug_abbrev  0x00007336      0x15e build/default/production/_ext/404212886/list.o
 .debug_abbrev  0x00007494      0x405 build/default/production/_ext/404212886/FreeRTOS_tasks.o
 .debug_abbrev  0x00007899      0x336 build/default/production/_ext/404212886/queue.o
 .debug_abbrev  0x00007bcf       0x77 build/default/production/_ext/1360937237/main.o
 .debug_abbrev  0x00007c46      0x179 build/default/production/_ext/1360937237/app.o
 .debug_abbrev  0x00007dbf       0x44 c:/program files/microchip/xc32/v4.35/bin/bin/../../lib/gcc/pic32c/8.3.1/../../../../pic32c/lib/thumb/v6-m/nofp\libpic32c.a(data_init.o)
 .debug_abbrev  0x00007e03      0x117 c:/program files/microchip/xc32/v4.35/bin/bin/../../lib/gcc/pic32c/8.3.1/../../../../pic32c/lib/thumb/v6-m/nofp\libc-musl.a(__libc_start_main.o)
 .debug_abbrev  0x00007f1a       0xb8 c:/program files/microchip/xc32/v4.35/bin/bin/../../lib/gcc/pic32c/8.3.1/../../../../pic32c/lib/thumb/v6-m/nofp\libc-musl.a(libc.o)
 .debug_abbrev  0x00007fd2       0x8b c:/program files/microchip/xc32/v4.35/bin/bin/../../lib/gcc/pic32c/8.3.1/../../../../pic32c/lib/thumb/v6-m/nofp\libc-musl.a(rand.o)
 .debug_abbrev  0x0000805d       0x9c c:/program files/microchip/xc32/v4.35/bin/bin/../../lib/gcc/pic32c/8.3.1/../../../../pic32c/lib/thumb/v6-m/nofp\libc-musl.a(memcmp.o)
 .debug_abbrev  0x000080f9       0x9c c:/program files/microchip/xc32/v4.35/bin/bin/../../lib/gcc/pic32c/8.3.1/../../../../pic32c/lib/thumb/v6-m/nofp\libc-musl.a(memcpy.o)
 .debug_abbrev  0x00008195       0x97 c:/program files/microchip/xc32/v4.35/bin/bin/../../lib/gcc/pic32c/8.3.1/../../../../pic32c/lib/thumb/v6-m/nofp\libc-musl.a(memset.o)
 .debug_abbrev  0x0000822c       0x57 c:/program files/microchip/xc32/v4.35/bin/bin/../../lib/gcc/pic32c/8.3.1/../../../../pic32c/lib/thumb/v6-m/nofp\libc-musl.a(__environ.o)
 .debug_abbrev  0x00008283       0x14 c:/program files/microchip/xc32/v4.35/bin/bin/../../lib/gcc/pic32c/8.3.1/thumb/v6-m/nofp\libgcc.a(_udivsi3.o)
 .debug_abbrev  0x00008297       0x14 c:/program files/microchip/xc32/v4.35/bin/bin/../../lib/gcc/pic32c/8.3.1/thumb/v6-m/nofp\libgcc.a(_divsi3.o)
 .debug_abbrev  0x000082ab       0x14 c:/program files/microchip/xc32/v4.35/bin/bin/../../lib/gcc/pic32c/8.3.1/thumb/v6-m/nofp\libgcc.a(_dvmd_tls.o)
 .debug_abbrev  0x000082bf       0x14 c:/program files/microchip/xc32/v4.35/bin/bin/../../lib/gcc/pic32c/8.3.1/thumb/v6-m/nofp\libgcc.a(_aeabi_uldivmod.o)
 .debug_abbrev  0x000082d3       0xef c:/program files/microchip/xc32/v4.35/bin/bin/../../lib/gcc/pic32c/8.3.1/thumb/v6-m/nofp\libgcc.a(_muldi3.o)
 .debug_abbrev  0x000083c2       0x8e c:/program files/microchip/xc32/v4.35/bin/bin/../../lib/gcc/pic32c/8.3.1/thumb/v6-m/nofp\libgcc.a(_udivmoddi4.o)
 .debug_abbrev  0x00008450       0x14 c:/program files/microchip/xc32/v4.35/bin/bin/../../lib/gcc/pic32c/8.3.1/thumb/v6-m/nofp\libgcc.a(_lshrdi3.o)
 .debug_abbrev  0x00008464       0x14 c:/program files/microchip/xc32/v4.35/bin/bin/../../lib/gcc/pic32c/8.3.1/thumb/v6-m/nofp\libgcc.a(_ashldi3.o)
 .debug_abbrev  0x00008478       0x14 c:/program files/microchip/xc32/v4.35/bin/bin/../../lib/gcc/pic32c/8.3.1/thumb/v6-m/nofp\libgcc.a(_clzdi2.o)
 .debug_abbrev  0x0000848c       0x14 c:/program files/microchip/xc32/v4.35/bin/bin/../../lib/gcc/pic32c/8.3.1/thumb/v6-m/nofp\libgcc.a(_clzsi2.o)
 .debug_abbrev  0x000084a0       0x2e c:/program files/microchip/xc32/v4.35/bin/bin/../../lib/gcc/pic32c/8.3.1/../../../../pic32c/lib/thumb/v6-m/nofp\libpic32c.a(pic32_data_init_clear.o)
 .debug_abbrev  0x000084ce       0x2e c:/program files/microchip/xc32/v4.35/bin/bin/../../lib/gcc/pic32c/8.3.1/../../../../pic32c/lib/thumb/v6-m/nofp\libpic32c.a(pic32_data_init_copy.o)

.debug_loc      0x00000000    0x15f39
 .debug_loc     0x00000000      0x7d2 build/default/production/_ext/745501718/pal.o
 .debug_loc     0x000007d2       0xdb build/default/production/_ext/559172130/phy_irq_handler.o
 .debug_loc     0x000008ad      0x4ad build/default/production/_ext/559172130/phy_trx_reg_access.o
 .debug_loc     0x00000d5a      0x2fa build/default/production/_ext/559172130/phy_tx.o
 .debug_loc     0x00001054       0xc9 build/default/production/_ext/559172130/phy_pwr_mgmt.o
 .debug_loc     0x0000111d      0x3b9 build/default/production/_ext/559172130/phy.o
 .debug_loc     0x000014d6      0x3b5 build/default/production/_ext/559172130/tfa.o
 .debug_loc     0x0000188b      0xa58 build/default/production/_ext/559172130/phy_pib.o
 .debug_loc     0x000022e3      0xeb6 build/default/production/_ext/559172130/phy_helper.o
 .debug_loc     0x00003199      0x29a build/default/production/_ext/559172130/phy_rx.o
 .debug_loc     0x00003433       0x9c build/default/production/_ext/559172130/phy_rx_enable.o
 .debug_loc     0x000034cf       0xc4 build/default/production/_ext/559172130/phy_ed.o
 .debug_loc     0x00003593      0x2db build/default/production/_ext/559172130/phy_init.o
 .debug_loc     0x0000386e      0x13e build/default/production/_ext/957911548/phy_task.o
 .debug_loc     0x000039ac      0x1b5 build/default/production/_ext/1374435801/bmm.o
 .debug_loc     0x00003b61      0x541 build/default/production/_ext/874725666/qmm.o
 .debug_loc     0x000040a2      0xbba build/default/production/_ext/1181623987/miwi_app.o
 .debug_loc     0x00004c5c       0x71 build/default/production/_ext/1181623987/miwi_init.o
 .debug_loc     0x00004ccd      0x183 build/default/production/_ext/1181623987/mimac_task.o
 .debug_loc     0x00004e50     0x1a13 build/default/production/_ext/1181623987/miwi_mesh_frame.o
 .debug_loc     0x00006863     0x1382 build/default/production/_ext/1181623987/miwi_mesh.o
 .debug_loc     0x00007be5      0x4bb build/default/production/_ext/1181623987/commands.o
 .debug_loc     0x000080a0      0x616 build/default/production/_ext/1181623987/miwi_mesh_commissioning.o
 .debug_loc     0x000086b6     0x1130 build/default/production/_ext/1181623987/mimac.o
 .debug_loc     0x000097e6      0xe5e build/default/production/_ext/1181623987/miwi_mesh_routing.o
 .debug_loc     0x0000a644     0x25ef build/default/production/_ext/1181623987/miwi_mesh_join.o
 .debug_loc     0x0000cc33      0x70a build/default/production/_ext/1529399856/osal_freertos.o
 .debug_loc     0x0000d33d      0x4dc build/default/production/_ext/1529399856/osal_freertos_extend.o
 .debug_loc     0x0000d819       0x55 build/default/production/_ext/1984496892/plib_clock.o
 .debug_loc     0x0000d86e      0x110 build/default/production/_ext/60167341/plib_eic.o
 .debug_loc     0x0000d97e       0xf4 build/default/production/_ext/1865468468/plib_nvic.o
 .debug_loc     0x0000da72      0x665 build/default/production/_ext/1593096446/plib_nvmctrl.o
 .debug_loc     0x0000e0d7       0x63 build/default/production/_ext/829342769/plib_pm.o
 .debug_loc     0x0000e13a      0x246 build/default/production/_ext/1865521619/plib_port.o
 .debug_loc     0x0000e380      0x68a build/default/production/_ext/17022449/plib_sercom4_spi_master.o
 .debug_loc     0x0000ea0a       0x74 build/default/production/_ext/829342655/plib_tc0.o
 .debug_loc     0x0000ea7e      0x17d build/default/production/_ext/1881668453/sys_int.o
 .debug_loc     0x0000ebfb     0x2371 build/default/production/_ext/101884895/sys_time.o
 .debug_loc     0x00010f6c      0x140 build/default/production/_ext/1171490990/tasks.o
 .debug_loc     0x000110ac       0x76 build/default/production/_ext/1171490990/freertos_hooks.o
 .debug_loc     0x00011122       0x45 build/default/production/_ext/1171490990/initialization.o
 .debug_loc     0x00011167       0x20 build/default/production/_ext/1171490990/startup_xc32.o
 .debug_loc     0x00011187      0x14d build/default/production/_ext/1624415188/port.o
 .debug_loc     0x000112d4      0x588 build/default/production/_ext/1665200909/heap_4.o
 .debug_loc     0x0001185c       0xa6 build/default/production/_ext/404212886/list.o
 .debug_loc     0x00011902     0x1fef build/default/production/_ext/404212886/FreeRTOS_tasks.o
 .debug_loc     0x000138f1     0x1d29 build/default/production/_ext/404212886/queue.o
 .debug_loc     0x0001561a       0x20 build/default/production/_ext/1360937237/main.o
 .debug_loc     0x0001563a       0x9f build/default/production/_ext/1360937237/app.o
 .debug_loc     0x000156d9       0x14 c:/program files/microchip/xc32/v4.35/bin/bin/../../lib/gcc/pic32c/8.3.1/../../../../pic32c/lib/thumb/v6-m/nofp\libpic32c.a(data_init.o)
 .debug_loc     0x000156ed       0x5e c:/program files/microchip/xc32/v4.35/bin/bin/../../lib/gcc/pic32c/8.3.1/../../../../pic32c/lib/thumb/v6-m/nofp\libc-musl.a(__libc_start_main.o)
 .debug_loc     0x0001574b       0x24 c:/program files/microchip/xc32/v4.35/bin/bin/../../lib/gcc/pic32c/8.3.1/../../../../pic32c/lib/thumb/v6-m/nofp\libc-musl.a(rand.o)
 .debug_loc     0x0001576f      0x15e c:/program files/microchip/xc32/v4.35/bin/bin/../../lib/gcc/pic32c/8.3.1/../../../../pic32c/lib/thumb/v6-m/nofp\libc-musl.a(memcmp.o)
 .debug_loc     0x000158cd      0x12d c:/program files/microchip/xc32/v4.35/bin/bin/../../lib/gcc/pic32c/8.3.1/../../../../pic32c/lib/thumb/v6-m/nofp\libc-musl.a(memcpy.o)
 .debug_loc     0x000159fa       0xcd c:/program files/microchip/xc32/v4.35/bin/bin/../../lib/gcc/pic32c/8.3.1/../../../../pic32c/lib/thumb/v6-m/nofp\libc-musl.a(memset.o)
 .debug_loc     0x00015ac7      0x177 c:/program files/microchip/xc32/v4.35/bin/bin/../../lib/gcc/pic32c/8.3.1/thumb/v6-m/nofp\libgcc.a(_muldi3.o)
 .debug_loc     0x00015c3e      0x2e7 c:/program files/microchip/xc32/v4.35/bin/bin/../../lib/gcc/pic32c/8.3.1/thumb/v6-m/nofp\libgcc.a(_udivmoddi4.o)
 .debug_loc     0x00015f25       0x14 c:/program files/microchip/xc32/v4.35/bin/bin/../../lib/gcc/pic32c/8.3.1/../../../../pic32c/lib/thumb/v6-m/nofp\libpic32c.a(pic32_data_init_copy.o)

.debug_aranges  0x00000000     0x1620
 .debug_aranges
                0x00000000       0x70 build/default/production/_ext/745501718/pal.o
 .debug_aranges
                0x00000070       0x30 build/default/production/_ext/559172130/phy_irq_handler.o
 .debug_aranges
                0x000000a0       0x58 build/default/production/_ext/559172130/phy_trx_reg_access.o
 .debug_aranges
                0x000000f8       0x48 build/default/production/_ext/559172130/phy_tx.o
 .debug_aranges
                0x00000140       0x30 build/default/production/_ext/559172130/phy_pwr_mgmt.o
 .debug_aranges
                0x00000170       0x68 build/default/production/_ext/559172130/phy.o
 .debug_aranges
                0x000001d8       0x58 build/default/production/_ext/559172130/tfa.o
 .debug_aranges
                0x00000230       0x58 build/default/production/_ext/559172130/phy_pib.o
 .debug_aranges
                0x00000288       0x80 build/default/production/_ext/559172130/phy_helper.o
 .debug_aranges
                0x00000308       0x28 build/default/production/_ext/559172130/phy_rx.o
 .debug_aranges
                0x00000330       0x20 build/default/production/_ext/559172130/phy_rx_enable.o
 .debug_aranges
                0x00000350       0x30 build/default/production/_ext/559172130/phy_ed.o
 .debug_aranges
                0x00000380       0x40 build/default/production/_ext/559172130/phy_init.o
 .debug_aranges
                0x000003c0       0x38 build/default/production/_ext/957911548/phy_task.o
 .debug_aranges
                0x000003f8       0x38 build/default/production/_ext/1374435801/bmm.o
 .debug_aranges
                0x00000430       0x40 build/default/production/_ext/874725666/qmm.o
 .debug_aranges
                0x00000470       0xc0 build/default/production/_ext/1181623987/miwi_app.o
 .debug_aranges
                0x00000530       0x30 build/default/production/_ext/1181623987/miwi_init.o
 .debug_aranges
                0x00000560       0x18 build/default/production/_ext/1181623987/miwi_mesh_app.o
 .debug_aranges
                0x00000578       0x30 build/default/production/_ext/1181623987/mimac_task.o
 .debug_aranges
                0x000005a8       0xa8 build/default/production/_ext/1181623987/miwi_mesh_frame.o
 .debug_aranges
                0x00000650       0x98 build/default/production/_ext/1181623987/miwi_mesh.o
 .debug_aranges
                0x000006e8       0x50 build/default/production/_ext/1181623987/commands.o
 .debug_aranges
                0x00000738       0x28 build/default/production/_ext/1181623987/miwi_mesh_commissioning.o
 .debug_aranges
                0x00000760       0x88 build/default/production/_ext/1181623987/mimac.o
 .debug_aranges
                0x000007e8       0x88 build/default/production/_ext/1181623987/miwi_mesh_routing.o
 .debug_aranges
                0x00000870      0x100 build/default/production/_ext/1181623987/miwi_mesh_join.o
 .debug_aranges
                0x00000970       0x90 build/default/production/_ext/1529399856/osal_freertos.o
 .debug_aranges
                0x00000a00       0x58 build/default/production/_ext/1529399856/osal_freertos_extend.o
 .debug_aranges
                0x00000a58       0x20 build/default/production/_ext/1984496892/plib_clock.o
 .debug_aranges
                0x00000a78       0x40 build/default/production/_ext/60167341/plib_eic.o
 .debug_aranges
                0x00000ab8       0x20 build/default/production/_ext/1986646378/plib_evsys.o
 .debug_aranges
                0x00000ad8       0x38 build/default/production/_ext/1865468468/plib_nvic.o
 .debug_aranges
                0x00000b10       0xa0 build/default/production/_ext/1593096446/plib_nvmctrl.o
 .debug_aranges
                0x00000bb0       0x58 build/default/production/_ext/829342769/plib_pm.o
 .debug_aranges
                0x00000c08       0x70 build/default/production/_ext/1865521619/plib_port.o
 .debug_aranges
                0x00000c78       0x60 build/default/production/_ext/17022449/plib_sercom4_spi_master.o
 .debug_aranges
                0x00000cd8       0x78 build/default/production/_ext/829342655/plib_tc0.o
 .debug_aranges
                0x00000d50       0x40 build/default/production/_ext/1881668453/sys_int.o
 .debug_aranges
                0x00000d90      0x128 build/default/production/_ext/101884895/sys_time.o
 .debug_aranges
                0x00000eb8       0x40 build/default/production/_ext/1171490990/tasks.o
 .debug_aranges
                0x00000ef8       0x20 build/default/production/_ext/1171490990/interrupts.o
 .debug_aranges
                0x00000f18       0x40 build/default/production/_ext/1171490990/freertos_hooks.o
 .debug_aranges
                0x00000f58       0x20 build/default/production/_ext/1171490990/initialization.o
 .debug_aranges
                0x00000f78       0x28 build/default/production/_ext/1171490990/startup_xc32.o
 .debug_aranges
                0x00000fa0       0x28 build/default/production/_ext/1171490990/exceptions.o
 .debug_aranges
                0x00000fc8       0x88 build/default/production/_ext/1624415188/port.o
 .debug_aranges
                0x00001050       0x50 build/default/production/_ext/1665200909/heap_4.o
 .debug_aranges
                0x000010a0       0x40 build/default/production/_ext/404212886/list.o
 .debug_aranges
                0x000010e0      0x178 build/default/production/_ext/404212886/FreeRTOS_tasks.o
 .debug_aranges
                0x00001258       0xf8 build/default/production/_ext/404212886/queue.o
 .debug_aranges
                0x00001350       0x20 build/default/production/_ext/1360937237/main.o
 .debug_aranges
                0x00001370       0x28 build/default/production/_ext/1360937237/app.o
 .debug_aranges
                0x00001398       0x28 c:/program files/microchip/xc32/v4.35/bin/bin/../../lib/gcc/pic32c/8.3.1/../../../../pic32c/lib/thumb/v6-m/nofp\libpic32c.a(data_init.o)
 .debug_aranges
                0x000013c0       0x28 c:/program files/microchip/xc32/v4.35/bin/bin/../../lib/gcc/pic32c/8.3.1/../../../../pic32c/lib/thumb/v6-m/nofp\libc-musl.a(__libc_start_main.o)
 .debug_aranges
                0x000013e8       0x18 c:/program files/microchip/xc32/v4.35/bin/bin/../../lib/gcc/pic32c/8.3.1/../../../../pic32c/lib/thumb/v6-m/nofp\libc-musl.a(libc.o)
 .debug_aranges
                0x00001400       0x28 c:/program files/microchip/xc32/v4.35/bin/bin/../../lib/gcc/pic32c/8.3.1/../../../../pic32c/lib/thumb/v6-m/nofp\libc-musl.a(rand.o)
 .debug_aranges
                0x00001428       0x20 c:/program files/microchip/xc32/v4.35/bin/bin/../../lib/gcc/pic32c/8.3.1/../../../../pic32c/lib/thumb/v6-m/nofp\libc-musl.a(memcmp.o)
 .debug_aranges
                0x00001448       0x20 c:/program files/microchip/xc32/v4.35/bin/bin/../../lib/gcc/pic32c/8.3.1/../../../../pic32c/lib/thumb/v6-m/nofp\libc-musl.a(memcpy.o)
 .debug_aranges
                0x00001468       0x20 c:/program files/microchip/xc32/v4.35/bin/bin/../../lib/gcc/pic32c/8.3.1/../../../../pic32c/lib/thumb/v6-m/nofp\libc-musl.a(memset.o)
 .debug_aranges
                0x00001488       0x18 c:/program files/microchip/xc32/v4.35/bin/bin/../../lib/gcc/pic32c/8.3.1/../../../../pic32c/lib/thumb/v6-m/nofp\libc-musl.a(__environ.o)
 .debug_aranges
                0x000014a0       0x20 c:/program files/microchip/xc32/v4.35/bin/bin/../../lib/gcc/pic32c/8.3.1/thumb/v6-m/nofp\libgcc.a(_udivsi3.o)
 .debug_aranges
                0x000014c0       0x20 c:/program files/microchip/xc32/v4.35/bin/bin/../../lib/gcc/pic32c/8.3.1/thumb/v6-m/nofp\libgcc.a(_divsi3.o)
 .debug_aranges
                0x000014e0       0x20 c:/program files/microchip/xc32/v4.35/bin/bin/../../lib/gcc/pic32c/8.3.1/thumb/v6-m/nofp\libgcc.a(_dvmd_tls.o)
 .debug_aranges
                0x00001500       0x20 c:/program files/microchip/xc32/v4.35/bin/bin/../../lib/gcc/pic32c/8.3.1/thumb/v6-m/nofp\libgcc.a(_aeabi_uldivmod.o)
 .debug_aranges
                0x00001520       0x20 c:/program files/microchip/xc32/v4.35/bin/bin/../../lib/gcc/pic32c/8.3.1/thumb/v6-m/nofp\libgcc.a(_muldi3.o)
 .debug_aranges
                0x00001540       0x20 c:/program files/microchip/xc32/v4.35/bin/bin/../../lib/gcc/pic32c/8.3.1/thumb/v6-m/nofp\libgcc.a(_udivmoddi4.o)
 .debug_aranges
                0x00001560       0x20 c:/program files/microchip/xc32/v4.35/bin/bin/../../lib/gcc/pic32c/8.3.1/thumb/v6-m/nofp\libgcc.a(_lshrdi3.o)
 .debug_aranges
                0x00001580       0x20 c:/program files/microchip/xc32/v4.35/bin/bin/../../lib/gcc/pic32c/8.3.1/thumb/v6-m/nofp\libgcc.a(_ashldi3.o)
 .debug_aranges
                0x000015a0       0x20 c:/program files/microchip/xc32/v4.35/bin/bin/../../lib/gcc/pic32c/8.3.1/thumb/v6-m/nofp\libgcc.a(_clzdi2.o)
 .debug_aranges
                0x000015c0       0x20 c:/program files/microchip/xc32/v4.35/bin/bin/../../lib/gcc/pic32c/8.3.1/thumb/v6-m/nofp\libgcc.a(_clzsi2.o)
 .debug_aranges
                0x000015e0       0x20 c:/program files/microchip/xc32/v4.35/bin/bin/../../lib/gcc/pic32c/8.3.1/../../../../pic32c/lib/thumb/v6-m/nofp\libpic32c.a(pic32_data_init_clear.o)
 .debug_aranges
                0x00001600       0x20 c:/program files/microchip/xc32/v4.35/bin/bin/../../lib/gcc/pic32c/8.3.1/../../../../pic32c/lib/thumb/v6-m/nofp\libpic32c.a(pic32_data_init_copy.o)

.debug_ranges   0x00000000     0x1888
 .debug_ranges  0x00000000       0x60 build/default/production/_ext/745501718/pal.o
 .debug_ranges  0x00000060       0x20 build/default/production/_ext/559172130/phy_irq_handler.o
 .debug_ranges  0x00000080       0x48 build/default/production/_ext/559172130/phy_trx_reg_access.o
 .debug_ranges  0x000000c8       0x38 build/default/production/_ext/559172130/phy_tx.o
 .debug_ranges  0x00000100       0x20 build/default/production/_ext/559172130/phy_pwr_mgmt.o
 .debug_ranges  0x00000120       0x70 build/default/production/_ext/559172130/phy.o
 .debug_ranges  0x00000190       0x60 build/default/production/_ext/559172130/tfa.o
 .debug_ranges  0x000001f0       0xc0 build/default/production/_ext/559172130/phy_pib.o
 .debug_ranges  0x000002b0       0x70 build/default/production/_ext/559172130/phy_helper.o
 .debug_ranges  0x00000320       0x30 build/default/production/_ext/559172130/phy_rx.o
 .debug_ranges  0x00000350       0x10 build/default/production/_ext/559172130/phy_rx_enable.o
 .debug_ranges  0x00000360       0x20 build/default/production/_ext/559172130/phy_ed.o
 .debug_ranges  0x00000380       0x90 build/default/production/_ext/559172130/phy_init.o
 .debug_ranges  0x00000410       0x28 build/default/production/_ext/957911548/phy_task.o
 .debug_ranges  0x00000438       0x28 build/default/production/_ext/1374435801/bmm.o
 .debug_ranges  0x00000460       0x68 build/default/production/_ext/874725666/qmm.o
 .debug_ranges  0x000004c8       0xf8 build/default/production/_ext/1181623987/miwi_app.o
 .debug_ranges  0x000005c0       0x20 build/default/production/_ext/1181623987/miwi_init.o
 .debug_ranges  0x000005e0       0x20 build/default/production/_ext/1181623987/mimac_task.o
 .debug_ranges  0x00000600      0x138 build/default/production/_ext/1181623987/miwi_mesh_frame.o
 .debug_ranges  0x00000738      0x138 build/default/production/_ext/1181623987/miwi_mesh.o
 .debug_ranges  0x00000870       0x58 build/default/production/_ext/1181623987/commands.o
 .debug_ranges  0x000008c8       0x78 build/default/production/_ext/1181623987/miwi_mesh_commissioning.o
 .debug_ranges  0x00000940       0xb0 build/default/production/_ext/1181623987/mimac.o
 .debug_ranges  0x000009f0       0xf0 build/default/production/_ext/1181623987/miwi_mesh_routing.o
 .debug_ranges  0x00000ae0      0x1b0 build/default/production/_ext/1181623987/miwi_mesh_join.o
 .debug_ranges  0x00000c90       0x80 build/default/production/_ext/1529399856/osal_freertos.o
 .debug_ranges  0x00000d10       0x48 build/default/production/_ext/1529399856/osal_freertos_extend.o
 .debug_ranges  0x00000d58       0x10 build/default/production/_ext/1984496892/plib_clock.o
 .debug_ranges  0x00000d68       0x30 build/default/production/_ext/60167341/plib_eic.o
 .debug_ranges  0x00000d98       0x10 build/default/production/_ext/1986646378/plib_evsys.o
 .debug_ranges  0x00000da8       0x28 build/default/production/_ext/1865468468/plib_nvic.o
 .debug_ranges  0x00000dd0       0x90 build/default/production/_ext/1593096446/plib_nvmctrl.o
 .debug_ranges  0x00000e60       0x48 build/default/production/_ext/829342769/plib_pm.o
 .debug_ranges  0x00000ea8       0x60 build/default/production/_ext/1865521619/plib_port.o
 .debug_ranges  0x00000f08       0x68 build/default/production/_ext/17022449/plib_sercom4_spi_master.o
 .debug_ranges  0x00000f70       0x68 build/default/production/_ext/829342655/plib_tc0.o
 .debug_ranges  0x00000fd8       0x48 build/default/production/_ext/1881668453/sys_int.o
 .debug_ranges  0x00001020      0x180 build/default/production/_ext/101884895/sys_time.o
 .debug_ranges  0x000011a0       0x30 build/default/production/_ext/1171490990/tasks.o
 .debug_ranges  0x000011d0       0x10 build/default/production/_ext/1171490990/interrupts.o
 .debug_ranges  0x000011e0       0x30 build/default/production/_ext/1171490990/freertos_hooks.o
 .debug_ranges  0x00001210       0x10 build/default/production/_ext/1171490990/initialization.o
 .debug_ranges  0x00001220       0x18 build/default/production/_ext/1171490990/startup_xc32.o
 .debug_ranges  0x00001238       0x18 build/default/production/_ext/1171490990/exceptions.o
 .debug_ranges  0x00001250       0x78 build/default/production/_ext/1624415188/port.o
 .debug_ranges  0x000012c8       0x40 build/default/production/_ext/1665200909/heap_4.o
 .debug_ranges  0x00001308       0x30 build/default/production/_ext/404212886/list.o
 .debug_ranges  0x00001338      0x270 build/default/production/_ext/404212886/FreeRTOS_tasks.o
 .debug_ranges  0x000015a8      0x1e0 build/default/production/_ext/404212886/queue.o
 .debug_ranges  0x00001788       0x10 build/default/production/_ext/1360937237/main.o
 .debug_ranges  0x00001798       0x18 build/default/production/_ext/1360937237/app.o
 .debug_ranges  0x000017b0       0x18 c:/program files/microchip/xc32/v4.35/bin/bin/../../lib/gcc/pic32c/8.3.1/../../../../pic32c/lib/thumb/v6-m/nofp\libpic32c.a(data_init.o)
 .debug_ranges  0x000017c8       0x30 c:/program files/microchip/xc32/v4.35/bin/bin/../../lib/gcc/pic32c/8.3.1/../../../../pic32c/lib/thumb/v6-m/nofp\libc-musl.a(__libc_start_main.o)
 .debug_ranges  0x000017f8       0x18 c:/program files/microchip/xc32/v4.35/bin/bin/../../lib/gcc/pic32c/8.3.1/../../../../pic32c/lib/thumb/v6-m/nofp\libc-musl.a(rand.o)
 .debug_ranges  0x00001810       0x10 c:/program files/microchip/xc32/v4.35/bin/bin/../../lib/gcc/pic32c/8.3.1/../../../../pic32c/lib/thumb/v6-m/nofp\libc-musl.a(memcmp.o)
 .debug_ranges  0x00001820       0x10 c:/program files/microchip/xc32/v4.35/bin/bin/../../lib/gcc/pic32c/8.3.1/../../../../pic32c/lib/thumb/v6-m/nofp\libc-musl.a(memcpy.o)
 .debug_ranges  0x00001830       0x10 c:/program files/microchip/xc32/v4.35/bin/bin/../../lib/gcc/pic32c/8.3.1/../../../../pic32c/lib/thumb/v6-m/nofp\libc-musl.a(memset.o)
 .debug_ranges  0x00001840       0x28 c:/program files/microchip/xc32/v4.35/bin/bin/../../lib/gcc/pic32c/8.3.1/thumb/v6-m/nofp\libgcc.a(_muldi3.o)
 .debug_ranges  0x00001868       0x10 c:/program files/microchip/xc32/v4.35/bin/bin/../../lib/gcc/pic32c/8.3.1/../../../../pic32c/lib/thumb/v6-m/nofp\libpic32c.a(pic32_data_init_clear.o)
 .debug_ranges  0x00001878       0x10 c:/program files/microchip/xc32/v4.35/bin/bin/../../lib/gcc/pic32c/8.3.1/../../../../pic32c/lib/thumb/v6-m/nofp\libpic32c.a(pic32_data_init_copy.o)

.debug_line     0x00000000    0x13bc5
 .debug_line    0x00000000      0x516 build/default/production/_ext/745501718/pal.o
 .debug_line    0x00000516      0x2cf build/default/production/_ext/559172130/phy_irq_handler.o
 .debug_line    0x000007e5      0x434 build/default/production/_ext/559172130/phy_trx_reg_access.o
 .debug_line    0x00000c19      0x534 build/default/production/_ext/559172130/phy_tx.o
 .debug_line    0x0000114d      0x26c build/default/production/_ext/559172130/phy_pwr_mgmt.o
 .debug_line    0x000013b9      0x6ca build/default/production/_ext/559172130/phy.o
 .debug_line    0x00001a83      0x4f7 build/default/production/_ext/559172130/tfa.o
 .debug_line    0x00001f7a      0xa4b build/default/production/_ext/559172130/phy_pib.o
 .debug_line    0x000029c5      0x7d0 build/default/production/_ext/559172130/phy_helper.o
 .debug_line    0x00003195      0x381 build/default/production/_ext/559172130/phy_rx.o
 .debug_line    0x00003516      0x23a build/default/production/_ext/559172130/phy_rx_enable.o
 .debug_line    0x00003750      0x2d2 build/default/production/_ext/559172130/phy_ed.o
 .debug_line    0x00003a22      0x718 build/default/production/_ext/559172130/phy_init.o
 .debug_line    0x0000413a      0x23a build/default/production/_ext/957911548/phy_task.o
 .debug_line    0x00004374      0x27f build/default/production/_ext/1374435801/bmm.o
 .debug_line    0x000045f3      0x3a1 build/default/production/_ext/874725666/qmm.o
 .debug_line    0x00004994      0xa97 build/default/production/_ext/1181623987/miwi_app.o
 .debug_line    0x0000542b      0x2a3 build/default/production/_ext/1181623987/miwi_init.o
 .debug_line    0x000056ce       0xdd build/default/production/_ext/1181623987/miwi_mesh_app.o
 .debug_line    0x000057ab      0x32f build/default/production/_ext/1181623987/mimac_task.o
 .debug_line    0x00005ada     0x126c build/default/production/_ext/1181623987/miwi_mesh_frame.o
 .debug_line    0x00006d46      0xdd2 build/default/production/_ext/1181623987/miwi_mesh.o
 .debug_line    0x00007b18      0x487 build/default/production/_ext/1181623987/commands.o
 .debug_line    0x00007f9f      0x2b6 build/default/production/_ext/1181623987/miwi_mesh_commissioning.o
 .debug_line    0x00008255      0xc5e build/default/production/_ext/1181623987/mimac.o
 .debug_line    0x00008eb3      0xa37 build/default/production/_ext/1181623987/miwi_mesh_routing.o
 .debug_line    0x000098ea     0x17e9 build/default/production/_ext/1181623987/miwi_mesh_join.o
 .debug_line    0x0000b0d3      0x43c build/default/production/_ext/1529399856/osal_freertos.o
 .debug_line    0x0000b50f      0x2c9 build/default/production/_ext/1529399856/osal_freertos_extend.o
 .debug_line    0x0000b7d8      0x235 build/default/production/_ext/1984496892/plib_clock.o
 .debug_line    0x0000ba0d      0x2ae build/default/production/_ext/60167341/plib_eic.o
 .debug_line    0x0000bcbb       0x66 build/default/production/_ext/1986646378/plib_evsys.o
 .debug_line    0x0000bd21      0x326 build/default/production/_ext/1865468468/plib_nvic.o
 .debug_line    0x0000c047      0x44e build/default/production/_ext/1593096446/plib_nvmctrl.o
 .debug_line    0x0000c495      0x291 build/default/production/_ext/829342769/plib_pm.o
 .debug_line    0x0000c726      0x342 build/default/production/_ext/1865521619/plib_port.o
 .debug_line    0x0000ca68      0x77a build/default/production/_ext/17022449/plib_sercom4_spi_master.o
 .debug_line    0x0000d1e2      0x375 build/default/production/_ext/829342655/plib_tc0.o
 .debug_line    0x0000d557      0x2c5 build/default/production/_ext/1881668453/sys_int.o
 .debug_line    0x0000d81c     0x1200 build/default/production/_ext/101884895/sys_time.o
 .debug_line    0x0000ea1c      0x21a build/default/production/_ext/1171490990/tasks.o
 .debug_line    0x0000ec36       0xba build/default/production/_ext/1171490990/interrupts.o
 .debug_line    0x0000ecf0      0x15d build/default/production/_ext/1171490990/freertos_hooks.o
 .debug_line    0x0000ee4d      0x5e6 build/default/production/_ext/1171490990/initialization.o
 .debug_line    0x0000f433      0x157 build/default/production/_ext/1171490990/startup_xc32.o
 .debug_line    0x0000f58a       0x6e build/default/production/_ext/1171490990/exceptions.o
 .debug_line    0x0000f5f8      0x328 build/default/production/_ext/1624415188/port.o
 .debug_line    0x0000f920      0x594 build/default/production/_ext/1665200909/heap_4.o
 .debug_line    0x0000feb4      0x2c5 build/default/production/_ext/404212886/list.o
 .debug_line    0x00010179     0x168d build/default/production/_ext/404212886/FreeRTOS_tasks.o
 .debug_line    0x00011806     0x1074 build/default/production/_ext/404212886/queue.o
 .debug_line    0x0001287a       0x6d build/default/production/_ext/1360937237/main.o
 .debug_line    0x000128e7      0x1b2 build/default/production/_ext/1360937237/app.o
 .debug_line    0x00012a99       0xe8 c:/program files/microchip/xc32/v4.35/bin/bin/../../lib/gcc/pic32c/8.3.1/../../../../pic32c/lib/thumb/v6-m/nofp\libpic32c.a(data_init.o)
 .debug_line    0x00012b81      0x1c2 c:/program files/microchip/xc32/v4.35/bin/bin/../../lib/gcc/pic32c/8.3.1/../../../../pic32c/lib/thumb/v6-m/nofp\libc-musl.a(__libc_start_main.o)
 .debug_line    0x00012d43       0xb8 c:/program files/microchip/xc32/v4.35/bin/bin/../../lib/gcc/pic32c/8.3.1/../../../../pic32c/lib/thumb/v6-m/nofp\libc-musl.a(libc.o)
 .debug_line    0x00012dfb       0xfd c:/program files/microchip/xc32/v4.35/bin/bin/../../lib/gcc/pic32c/8.3.1/../../../../pic32c/lib/thumb/v6-m/nofp\libc-musl.a(rand.o)
 .debug_line    0x00012ef8       0xe0 c:/program files/microchip/xc32/v4.35/bin/bin/../../lib/gcc/pic32c/8.3.1/../../../../pic32c/lib/thumb/v6-m/nofp\libc-musl.a(memcmp.o)
 .debug_line    0x00012fd8       0xf1 c:/program files/microchip/xc32/v4.35/bin/bin/../../lib/gcc/pic32c/8.3.1/../../../../pic32c/lib/thumb/v6-m/nofp\libc-musl.a(memcpy.o)
 .debug_line    0x000130c9       0xe6 c:/program files/microchip/xc32/v4.35/bin/bin/../../lib/gcc/pic32c/8.3.1/../../../../pic32c/lib/thumb/v6-m/nofp\libc-musl.a(memset.o)
 .debug_line    0x000131af      0x101 c:/program files/microchip/xc32/v4.35/bin/bin/../../lib/gcc/pic32c/8.3.1/../../../../pic32c/lib/thumb/v6-m/nofp\libc-musl.a(__environ.o)
 .debug_line    0x000132b0       0xab c:/program files/microchip/xc32/v4.35/bin/bin/../../lib/gcc/pic32c/8.3.1/thumb/v6-m/nofp\libgcc.a(_udivsi3.o)
 .debug_line    0x0001335b       0xb9 c:/program files/microchip/xc32/v4.35/bin/bin/../../lib/gcc/pic32c/8.3.1/thumb/v6-m/nofp\libgcc.a(_divsi3.o)
 .debug_line    0x00013414       0x94 c:/program files/microchip/xc32/v4.35/bin/bin/../../lib/gcc/pic32c/8.3.1/thumb/v6-m/nofp\libgcc.a(_dvmd_tls.o)
 .debug_line    0x000134a8       0x9f c:/program files/microchip/xc32/v4.35/bin/bin/../../lib/gcc/pic32c/8.3.1/thumb/v6-m/nofp\libgcc.a(_aeabi_uldivmod.o)
 .debug_line    0x00013547       0xea c:/program files/microchip/xc32/v4.35/bin/bin/../../lib/gcc/pic32c/8.3.1/thumb/v6-m/nofp\libgcc.a(_muldi3.o)
 .debug_line    0x00013631      0x18b c:/program files/microchip/xc32/v4.35/bin/bin/../../lib/gcc/pic32c/8.3.1/thumb/v6-m/nofp\libgcc.a(_udivmoddi4.o)
 .debug_line    0x000137bc       0x9f c:/program files/microchip/xc32/v4.35/bin/bin/../../lib/gcc/pic32c/8.3.1/thumb/v6-m/nofp\libgcc.a(_lshrdi3.o)
 .debug_line    0x0001385b       0x9f c:/program files/microchip/xc32/v4.35/bin/bin/../../lib/gcc/pic32c/8.3.1/thumb/v6-m/nofp\libgcc.a(_ashldi3.o)
 .debug_line    0x000138fa       0x9e c:/program files/microchip/xc32/v4.35/bin/bin/../../lib/gcc/pic32c/8.3.1/thumb/v6-m/nofp\libgcc.a(_clzdi2.o)
 .debug_line    0x00013998       0xa8 c:/program files/microchip/xc32/v4.35/bin/bin/../../lib/gcc/pic32c/8.3.1/thumb/v6-m/nofp\libgcc.a(_clzsi2.o)
 .debug_line    0x00013a40       0xb6 c:/program files/microchip/xc32/v4.35/bin/bin/../../lib/gcc/pic32c/8.3.1/../../../../pic32c/lib/thumb/v6-m/nofp\libpic32c.a(pic32_data_init_clear.o)
 .debug_line    0x00013af6       0xcf c:/program files/microchip/xc32/v4.35/bin/bin/../../lib/gcc/pic32c/8.3.1/../../../../pic32c/lib/thumb/v6-m/nofp\libpic32c.a(pic32_data_init_copy.o)

.debug_str      0x00000000     0x2e69
 .debug_str     0x00000000       0xf6 build/default/production/_ext/745501718/pal.o
 .debug_str     0x000000f6       0x6a build/default/production/_ext/559172130/phy_irq_handler.o
 .debug_str     0x00000160       0x6b build/default/production/_ext/559172130/phy_trx_reg_access.o
 .debug_str     0x000001cb       0xb8 build/default/production/_ext/559172130/phy_tx.o
 .debug_str     0x00000283       0x26 build/default/production/_ext/559172130/phy_pwr_mgmt.o
 .debug_str     0x000002a9       0xd5 build/default/production/_ext/559172130/phy.o
 .debug_str     0x0000037e       0x94 build/default/production/_ext/559172130/tfa.o
 .debug_str     0x00000412       0x65 build/default/production/_ext/559172130/phy_pib.o
 .debug_str     0x00000477       0x72 build/default/production/_ext/559172130/phy_helper.o
 .debug_str     0x000004e9       0x8e build/default/production/_ext/559172130/phy_rx.o
 .debug_str     0x00000577       0x2e build/default/production/_ext/559172130/phy_rx_enable.o
 .debug_str     0x000005a5       0x83 build/default/production/_ext/559172130/phy_ed.o
 .debug_str     0x00000628      0x195 build/default/production/_ext/559172130/phy_init.o
 .debug_str     0x000007bd       0x5a build/default/production/_ext/957911548/phy_task.o
 .debug_str     0x00000817       0x31 build/default/production/_ext/1374435801/bmm.o
 .debug_str     0x00000848       0x20 build/default/production/_ext/874725666/qmm.o
 .debug_str     0x00000868      0x26b build/default/production/_ext/1181623987/miwi_app.o
 .debug_str     0x00000ad3       0x6d build/default/production/_ext/1181623987/miwi_init.o
 .debug_str     0x00000b40       0x3f build/default/production/_ext/1181623987/miwi_mesh_app.o
 .debug_str     0x00000b7f       0x97 build/default/production/_ext/1181623987/mimac_task.o
 .debug_str     0x00000c16      0x229 build/default/production/_ext/1181623987/miwi_mesh_frame.o
 .debug_str     0x00000e3f      0x33a build/default/production/_ext/1181623987/miwi_mesh.o
 .debug_str     0x00001179       0x9b build/default/production/_ext/1181623987/commands.o
 .debug_str     0x00001214        0x0 build/default/production/_ext/1181623987/miwi_mesh_commissioning.o
 .debug_str     0x00001214      0x16f build/default/production/_ext/1181623987/mimac.o
 .debug_str     0x00001383      0x1b6 build/default/production/_ext/1181623987/miwi_mesh_routing.o
 .debug_str     0x00001539      0x2e1 build/default/production/_ext/1181623987/miwi_mesh_join.o
 .debug_str     0x0000181a      0x13b build/default/production/_ext/1529399856/osal_freertos.o
 .debug_str     0x00001955       0xe0 build/default/production/_ext/1529399856/osal_freertos_extend.o
 .debug_str     0x00001a35       0x1e build/default/production/_ext/1984496892/plib_clock.o
 .debug_str     0x00001a53       0x11 build/default/production/_ext/60167341/plib_eic.o
 .debug_str     0x00001a64        0x0 build/default/production/_ext/1986646378/plib_evsys.o
 .debug_str     0x00001a64        0xa build/default/production/_ext/1865468468/plib_nvic.o
 .debug_str     0x00001a6e       0x16 build/default/production/_ext/1593096446/plib_nvmctrl.o
 .debug_str     0x00001a84        0x0 build/default/production/_ext/829342769/plib_pm.o
 .debug_str     0x00001a84        0xb build/default/production/_ext/1865521619/plib_port.o
 .debug_str     0x00001a8f      0x135 build/default/production/_ext/17022449/plib_sercom4_spi_master.o
 .debug_str     0x00001bc4       0xc3 build/default/production/_ext/829342655/plib_tc0.o
 .debug_str     0x00001c87       0x32 build/default/production/_ext/1881668453/sys_int.o
 .debug_str     0x00001cb9      0x16c build/default/production/_ext/101884895/sys_time.o
 .debug_str     0x00001e25       0x57 build/default/production/_ext/1171490990/tasks.o
 .debug_str     0x00001e7c        0x0 build/default/production/_ext/1171490990/interrupts.o
 .debug_str     0x00001e7c       0x25 build/default/production/_ext/1171490990/freertos_hooks.o
 .debug_str     0x00001ea1      0x11e build/default/production/_ext/1171490990/initialization.o
 .debug_str     0x00001fbf       0x2f build/default/production/_ext/1171490990/startup_xc32.o
 .debug_str     0x00001fee        0x0 build/default/production/_ext/1171490990/exceptions.o
 .debug_str     0x00001fee       0x26 build/default/production/_ext/1624415188/port.o
 .debug_str     0x00002014       0xb8 build/default/production/_ext/1665200909/heap_4.o
 .debug_str     0x000020cc       0x2b build/default/production/_ext/404212886/list.o
 .debug_str     0x000020f7      0x2a8 build/default/production/_ext/404212886/FreeRTOS_tasks.o
 .debug_str     0x0000239f      0x309 build/default/production/_ext/404212886/queue.o
 .debug_str     0x000026a8       0x19 build/default/production/_ext/1360937237/main.o
 .debug_str     0x000026c1       0x68 build/default/production/_ext/1360937237/app.o
 .debug_str     0x00002729        0x0 c:/program files/microchip/xc32/v4.35/bin/bin/../../lib/gcc/pic32c/8.3.1/../../../../pic32c/lib/thumb/v6-m/nofp\libpic32c.a(data_init.o)
 .debug_str     0x00002729        0x0 c:/program files/microchip/xc32/v4.35/bin/bin/../../lib/gcc/pic32c/8.3.1/../../../../pic32c/lib/thumb/v6-m/nofp\libc-musl.a(__libc_start_main.o)
 .debug_str     0x00002729        0x0 c:/program files/microchip/xc32/v4.35/bin/bin/../../lib/gcc/pic32c/8.3.1/../../../../pic32c/lib/thumb/v6-m/nofp\libc-musl.a(libc.o)
 .debug_str     0x00002729        0x0 c:/program files/microchip/xc32/v4.35/bin/bin/../../lib/gcc/pic32c/8.3.1/../../../../pic32c/lib/thumb/v6-m/nofp\libc-musl.a(rand.o)
 .debug_str     0x00002729        0x0 c:/program files/microchip/xc32/v4.35/bin/bin/../../lib/gcc/pic32c/8.3.1/../../../../pic32c/lib/thumb/v6-m/nofp\libc-musl.a(memcmp.o)
 .debug_str     0x00002729        0x0 c:/program files/microchip/xc32/v4.35/bin/bin/../../lib/gcc/pic32c/8.3.1/../../../../pic32c/lib/thumb/v6-m/nofp\libc-musl.a(memcpy.o)
 .debug_str     0x00002729        0x0 c:/program files/microchip/xc32/v4.35/bin/bin/../../lib/gcc/pic32c/8.3.1/../../../../pic32c/lib/thumb/v6-m/nofp\libc-musl.a(memset.o)
 .debug_str     0x00002729        0x0 c:/program files/microchip/xc32/v4.35/bin/bin/../../lib/gcc/pic32c/8.3.1/../../../../pic32c/lib/thumb/v6-m/nofp\libc-musl.a(__environ.o)
 .debug_str     0x00002729       0xe8 c:/program files/microchip/xc32/v4.35/bin/bin/../../lib/gcc/pic32c/8.3.1/thumb/v6-m/nofp\libgcc.a(_udivsi3.o)
 .debug_str     0x00002811       0xe8 c:/program files/microchip/xc32/v4.35/bin/bin/../../lib/gcc/pic32c/8.3.1/thumb/v6-m/nofp\libgcc.a(_divsi3.o)
 .debug_str     0x000028f9       0xe8 c:/program files/microchip/xc32/v4.35/bin/bin/../../lib/gcc/pic32c/8.3.1/thumb/v6-m/nofp\libgcc.a(_dvmd_tls.o)
 .debug_str     0x000029e1       0xe8 c:/program files/microchip/xc32/v4.35/bin/bin/../../lib/gcc/pic32c/8.3.1/thumb/v6-m/nofp\libgcc.a(_aeabi_uldivmod.o)
 .debug_str     0x00002ac9        0x0 c:/program files/microchip/xc32/v4.35/bin/bin/../../lib/gcc/pic32c/8.3.1/thumb/v6-m/nofp\libgcc.a(_muldi3.o)
 .debug_str     0x00002ac9        0x0 c:/program files/microchip/xc32/v4.35/bin/bin/../../lib/gcc/pic32c/8.3.1/thumb/v6-m/nofp\libgcc.a(_udivmoddi4.o)
 .debug_str     0x00002ac9       0xe8 c:/program files/microchip/xc32/v4.35/bin/bin/../../lib/gcc/pic32c/8.3.1/thumb/v6-m/nofp\libgcc.a(_lshrdi3.o)
 .debug_str     0x00002bb1       0xe8 c:/program files/microchip/xc32/v4.35/bin/bin/../../lib/gcc/pic32c/8.3.1/thumb/v6-m/nofp\libgcc.a(_ashldi3.o)
 .debug_str     0x00002c99       0xe8 c:/program files/microchip/xc32/v4.35/bin/bin/../../lib/gcc/pic32c/8.3.1/thumb/v6-m/nofp\libgcc.a(_clzdi2.o)
 .debug_str     0x00002d81       0xe8 c:/program files/microchip/xc32/v4.35/bin/bin/../../lib/gcc/pic32c/8.3.1/thumb/v6-m/nofp\libgcc.a(_clzsi2.o)
 .debug_str     0x00002e69        0x0 c:/program files/microchip/xc32/v4.35/bin/bin/../../lib/gcc/pic32c/8.3.1/../../../../pic32c/lib/thumb/v6-m/nofp\libpic32c.a(pic32_data_init_clear.o)
 .debug_str     0x00002e69        0x0 c:/program files/microchip/xc32/v4.35/bin/bin/../../lib/gcc/pic32c/8.3.1/../../../../pic32c/lib/thumb/v6-m/nofp\libpic32c.a(pic32_data_init_copy.o)

.debug_frame    0x00000000     0x31dc
 .debug_frame   0x00000000      0x12c build/default/production/_ext/745501718/pal.o
 .debug_frame   0x0000012c       0x58 build/default/production/_ext/559172130/phy_irq_handler.o
 .debug_frame   0x00000184       0xf4 build/default/production/_ext/559172130/phy_trx_reg_access.o
 .debug_frame   0x00000278       0xb0 build/default/production/_ext/559172130/phy_tx.o
 .debug_frame   0x00000328       0x58 build/default/production/_ext/559172130/phy_pwr_mgmt.o
 .debug_frame   0x00000380       0xf0 build/default/production/_ext/559172130/phy.o
 .debug_frame   0x00000470       0xd0 build/default/production/_ext/559172130/tfa.o
 .debug_frame   0x00000540       0xcc build/default/production/_ext/559172130/phy_pib.o
 .debug_frame   0x0000060c      0x150 build/default/production/_ext/559172130/phy_helper.o
 .debug_frame   0x0000075c       0x4c build/default/production/_ext/559172130/phy_rx.o
 .debug_frame   0x000007a8       0x28 build/default/production/_ext/559172130/phy_rx_enable.o
 .debug_frame   0x000007d0       0x5c build/default/production/_ext/559172130/phy_ed.o
 .debug_frame   0x0000082c       0xa0 build/default/production/_ext/559172130/phy_init.o
 .debug_frame   0x000008cc       0x70 build/default/production/_ext/957911548/phy_task.o
 .debug_frame   0x0000093c       0x70 build/default/production/_ext/1374435801/bmm.o
 .debug_frame   0x000009ac       0x84 build/default/production/_ext/874725666/qmm.o
 .debug_frame   0x00000a30      0x224 build/default/production/_ext/1181623987/miwi_app.o
 .debug_frame   0x00000c54       0x50 build/default/production/_ext/1181623987/miwi_init.o
 .debug_frame   0x00000ca4       0x60 build/default/production/_ext/1181623987/mimac_task.o
 .debug_frame   0x00000d04      0x224 build/default/production/_ext/1181623987/miwi_mesh_frame.o
 .debug_frame   0x00000f28      0x1e0 build/default/production/_ext/1181623987/miwi_mesh.o
 .debug_frame   0x00001108       0xac build/default/production/_ext/1181623987/commands.o
 .debug_frame   0x000011b4       0x50 build/default/production/_ext/1181623987/miwi_mesh_commissioning.o
 .debug_frame   0x00001204      0x168 build/default/production/_ext/1181623987/mimac.o
 .debug_frame   0x0000136c      0x184 build/default/production/_ext/1181623987/miwi_mesh_routing.o
 .debug_frame   0x000014f0      0x35c build/default/production/_ext/1181623987/miwi_mesh_join.o
 .debug_frame   0x0000184c      0x174 build/default/production/_ext/1529399856/osal_freertos.o
 .debug_frame   0x000019c0       0xd0 build/default/production/_ext/1529399856/osal_freertos_extend.o
 .debug_frame   0x00001a90       0x20 build/default/production/_ext/1984496892/plib_clock.o
 .debug_frame   0x00001ab0       0x84 build/default/production/_ext/60167341/plib_eic.o
 .debug_frame   0x00001b34       0x20 build/default/production/_ext/1986646378/plib_evsys.o
 .debug_frame   0x00001b54       0x50 build/default/production/_ext/1865468468/plib_nvic.o
 .debug_frame   0x00001ba4      0x148 build/default/production/_ext/1593096446/plib_nvmctrl.o
 .debug_frame   0x00001cec       0x90 build/default/production/_ext/829342769/plib_pm.o
 .debug_frame   0x00001d7c       0xd8 build/default/production/_ext/1865521619/plib_port.o
 .debug_frame   0x00001e54       0xd4 build/default/production/_ext/17022449/plib_sercom4_spi_master.o
 .debug_frame   0x00001f28       0xd8 build/default/production/_ext/829342655/plib_tc0.o
 .debug_frame   0x00002000       0x84 build/default/production/_ext/1881668453/sys_int.o
 .debug_frame   0x00002084      0x3a0 build/default/production/_ext/101884895/sys_time.o
 .debug_frame   0x00002424       0x8c build/default/production/_ext/1171490990/tasks.o
 .debug_frame   0x000024b0       0x20 build/default/production/_ext/1171490990/interrupts.o
 .debug_frame   0x000024d0       0x68 build/default/production/_ext/1171490990/freertos_hooks.o
 .debug_frame   0x00002538       0x2c build/default/production/_ext/1171490990/initialization.o
 .debug_frame   0x00002564       0x38 build/default/production/_ext/1171490990/startup_xc32.o
 .debug_frame   0x0000259c       0x30 build/default/production/_ext/1171490990/exceptions.o
 .debug_frame   0x000025cc      0x10c build/default/production/_ext/1624415188/port.o
 .debug_frame   0x000026d8       0xb0 build/default/production/_ext/1665200909/heap_4.o
 .debug_frame   0x00002788       0x6c build/default/production/_ext/404212886/list.o
 .debug_frame   0x000027f4      0x474 build/default/production/_ext/404212886/FreeRTOS_tasks.o
 .debug_frame   0x00002c68      0x308 build/default/production/_ext/404212886/queue.o
 .debug_frame   0x00002f70       0x28 build/default/production/_ext/1360937237/main.o
 .debug_frame   0x00002f98       0x44 build/default/production/_ext/1360937237/app.o
 .debug_frame   0x00002fdc       0x38 c:/program files/microchip/xc32/v4.35/bin/bin/../../lib/gcc/pic32c/8.3.1/../../../../pic32c/lib/thumb/v6-m/nofp\libpic32c.a(data_init.o)
 .debug_frame   0x00003014       0x38 c:/program files/microchip/xc32/v4.35/bin/bin/../../lib/gcc/pic32c/8.3.1/../../../../pic32c/lib/thumb/v6-m/nofp\libc-musl.a(__libc_start_main.o)
 .debug_frame   0x0000304c       0x30 c:/program files/microchip/xc32/v4.35/bin/bin/../../lib/gcc/pic32c/8.3.1/../../../../pic32c/lib/thumb/v6-m/nofp\libc-musl.a(rand.o)
 .debug_frame   0x0000307c       0x2c c:/program files/microchip/xc32/v4.35/bin/bin/../../lib/gcc/pic32c/8.3.1/../../../../pic32c/lib/thumb/v6-m/nofp\libc-musl.a(memcmp.o)
 .debug_frame   0x000030a8       0x28 c:/program files/microchip/xc32/v4.35/bin/bin/../../lib/gcc/pic32c/8.3.1/../../../../pic32c/lib/thumb/v6-m/nofp\libc-musl.a(memcpy.o)
 .debug_frame   0x000030d0       0x20 c:/program files/microchip/xc32/v4.35/bin/bin/../../lib/gcc/pic32c/8.3.1/../../../../pic32c/lib/thumb/v6-m/nofp\libc-musl.a(memset.o)
 .debug_frame   0x000030f0       0x20 c:/program files/microchip/xc32/v4.35/bin/bin/../../lib/gcc/pic32c/8.3.1/thumb/v6-m/nofp\libgcc.a(_udivsi3.o)
 .debug_frame   0x00003110       0x20 c:/program files/microchip/xc32/v4.35/bin/bin/../../lib/gcc/pic32c/8.3.1/thumb/v6-m/nofp\libgcc.a(_divsi3.o)
 .debug_frame   0x00003130       0x34 c:/program files/microchip/xc32/v4.35/bin/bin/../../lib/gcc/pic32c/8.3.1/thumb/v6-m/nofp\libgcc.a(_muldi3.o)
 .debug_frame   0x00003164       0x30 c:/program files/microchip/xc32/v4.35/bin/bin/../../lib/gcc/pic32c/8.3.1/thumb/v6-m/nofp\libgcc.a(_udivmoddi4.o)
 .debug_frame   0x00003194       0x20 c:/program files/microchip/xc32/v4.35/bin/bin/../../lib/gcc/pic32c/8.3.1/../../../../pic32c/lib/thumb/v6-m/nofp\libpic32c.a(pic32_data_init_clear.o)
 .debug_frame   0x000031b4       0x28 c:/program files/microchip/xc32/v4.35/bin/bin/../../lib/gcc/pic32c/8.3.1/../../../../pic32c/lib/thumb/v6-m/nofp\libpic32c.a(pic32_data_init_copy.o)

.note.GNU-stack
                0x00000000        0x0
 .note.GNU-stack
                0x00000000        0x0 c:/program files/microchip/xc32/v4.35/bin/bin/../../lib/gcc/pic32c/8.3.1/../../../../pic32c/lib/thumb/v6-m/nofp\libc-musl.a(__libc_start_main.o)
 .note.GNU-stack
                0x00000000        0x0 c:/program files/microchip/xc32/v4.35/bin/bin/../../lib/gcc/pic32c/8.3.1/../../../../pic32c/lib/thumb/v6-m/nofp\libc-musl.a(libc.o)
 .note.GNU-stack
                0x00000000        0x0 c:/program files/microchip/xc32/v4.35/bin/bin/../../lib/gcc/pic32c/8.3.1/../../../../pic32c/lib/thumb/v6-m/nofp\libc-musl.a(rand.o)
 .note.GNU-stack
                0x00000000        0x0 c:/program files/microchip/xc32/v4.35/bin/bin/../../lib/gcc/pic32c/8.3.1/../../../../pic32c/lib/thumb/v6-m/nofp\libc-musl.a(memcmp.o)
 .note.GNU-stack
                0x00000000        0x0 c:/program files/microchip/xc32/v4.35/bin/bin/../../lib/gcc/pic32c/8.3.1/../../../../pic32c/lib/thumb/v6-m/nofp\libc-musl.a(memcpy.o)
 .note.GNU-stack
                0x00000000        0x0 c:/program files/microchip/xc32/v4.35/bin/bin/../../lib/gcc/pic32c/8.3.1/../../../../pic32c/lib/thumb/v6-m/nofp\libc-musl.a(memset.o)
 .note.GNU-stack
                0x00000000        0x0 c:/program files/microchip/xc32/v4.35/bin/bin/../../lib/gcc/pic32c/8.3.1/../../../../pic32c/lib/thumb/v6-m/nofp\libc-musl.a(__environ.o)

.stack          0x200040b8      0x100
 .stack         0x200040b8      0x100 stack

.bss.ucHeap%1   0x20000000     0x2f40
 .bss.ucHeap    0x20000000     0x2f40 build/default/production/_ext/1665200909/heap_4.o

.bss.buf_pool%2
                0x20002f40      0x5fc
 .bss.buf_pool  0x20002f40      0x5fc build/default/production/_ext/1374435801/bmm.o

.bss.timerHandles%3
                0x2000353c       0xc0
 .bss.timerHandles
                0x2000353c       0xc0 build/default/production/_ext/1181623987/miwi_mesh_join.o
                0x2000353c                timerHandles

.bss.eicCallbackObject%4
                0x200035fc       0xc0
 .bss.eicCallbackObject
                0x200035fc       0xc0 build/default/production/_ext/60167341/plib_eic.o

.bss.timers%5   0x200036bc       0xa0
 .bss.timers    0x200036bc       0xa0 build/default/production/_ext/101884895/sys_time.o

.bss.coordRouteTable%6
                0x2000375c       0x80
 .bss.coordRouteTable
                0x2000375c       0x80 build/default/production/_ext/1181623987/miwi_mesh_app.o
                0x2000375c                coordRouteTable

.bss.buf_header%7
                0x200037dc       0x68
 .bss.buf_header
                0x200037dc       0x68 build/default/production/_ext/1374435801/bmm.o

.bss.searchConfirmMem%8
                0x20003844       0x64
 .bss.searchConfirmMem
                0x20003844       0x64 build/default/production/_ext/1181623987/miwi_mesh_app.o
                0x20003844                searchConfirmMem

.bss.sleepdeviceTable%9
                0x200038a8       0x64
 .bss.sleepdeviceTable
                0x200038a8       0x64 build/default/production/_ext/1181623987/miwi_mesh_app.o
                0x200038a8                sleepdeviceTable

.bss.pxReadyTasksLists%10
                0x2000390c       0x64
 .bss.pxReadyTasksLists
                0x2000390c       0x64 build/default/production/_ext/404212886/FreeRTOS_tasks.o

.bss.palTimers%11
                0x20003970       0x50
 .bss.palTimers
                0x20003970       0x50 build/default/production/_ext/745501718/pal.o

.bss.deviceTable%12
                0x200039c0       0x50
 .bss.deviceTable
                0x200039c0       0x50 build/default/production/_ext/1181623987/miwi_mesh_app.o
                0x200039c0                deviceTable

.bss%13         0x20003a10       0x50
 .bss           0x20003a10       0x50 c:/program files/microchip/xc32/v4.35/bin/bin/../../lib/gcc/pic32c/8.3.1/../../../../pic32c/lib/thumb/v6-m/nofp\libc-musl.a(libc.o)
                0x20003a10                __progname_full
                0x20003a10                program_invocation_name
                0x20003a14                program_invocation_short_name
                0x20003a14                __progname
                0x20003a18                __sysinfo
                0x20003a1c                __hwcap
                0x20003a20                __libc

.bss.osalAPIList%14
                0x20003a60       0x44
 .bss.osalAPIList
                0x20003a60       0x44 build/default/production/_ext/1171490990/initialization.o
                0x20003a60                osalAPIList

.bss.gSystemCounterObj%15
                0x20003aa8       0x40
 .bss.gSystemCounterObj
                0x20003aa8       0x40 build/default/production/_ext/101884895/sys_time.o

.bss.appMsg%16  0x20003ae8       0x3d
 .bss.appMsg    0x20003ae8       0x3d build/default/production/_ext/1181623987/miwi_app.o
                0x20003ae8                appMsg

.bss.reBroadcastTable%17
                0x20003b28       0x3c
 .bss.reBroadcastTable
                0x20003b28       0x3c build/default/production/_ext/1181623987/miwi_mesh_app.o
                0x20003b28                reBroadcastTable

.bss.sercom4SPIObj%18
                0x20003b64       0x2c
 .bss.sercom4SPIObj
                0x20003b64       0x2c build/default/production/_ext/17022449/plib_sercom4_spi_master.o

.bss.duplicateRejectionTable%19
                0x20003b90       0x28
 .bss.duplicateRejectionTable
                0x20003b90       0x28 build/default/production/_ext/1181623987/miwi_mesh_app.o
                0x20003b90                duplicateRejectionTable

.bss.coordHopCount%20
                0x20003bb8       0x20
 .bss.coordHopCount
                0x20003bb8       0x20 build/default/production/_ext/1181623987/miwi_mesh_app.o
                0x20003bb8                coordHopCount

.bss.tal_pib%21
                0x20003bd8       0x1d
 .bss.tal_pib   0x20003bd8       0x1d build/default/production/_ext/559172130/phy.o
                0x20003bd8                tal_pib

.bss%22         0x20003bf8       0x1c
 .bss           0x20003bf8       0x1c c:/program files/microchip/xc32/v4.35/bin/bin/../../lib/gcc/pic32c/8.3.1/thumb/v6-m/nofp/crtbegin.o

.bss.phy_info%23
                0x20003c14       0x18
 .bss.phy_info  0x20003c14       0x18 build/default/production/_ext/559172130/phy.o
                0x20003c14                phy_info

.bss.MACRxPacket%24
                0x20003c2c       0x14
 .bss.MACRxPacket
                0x20003c2c       0x14 build/default/production/_ext/1181623987/mimac.o
                0x20003c2c                MACRxPacket

.bss.xDelayedTaskList1%25
                0x20003c40       0x14
 .bss.xDelayedTaskList1
                0x20003c40       0x14 build/default/production/_ext/404212886/FreeRTOS_tasks.o

.bss.xDelayedTaskList2%26
                0x20003c54       0x14
 .bss.xDelayedTaskList2
                0x20003c54       0x14 build/default/production/_ext/404212886/FreeRTOS_tasks.o

.bss.xPendingReadyList%27
                0x20003c68       0x14
 .bss.xPendingReadyList
                0x20003c68       0x14 build/default/production/_ext/404212886/FreeRTOS_tasks.o

.bss.xSuspendedTaskList%28
                0x20003c7c       0x14
 .bss.xSuspendedTaskList
                0x20003c7c       0x14 build/default/production/_ext/404212886/FreeRTOS_tasks.o

.bss.xTasksWaitingTermination%29
                0x20003c90       0x14
 .bss.xTasksWaitingTermination
                0x20003c90       0x14 build/default/production/_ext/404212886/FreeRTOS_tasks.o

.bss.tal_incoming_frame_queue%30
                0x20003ca4        0xc
 .bss.tal_incoming_frame_queue
                0x20003ca4        0xc build/default/production/_ext/559172130/phy.o
                0x20003ca4                tal_incoming_frame_queue

.bss.free_large_buffer_q%31
                0x20003cb0        0xc
 .bss.free_large_buffer_q
                0x20003cb0        0xc build/default/production/_ext/1374435801/bmm.o

.bss.free_small_buffer_q%32
                0x20003cbc        0xc
 .bss.free_small_buffer_q
                0x20003cbc        0xc build/default/production/_ext/1374435801/bmm.o

.bss.ackWaitFrameQueue%33
                0x20003cc8        0xc
 .bss.ackWaitFrameQueue
                0x20003cc8        0xc build/default/production/_ext/1181623987/miwi_mesh.o
                0x20003cc8                ackWaitFrameQueue

.bss.frameRxQueue%34
                0x20003cd4        0xc
 .bss.frameRxQueue
                0x20003cd4        0xc build/default/production/_ext/1181623987/miwi_mesh.o
                0x20003cd4                frameRxQueue

.bss.frameTxQueue%35
                0x20003ce0        0xc
 .bss.frameTxQueue
                0x20003ce0        0xc build/default/production/_ext/1181623987/miwi_mesh.o
                0x20003ce0                frameTxQueue

.bss.indirectFrameQueue%36
                0x20003cec        0xc
 .bss.indirectFrameQueue
                0x20003cec        0xc build/default/production/_ext/1181623987/miwi_mesh.o
                0x20003cec                indirectFrameQueue

.bss.nonAckFrameQueue%37
                0x20003cf8        0xc
 .bss.nonAckFrameQueue
                0x20003cf8        0xc build/default/production/_ext/1181623987/miwi_mesh.o
                0x20003cf8                nonAckFrameQueue

.bss.routeFrameQueue%38
                0x20003d04        0xc
 .bss.routeFrameQueue
                0x20003d04        0xc build/default/production/_ext/1181623987/miwi_mesh_routing.o
                0x20003d04                routeFrameQueue

.bss.MACInitParams%39
                0x20003d10        0x8
 .bss.MACInitParams
                0x20003d10        0x8 build/default/production/_ext/1181623987/mimac.o

.bss.bloomFilterValue%40
                0x20003d18        0x8
 .bss.bloomFilterValue
                0x20003d18        0x8 build/default/production/_ext/1181623987/miwi_mesh_join.o
                0x20003d18                bloomFilterValue

.bss.TC0_CallbackObject%41
                0x20003d20        0x8
 .bss.TC0_CallbackObject
                0x20003d20        0x8 build/default/production/_ext/829342655/plib_tc0.o

.bss.xStart%42  0x20003d28        0x8
 .bss.xStart    0x20003d28        0x8 build/default/production/_ext/1665200909/heap_4.o

.bss.appData%43
                0x20003d30        0x8
 .bss.appData   0x20003d30        0x8 build/default/production/_ext/1360937237/app.o
                0x20003d30                appData

.bss.apiReq%44  0x20003d38        0x6
 .bss.apiReq    0x20003d38        0x6 build/default/production/_ext/1181623987/miwi_app.o

.bss.apiReqQueueData%45
                0x20003d40        0x6
 .bss.apiReqQueueData
                0x20003d40        0x6 build/default/production/_ext/1181623987/mimac_task.o

.bss.mac_frame_ptr%46
                0x20003aa4        0x4
 .bss.mac_frame_ptr
                0x20003aa4        0x4 build/default/production/_ext/559172130/phy.o
                0x20003aa4                mac_frame_ptr

.bss.tal_frame_to_tx%47
                0x20003d48        0x4
 .bss.tal_frame_to_tx
                0x20003d48        0x4 build/default/production/_ext/559172130/phy.o
                0x20003d48                tal_frame_to_tx

.bss.tal_rx_buffer%48
                0x20003d4c        0x4
 .bss.tal_rx_buffer
                0x20003d4c        0x4 build/default/production/_ext/559172130/phy.o
                0x20003d4c                tal_rx_buffer

.bss.sampler_counter%49
                0x20003d50        0x4
 .bss.sampler_counter
                0x20003d50        0x4 build/default/production/_ext/559172130/phy_ed.o

.bss.appDataSendingTimerHandle%50
                0x20003d54        0x4
 .bss.appDataSendingTimerHandle
                0x20003d54        0x4 build/default/production/_ext/1181623987/miwi_app.o

.bss.appNetworkStatusTimerHandle%51
                0x20003d58        0x4
 .bss.appNetworkStatusTimerHandle
                0x20003d58        0x4 build/default/production/_ext/1181623987/miwi_app.o

.bss.miwiDefaultRamOnlyParams%52
                0x20003d5c        0x4
 .bss.miwiDefaultRamOnlyParams
                0x20003d5c        0x4 build/default/production/_ext/1181623987/miwi_init.o
                0x20003d5c                miwiDefaultRamOnlyParams

.bss.miwiDefaultRomOrRamParams%53
                0x20003d60        0x4
 .bss.miwiDefaultRomOrRamParams
                0x20003d60        0x4 build/default/production/_ext/1181623987/miwi_init.o
                0x20003d60                miwiDefaultRomOrRamParams

.bss.apiRequestQueueHandle%54
                0x20003d64        0x4
 .bss.apiRequestQueueHandle
                0x20003d64        0x4 build/default/production/_ext/1181623987/mimac_task.o
                0x20003d64                apiRequestQueueHandle

.bss.mimac%55   0x20003d68        0x4
 .bss.mimac     0x20003d68        0x4 build/default/production/_ext/1181623987/mimac_task.o
                0x20003d68                mimac

.bss.pApiReqQueueData%56
                0x20003d6c        0x4
 .bss.pApiReqQueueData
                0x20003d6c        0x4 build/default/production/_ext/1181623987/mimac_task.o

.bss.semStackInternalHandler%57
                0x20003d70        0x4
 .bss.semStackInternalHandler
                0x20003d70        0x4 build/default/production/_ext/1181623987/mimac_task.o
                0x20003d70                semStackInternalHandler

.bss.xActivatedMember%58
                0x20003d74        0x4
 .bss.xActivatedMember
                0x20003d74        0x4 build/default/production/_ext/1181623987/mimac_task.o

.bss.xQueueSet%59
                0x20003d78        0x4
 .bss.xQueueSet
                0x20003d78        0x4 build/default/production/_ext/1181623987/mimac_task.o

.bss.pktManuSpecRxcallback%60
                0x20003d7c        0x4
 .bss.pktManuSpecRxcallback
                0x20003d7c        0x4 build/default/production/_ext/1181623987/miwi_mesh_frame.o

.bss.pktRxcallback%61
                0x20003d80        0x4
 .bss.pktRxcallback
                0x20003d80        0x4 build/default/production/_ext/1181623987/miwi_mesh_frame.o

.bss.sentFrameCb%62
                0x20003d84        0x4
 .bss.sentFrameCb
                0x20003d84        0x4 build/default/production/_ext/1181623987/miwi_mesh.o

.bss.dataConfCallback%63
                0x20003d88        0x4
 .bss.dataConfCallback
                0x20003d88        0x4 build/default/production/_ext/1181623987/mimac.o

.bss.gChannelMap%64
                0x20003d8c        0x4
 .bss.gChannelMap
                0x20003d8c        0x4 build/default/production/_ext/1181623987/miwi_mesh_join.o
                0x20003d8c                gChannelMap

.bss.gEstConfCallback%65
                0x20003d90        0x4
 .bss.gEstConfCallback
                0x20003d90        0x4 build/default/production/_ext/1181623987/miwi_mesh_join.o

.bss.gSearchConfCallback%66
                0x20003d94        0x4
 .bss.gSearchConfCallback
                0x20003d94        0x4 build/default/production/_ext/1181623987/miwi_mesh_join.o

.bss.linkFailureCallback%67
                0x20003d98        0x4
 .bss.linkFailureCallback
                0x20003d98        0x4 build/default/production/_ext/1181623987/miwi_mesh_join.o
                0x20003d98                linkFailureCallback

.bss.roleUpgradeCb%68
                0x20003d9c        0x4
 .bss.roleUpgradeCb
                0x20003d9c        0x4 build/default/production/_ext/1181623987/miwi_mesh_join.o

.bss.searchConf%69
                0x20003da0        0x4
 .bss.searchConf
                0x20003da0        0x4 build/default/production/_ext/1181623987/miwi_mesh_join.o

.bss.xAPP_Tasks%70
                0x20003da4        0x4
 .bss.xAPP_Tasks
                0x20003da4        0x4 build/default/production/_ext/1171490990/tasks.o
                0x20003da4                xAPP_Tasks

.bss.xMiMAC_Tasks%71
                0x20003da8        0x4
 .bss.xMiMAC_Tasks
                0x20003da8        0x4 build/default/production/_ext/1171490990/tasks.o
                0x20003da8                xMiMAC_Tasks

.bss.xPHY_Tasks%72
                0x20003dac        0x4
 .bss.xPHY_Tasks
                0x20003dac        0x4 build/default/production/_ext/1171490990/tasks.o
                0x20003dac                xPHY_Tasks

.bss.xTAL_Tasks%73
                0x20003db0        0x4
 .bss.xTAL_Tasks
                0x20003db0        0x4 build/default/production/_ext/1171490990/tasks.o
                0x20003db0                xTAL_Tasks

.bss.miwiRequestQueueHandle%74
                0x20003db4        0x4
 .bss.miwiRequestQueueHandle
                0x20003db4        0x4 build/default/production/_ext/1171490990/initialization.o
                0x20003db4                miwiRequestQueueHandle

.bss.semPhyInternalHandler%75
                0x20003db8        0x4
 .bss.semPhyInternalHandler
                0x20003db8        0x4 build/default/production/_ext/1171490990/initialization.o
                0x20003db8                semPhyInternalHandler

.bss.semTalInternalHandler%76
                0x20003dbc        0x4
 .bss.semTalInternalHandler
                0x20003dbc        0x4 build/default/production/_ext/1171490990/initialization.o
                0x20003dbc                semTalInternalHandler

.bss.sysObj%77  0x20003dc0        0x4
 .bss.sysObj    0x20003dc0        0x4 build/default/production/_ext/1171490990/initialization.o
                0x20003dc0                sysObj

.bss.pxEnd%78   0x20003dc4        0x4
 .bss.pxEnd     0x20003dc4        0x4 build/default/production/_ext/1665200909/heap_4.o

.bss.xBlockAllocatedBit%79
                0x20003dc8        0x4
 .bss.xBlockAllocatedBit
                0x20003dc8        0x4 build/default/production/_ext/1665200909/heap_4.o

.bss.xFreeBytesRemaining%80
                0x20003dcc        0x4
 .bss.xFreeBytesRemaining
                0x20003dcc        0x4 build/default/production/_ext/1665200909/heap_4.o

.bss.xMinimumEverFreeBytesRemaining%81
                0x20003dd0        0x4
 .bss.xMinimumEverFreeBytesRemaining
                0x20003dd0        0x4 build/default/production/_ext/1665200909/heap_4.o

.bss.xNumberOfSuccessfulAllocations%82
                0x20003dd4        0x4
 .bss.xNumberOfSuccessfulAllocations
                0x20003dd4        0x4 build/default/production/_ext/1665200909/heap_4.o

.bss.xNumberOfSuccessfulFrees%83
                0x20003dd8        0x4
 .bss.xNumberOfSuccessfulFrees
                0x20003dd8        0x4 build/default/production/_ext/1665200909/heap_4.o

.bss.pxCurrentTCB%84
                0x20003ddc        0x4
 .bss.pxCurrentTCB
                0x20003ddc        0x4 build/default/production/_ext/404212886/FreeRTOS_tasks.o
                0x20003ddc                pxCurrentTCB

.bss.pxDelayedTaskList%85
                0x20003de0        0x4
 .bss.pxDelayedTaskList
                0x20003de0        0x4 build/default/production/_ext/404212886/FreeRTOS_tasks.o

.bss.pxOverflowDelayedTaskList%86
                0x20003de4        0x4
 .bss.pxOverflowDelayedTaskList
                0x20003de4        0x4 build/default/production/_ext/404212886/FreeRTOS_tasks.o

.bss.uxCurrentNumberOfTasks%87
                0x20003de8        0x4
 .bss.uxCurrentNumberOfTasks
                0x20003de8        0x4 build/default/production/_ext/404212886/FreeRTOS_tasks.o

.bss.uxDeletedTasksWaitingCleanUp%88
                0x20003dec        0x4
 .bss.uxDeletedTasksWaitingCleanUp
                0x20003dec        0x4 build/default/production/_ext/404212886/FreeRTOS_tasks.o

.bss.uxSchedulerSuspended%89
                0x20003df0        0x4
 .bss.uxSchedulerSuspended
                0x20003df0        0x4 build/default/production/_ext/404212886/FreeRTOS_tasks.o

.bss.uxTaskNumber%90
                0x20003df4        0x4
 .bss.uxTaskNumber
                0x20003df4        0x4 build/default/production/_ext/404212886/FreeRTOS_tasks.o

.bss.uxTopReadyPriority%91
                0x20003df8        0x4
 .bss.uxTopReadyPriority
                0x20003df8        0x4 build/default/production/_ext/404212886/FreeRTOS_tasks.o

.bss.xIdleTaskHandle%92
                0x20003dfc        0x4
 .bss.xIdleTaskHandle
                0x20003dfc        0x4 build/default/production/_ext/404212886/FreeRTOS_tasks.o

.bss.xNextTaskUnblockTime%93
                0x20003e00        0x4
 .bss.xNextTaskUnblockTime
                0x20003e00        0x4 build/default/production/_ext/404212886/FreeRTOS_tasks.o

.bss.xNumOfOverflows%94
                0x20003e04        0x4
 .bss.xNumOfOverflows
                0x20003e04        0x4 build/default/production/_ext/404212886/FreeRTOS_tasks.o

.bss.xPendedTicks%95
                0x20003e08        0x4
 .bss.xPendedTicks
                0x20003e08        0x4 build/default/production/_ext/404212886/FreeRTOS_tasks.o

.bss.xSchedulerRunning%96
                0x20003e0c        0x4
 .bss.xSchedulerRunning
                0x20003e0c        0x4 build/default/production/_ext/404212886/FreeRTOS_tasks.o

.bss.xTickCount%97
                0x20003e10        0x4
 .bss.xTickCount
                0x20003e10        0x4 build/default/production/_ext/404212886/FreeRTOS_tasks.o

.bss.xYieldPending%98
                0x20003e14        0x4
 .bss.xYieldPending
                0x20003e14        0x4 build/default/production/_ext/404212886/FreeRTOS_tasks.o

.bss%99         0x20003e18        0x4
 .bss           0x20003e18        0x4 c:/program files/microchip/xc32/v4.35/bin/bin/../../lib/gcc/pic32c/8.3.1/../../../../pic32c/lib/thumb/v6-m/nofp\libpic32c.a(data_init.o)

.bss%100        0x20003e1c        0x4
 .bss           0x20003e1c        0x4 c:/program files/microchip/xc32/v4.35/bin/bin/../../lib/gcc/pic32c/8.3.1/../../../../pic32c/lib/thumb/v6-m/nofp\libc-musl.a(rand.o)

.bss%101        0x20003e20        0x4
 .bss           0x20003e20        0x4 c:/program files/microchip/xc32/v4.35/bin/bin/../../lib/gcc/pic32c/8.3.1/../../../../pic32c/lib/thumb/v6-m/nofp\libc-musl.a(__environ.o)
                0x20003e20                __environ
                0x20003e20                environ
                0x20003e20                ___environ
                0x20003e20                _environ

.bss.myNetworkAddress%102
                0x20003e24        0x2
 .bss.myNetworkAddress
                0x20003e24        0x2 build/default/production/_ext/1181623987/mimac.o

.bss.MAC_PANID%103
                0x20003e28        0x2
 .bss.MAC_PANID
                0x20003e28        0x2 build/default/production/_ext/1181623987/mimac.o

.bss.myPANID%104
                0x20003e2c        0x2
 .bss.myPANID   0x20003e2c        0x2 build/default/production/_ext/1181623987/miwi_mesh.o
                0x20003e2c                myPANID

.bss.myShortAddress%105
                0x20003d3e        0x2
 .bss.myShortAddress
                0x20003d3e        0x2 build/default/production/_ext/1181623987/miwi_mesh_join.o
                0x20003d3e                myShortAddress

.bss.defaultParamsRamOnly%106
                0x20003e30        0x1
 .bss.defaultParamsRamOnly
                0x20003e30        0x1 build/default/production/_ext/1181623987/miwi_mesh_app.o
                0x20003e30                defaultParamsRamOnly

.bss.numOfTimers%107
                0x20003d46        0x1
 .bss.numOfTimers
                0x20003d46        0x1 build/default/production/_ext/745501718/pal.o

.bss.palTimerInitialized.8519%108
                0x20003d47        0x1
 .bss.palTimerInitialized.8519
                0x20003d47        0x1 build/default/production/_ext/745501718/pal.o

.bss.tal_sw_retry_count%109
                0x20003e26        0x1
 .bss.tal_sw_retry_count
                0x20003e26        0x1 build/default/production/_ext/559172130/phy_tx.o

.bss.tal_sw_retry_no_csma_ca%110
                0x20003e27        0x1
 .bss.tal_sw_retry_no_csma_ca
                0x20003e27        0x1 build/default/production/_ext/559172130/phy_tx.o

.bss.trx_trac_status%111
                0x20003e2a        0x1
 .bss.trx_trac_status
                0x20003e2a        0x1 build/default/production/_ext/559172130/phy_tx.o

.bss.tfa_pib_rx_sens%112
                0x20003e2b        0x1
 .bss.tfa_pib_rx_sens
                0x20003e2b        0x1 build/default/production/_ext/559172130/tfa.o

.bss.max_ed_level%113
                0x20003e2e        0x1
 .bss.max_ed_level
                0x20003e2e        0x1 build/default/production/_ext/559172130/phy_ed.o

.bss.TAL_RETRY_TIMER%114
                0x20003e2f        0x1
 .bss.TAL_RETRY_TIMER
                0x20003e2f        0x1 build/default/production/_ext/559172130/phy_init.o
                0x20003e2f                TAL_RETRY_TIMER

.bss.appNetworkStatus%115
                0x20003b25        0x1
 .bss.appNetworkStatus
                0x20003b25        0x1 build/default/production/_ext/1181623987/miwi_app.o

.bss.appStates%116
                0x20003b26        0x1
 .bss.appStates
                0x20003b26        0x1 build/default/production/_ext/1181623987/miwi_app.o
                0x20003b26                appStates

.bss.wsnmsghandle%117
                0x20003b27        0x1
 .bss.wsnmsghandle
                0x20003b27        0x1 build/default/production/_ext/1181623987/miwi_app.o

.bss.busyLock%118
                0x20003bf5        0x1
 .bss.busyLock  0x20003bf5        0x1 build/default/production/_ext/1181623987/miwi_mesh.o
                0x20003bf5                busyLock

.bss.currentChannel%119
                0x20003bf6        0x1
 .bss.currentChannel
                0x20003bf6        0x1 build/default/production/_ext/1181623987/miwi_mesh.o
                0x20003bf6                currentChannel

.bss.initStatus%120
                0x20003bf7        0x1
 .bss.initStatus
                0x20003bf7        0x1 build/default/production/_ext/1181623987/miwi_mesh.o
                0x20003bf7                initStatus

.bss.meshCurrentState%121
                0x20003e31        0x1
 .bss.meshCurrentState
                0x20003e31        0x1 build/default/production/_ext/1181623987/miwi_mesh.o
                0x20003e31                meshCurrentState

.bss.meshSequenceNumber%122
                0x20003e32        0x1
 .bss.meshSequenceNumber
                0x20003e32        0x1 build/default/production/_ext/1181623987/miwi_mesh.o
                0x20003e32                meshSequenceNumber

.bss.IEEESeqNum%123
                0x20003e33        0x1
 .bss.IEEESeqNum
                0x20003e33        0x1 build/default/production/_ext/1181623987/mimac.o

.bss.routeUpdateInterval%124
                0x20003e34        0x1
 .bss.routeUpdateInterval
                0x20003e34        0x1 build/default/production/_ext/1181623987/miwi_mesh_routing.o
                0x20003e34                routeUpdateInterval

.bss.SleepEndDeviceCapacityPercent%125
                0x20003e35        0x1
 .bss.SleepEndDeviceCapacityPercent
                0x20003e35        0x1 build/default/production/_ext/1181623987/miwi_mesh_join.o

.bss.coordinatorHops%126
                0x20003e36        0x1
 .bss.coordinatorHops
                0x20003e36        0x1 build/default/production/_ext/1181623987/miwi_mesh_join.o
                0x20003e36                coordinatorHops

.bss.edInPollingState%127
                0x20003e37        0x1
 .bss.edInPollingState
                0x20003e37        0x1 build/default/production/_ext/1181623987/miwi_mesh_join.o
                0x20003e37                edInPollingState

.bss.edLinkFailureAttempts%128
                0x20003e38        0x1
 .bss.edLinkFailureAttempts
                0x20003e38        0x1 build/default/production/_ext/1181623987/miwi_mesh_join.o
                0x20003e38                edLinkFailureAttempts

.bss.endDeviceCapacityPercent%129
                0x20003e39        0x1
 .bss.endDeviceCapacityPercent
                0x20003e39        0x1 build/default/production/_ext/1181623987/miwi_mesh_join.o

.bss.gCapabilityInfo%130
                0x20003e3a        0x1
 .bss.gCapabilityInfo
                0x20003e3a        0x1 build/default/production/_ext/1181623987/miwi_mesh_join.o
                0x20003e3a                gCapabilityInfo

.bss.gScanDuration%131
                0x20003e3b        0x1
 .bss.gScanDuration
                0x20003e3b        0x1 build/default/production/_ext/1181623987/miwi_mesh_join.o

.bss.isLastByteTransferInProgress.5647%132
                0x20003e3c        0x1
 .bss.isLastByteTransferInProgress.5647
                0x20003e3c        0x1 build/default/production/_ext/17022449/plib_sercom4_spi_master.o

.bss.appInitialized%133
                0x20003e3d        0x1
 .bss.appInitialized
                0x20003e3d        0x1 build/default/production/_ext/1360937237/app.o
                0x20003e3d                appInitialized

.bss.dummyVal%134
                0x20003e3e        0x1
 .bss.dummyVal  0x20003e3e        0x1 build/default/production/_ext/1360937237/app.o
                0x20003e3e                dummyVal

.data.defaultParamsRomOrRam%135
                0x20003e40       0x48
 .data.defaultParamsRomOrRam
                0x20003e40       0x48 build/default/production/_ext/1181623987/miwi_mesh_app.o
                0x20003e40                defaultParamsRomOrRam

.data.myLongAddress%136
                0x20003e88        0x8
 .data.myLongAddress
                0x20003e88        0x8 build/default/production/_ext/1181623987/miwi_mesh_app.o
                0x20003e88                myLongAddress

.data.uxCriticalNesting%137
                0x20003e90        0x4
 .data.uxCriticalNesting
                0x20003e90        0x4 build/default/production/_ext/1624415188/port.o

.data.myParentShortAddress%138
                0x20003e94        0x2
 .data.myParentShortAddress
                0x20003e94        0x2 build/default/production/_ext/1181623987/miwi_mesh_join.o
                0x20003e94                myParentShortAddress

.data.gSysTimeTokenCount%139
                0x20003e96        0x2
 .data.gSysTimeTokenCount
                0x20003e96        0x2 build/default/production/_ext/101884895/sys_time.o

.data.txCallbackReceived%140
                0x20003e3f        0x1
 .data.txCallbackReceived
                0x20003e3f        0x1 build/default/production/_ext/1181623987/miwi_mesh.o
                0x20003e3f                txCallbackReceived

.data.bloomFilterAutoJoin%141
                0x20003e98        0x1
 .data.bloomFilterAutoJoin
                0x20003e98        0x1 build/default/production/_ext/1181623987/miwi_mesh_commissioning.o
                0x20003e98                bloomFilterAutoJoin

.data.csmaMode%142
                0x20003e99        0x1
 .data.csmaMode
                0x20003e99        0x1 build/default/production/_ext/1181623987/mimac.o
                0x20003e99                csmaMode

.data.performRetry%143
                0x20003e9a        0x1
 .data.performRetry
                0x20003e9a        0x1 build/default/production/_ext/1181623987/mimac.o
                0x20003e9a                performRetry

.eh_frame%z1    0x00000000        0x0
 .eh_frame      0x00000000        0x0 c:/program files/microchip/xc32/v4.35/bin/bin/../../lib/gcc/pic32c/8.3.1/thumb/v6-m/nofp/crtbegin.o

.config_00804000.__config_00804000%144
                0x00804000        0x4
 .config_00804000.__config_00804000
                0x00804000        0x4 build/default/production/_ext/1171490990/initialization.o
                0x00804000                __config_00804000

.config_00804004.__config_00804004%145
                0x00804004        0x4
 .config_00804004.__config_00804004
                0x00804004        0x4 build/default/production/_ext/1171490990/initialization.o
                0x00804004                __config_00804004

.text.handleJoinMessage%146
                0x000000d0      0x900
 .text.handleJoinMessage
                0x000000d0      0x900 build/default/production/_ext/1181623987/miwi_mesh_join.o
                0x000000d0                handleJoinMessage

.text.frameParse%147
                0x000009d0      0x714
 .text.frameParse
                0x000009d0      0x714 build/default/production/_ext/1181623987/miwi_mesh_frame.o
                0x000009d0                frameParse

.dinit%148      0x000010e4      0x4c0
 .dinit         0x000010e4      0x4c0 data_init

.text.handleRouteMessage%149
                0x000015a4      0x358
 .text.handleRouteMessage
                0x000015a4      0x358 build/default/production/_ext/1181623987/miwi_mesh_routing.o
                0x000015a4                handleRouteMessage

.text.sendData%150
                0x000018fc      0x304
 .text.sendData
                0x000018fc      0x304 build/default/production/_ext/1181623987/miwi_mesh.o

.text.MiMAC_SendPacket%151
                0x00001c00      0x2c4
 .text.MiMAC_SendPacket
                0x00001c00      0x2c4 build/default/production/_ext/1181623987/mimac.o
                0x00001c00                MiMAC_SendPacket

.text.MiMAC_ReceivedPacket%152
                0x00001ec4      0x2bc
 .text.MiMAC_ReceivedPacket
                0x00001ec4      0x2bc build/default/production/_ext/1181623987/mimac.o
                0x00001ec4                MiMAC_ReceivedPacket

.text.PHY_PibSet%153
                0x00002180      0x280
 .text.PHY_PibSet
                0x00002180      0x280 build/default/production/_ext/559172130/phy_pib.o
                0x00002180                PHY_PibSet

.text.set_trx_state%154
                0x00002400      0x22c
 .text.set_trx_state
                0x00002400      0x22c build/default/production/_ext/559172130/phy.o
                0x00002400                set_trx_state

.text.handleDataMessage%155
                0x0000262c      0x1dc
 .text.handleDataMessage
                0x0000262c      0x1dc build/default/production/_ext/1181623987/miwi_mesh_frame.o
                0x0000262c                handleDataMessage

.text.routeTimerHandler%156
                0x00002808      0x1d8
 .text.routeTimerHandler
                0x00002808      0x1d8 build/default/production/_ext/1181623987/miwi_mesh_routing.o
                0x00002808                routeTimerHandler

.text.apply_channel_page_configuration%157
                0x000029e0      0x1d4
 .text.apply_channel_page_configuration
                0x000029e0      0x1d4 build/default/production/_ext/559172130/phy_pib.o

.text.sendDataFrame%158
                0x00002bb4      0x1d4
 .text.sendDataFrame
                0x00002bb4      0x1d4 build/default/production/_ext/1181623987/miwi_mesh_frame.o
                0x00002bb4                sendDataFrame

.text.xTaskCreate%159
                0x00002d88      0x1d4
 .text.xTaskCreate
                0x00002d88      0x1d4 build/default/production/_ext/404212886/FreeRTOS_tasks.o
                0x00002d88                xTaskCreate

.text.ackReqDataConfcb%160
                0x00002f5c      0x188
 .text.ackReqDataConfcb
                0x00002f5c      0x188 build/default/production/_ext/1181623987/miwi_mesh.o
                0x00002f5c                ackReqDataConfcb

.text.SERCOM4_SPI_WriteRead%161
                0x000030e4      0x178
 .text.SERCOM4_SPI_WriteRead
                0x000030e4      0x178 build/default/production/_ext/17022449/plib_sercom4_spi_master.o
                0x000030e4                SERCOM4_SPI_WriteRead

.text.PHY_Init%162
                0x0000325c      0x164
 .text.PHY_Init
                0x0000325c      0x164 build/default/production/_ext/559172130/phy_init.o
                0x0000325c                PHY_Init

.text.MiAPP_TaskHandler%163
                0x000033c0      0x164
 .text.MiAPP_TaskHandler
                0x000033c0      0x164 build/default/production/_ext/1181623987/miwi_app.o
                0x000033c0                MiAPP_TaskHandler

.text.frameTransmit%164
                0x00003524      0x160
 .text.frameTransmit
                0x00003524      0x160 build/default/production/_ext/1181623987/miwi_mesh_frame.o
                0x00003524                frameTransmit

.text.SERCOM4_SPI_InterruptHandler%165
                0x00003684      0x154
 .text.SERCOM4_SPI_InterruptHandler
                0x00003684      0x154 build/default/production/_ext/17022449/plib_sercom4_spi_master.o
                0x00003684                SERCOM4_SPI_InterruptHandler

.text.sendPollRequest%166
                0x000037d8      0x150
 .text.sendPollRequest
                0x000037d8      0x150 build/default/production/_ext/1181623987/miwi_mesh_join.o
                0x000037d8                sendPollRequest

.text.send_frame%167
                0x00003928      0x140
 .text.send_frame
                0x00003928      0x140 build/default/production/_ext/559172130/phy_tx.o
                0x00003928                send_frame

.text.PHY_PibGet%168
                0x00003a68      0x13c
 .text.PHY_PibGet
                0x00003a68      0x13c build/default/production/_ext/559172130/phy_pib.o
                0x00003a68                PHY_PibGet

.text.xQueueGenericSend%169
                0x00003ba4      0x138
 .text.xQueueGenericSend
                0x00003ba4      0x138 build/default/production/_ext/404212886/queue.o
                0x00003ba4                xQueueGenericSend

.text.xQueueSemaphoreTake%170
                0x00003cdc      0x136
 .text.xQueueSemaphoreTake
                0x00003cdc      0x136 build/default/production/_ext/404212886/queue.o
                0x00003cdc                xQueueSemaphoreTake

.text.pvPortMalloc%171
                0x00003e14      0x128
 .text.pvPortMalloc
                0x00003e14      0x128 build/default/production/_ext/1665200909/heap_4.o
                0x00003e14                pvPortMalloc

.text.xTaskIncrementTick%172
                0x00003f3c      0x120
 .text.xTaskIncrementTick
                0x00003f3c      0x120 build/default/production/_ext/404212886/FreeRTOS_tasks.o
                0x00003f3c                xTaskIncrementTick

.text.dataTimerHandler%173
                0x0000405c      0x118
 .text.dataTimerHandler
                0x0000405c      0x118 build/default/production/_ext/1181623987/miwi_mesh.o

.text.SYS_Initialize%174
                0x00004174      0x118
 .text.SYS_Initialize
                0x00004174      0x118 build/default/production/_ext/1171490990/initialization.o
                0x00004174                SYS_Initialize

.text.MeshTasks%175
                0x0000428c      0x10c
 .text.MeshTasks
                0x0000428c      0x10c build/default/production/_ext/1181623987/miwi_mesh.o
                0x0000428c                MeshTasks

.text.MiMAC_Tasks%176
                0x00004398      0x108
 .text.MiMAC_Tasks
                0x00004398      0x108 build/default/production/_ext/1181623987/mimac_task.o
                0x00004398                MiMAC_Tasks

.text.MiApp_EstablishConnection%177
                0x000044a0      0x108
 .text.MiApp_EstablishConnection
                0x000044a0      0x108 build/default/production/_ext/1181623987/miwi_mesh_join.o
                0x000044a0                MiApp_EstablishConnection

.text.xQueueReceive%178
                0x000045a8       0xf8
 .text.xQueueReceive
                0x000045a8       0xf8 build/default/production/_ext/404212886/queue.o
                0x000045a8                xQueueReceive

.text.internal_tal_reset%179
                0x000046a0       0xf0
 .text.internal_tal_reset
                0x000046a0       0xf0 build/default/production/_ext/559172130/phy_init.o

.text.SYS_TIME_PLIBCallback%180
                0x00004790       0xe8
 .text.SYS_TIME_PLIBCallback
                0x00004790       0xe8 build/default/production/_ext/101884895/sys_time.o

.text.xTaskResumeAll%181
                0x00004878       0xe8
 .text.xTaskResumeAll
                0x00004878       0xe8 build/default/production/_ext/404212886/FreeRTOS_tasks.o
                0x00004878                xTaskResumeAll

.text.bloomFilterAddressCheck%182
                0x00004960       0xe4
 .text.bloomFilterAddressCheck
                0x00004960       0xe4 build/default/production/_ext/1181623987/miwi_mesh_commissioning.o
                0x00004960                bloomFilterAddressCheck

.text%183       0x00004a44       0xe2
 .text          0x00004a44       0xe2 c:/program files/microchip/xc32/v4.35/bin/bin/../../lib/gcc/pic32c/8.3.1/thumb/v6-m/nofp\libgcc.a(_udivmoddi4.o)
                0x00004a44                __udivmoddi4

.text.SYS_TIME_AddToList%184
                0x00004b28       0xdc
 .text.SYS_TIME_AddToList
                0x00004b28       0xdc build/default/production/_ext/101884895/sys_time.o

.text.ScanChannel%185
                0x00004c04       0xd8
 .text.ScanChannel
                0x00004c04       0xd8 build/default/production/_ext/1181623987/miwi_mesh_join.o

.text.PHY_GetTrxConfig%186
                0x00004cdc       0xc8
 .text.PHY_GetTrxConfig
                0x00004cdc       0xc8 build/default/production/_ext/559172130/phy_helper.o
                0x00004cdc                PHY_GetTrxConfig

.text.SYS_TIME_Initialize%187
                0x00004da4       0xc4
 .text.SYS_TIME_Initialize
                0x00004da4       0xc4 build/default/production/_ext/101884895/sys_time.o
                0x00004da4                SYS_TIME_Initialize

.text.vTaskSwitchContext%188
                0x00004e68       0xc4
 .text.vTaskSwitchContext
                0x00004e68       0xc4 build/default/production/_ext/404212886/FreeRTOS_tasks.o
                0x00004e68                vTaskSwitchContext

.text.sendKeepAlive%189
                0x00004f2c       0xc0
 .text.sendKeepAlive
                0x00004f2c       0xc0 build/default/production/_ext/1181623987/miwi_mesh_join.o
                0x00004f2c                sendKeepAlive

.text.SYS_TIME_TimerObjectCreate%190
                0x00004fec       0xc0
 .text.SYS_TIME_TimerObjectCreate
                0x00004fec       0xc0 build/default/production/_ext/101884895/sys_time.o

.text.calculatePermitCapacity%191
                0x000050ac       0xbc
 .text.calculatePermitCapacity
                0x000050ac       0xbc build/default/production/_ext/1181623987/miwi_mesh_join.o
                0x000050ac                calculatePermitCapacity

.text.SYS_TIME_HwTimerCompareUpdate%192
                0x00005168       0xbc
 .text.SYS_TIME_HwTimerCompareUpdate
                0x00005168       0xbc build/default/production/_ext/101884895/sys_time.o

.text.CLOCK_Initialize%193
                0x00005224       0xb8
 .text.CLOCK_Initialize
                0x00005224       0xb8 build/default/production/_ext/1984496892/plib_clock.o
                0x00005224                CLOCK_Initialize

.rodata.set_trx_state%194
                0x000052dc       0xb4
 .rodata.set_trx_state
                0x000052dc       0xb4 build/default/production/_ext/559172130/phy.o

.text.MiApp_ProtocolInit%195
                0x00005390       0xb4
 .text.MiApp_ProtocolInit
                0x00005390       0xb4 build/default/production/_ext/1181623987/miwi_mesh.o
                0x00005390                MiApp_ProtocolInit

.text.initiateRouteReq%196
                0x00005444       0xb4
 .text.initiateRouteReq
                0x00005444       0xb4 build/default/production/_ext/1181623987/miwi_mesh_routing.o
                0x00005444                initiateRouteReq

.text.MiApp_Set%197
                0x000054f8       0xb0
 .text.MiApp_Set
                0x000054f8       0xb0 build/default/production/_ext/1181623987/miwi_mesh.o
                0x000054f8                MiApp_Set

.text.set_default_tx_pwr%198
                0x000055a8       0xac
 .text.set_default_tx_pwr
                0x000055a8       0xac build/default/production/_ext/559172130/phy_pib.o

.text%199       0x00005654       0xa8
 .text          0x00005654       0xa8 c:/program files/microchip/xc32/v4.35/bin/bin/../../lib/gcc/pic32c/8.3.1/thumb/v6-m/nofp\libgcc.a(_divsi3.o)
                0x00005654                __divsi3
                0x00005654                __aeabi_idiv
                0x000056e8                __aeabi_idivmod

.text.beaconReqConfcb%200
                0x000056fc       0xa4
 .text.beaconReqConfcb
                0x000056fc       0xa4 build/default/production/_ext/1181623987/miwi_mesh_join.o

.text.deviceTableInit%201
                0x000057a0       0xa4
 .text.deviceTableInit
                0x000057a0       0xa4 build/default/production/_ext/1181623987/miwi_mesh_join.o
                0x000057a0                deviceTableInit

.text.xQueueGenericSendFromISR%202
                0x00005844       0x9e
 .text.xQueueGenericSendFromISR
                0x00005844       0x9e build/default/production/_ext/404212886/queue.o
                0x00005844                xQueueGenericSendFromISR

.text.handle_received_frame_irq%203
                0x000058e4       0x9c
 .text.handle_received_frame_irq
                0x000058e4       0x9c build/default/production/_ext/559172130/phy_rx.o
                0x000058e4                handle_received_frame_irq

.text.Wsndemo_Init%204
                0x00005980       0x9c
 .text.Wsndemo_Init
                0x00005980       0x9c build/default/production/_ext/1181623987/miwi_app.o
                0x00005980                Wsndemo_Init

.text.dataReqConfcb%205
                0x00005a1c       0x9c
 .text.dataReqConfcb
                0x00005a1c       0x9c build/default/production/_ext/1181623987/miwi_mesh_join.o

.text.appSendData%206
                0x00005ab8       0x98
 .text.appSendData
                0x00005ab8       0x98 build/default/production/_ext/1181623987/miwi_app.o
                0x00005ab8                appSendData

.text.MiApp_SearchConnection%207
                0x00005b50       0x98
 .text.MiApp_SearchConnection
                0x00005b50       0x98 build/default/production/_ext/1181623987/miwi_mesh_join.o
                0x00005b50                MiApp_SearchConnection

.text.startDataWaitIntervalTimer%208
                0x00005be8       0x98
 .text.startDataWaitIntervalTimer
                0x00005be8       0x98 build/default/production/_ext/1181623987/miwi_mesh_join.o
                0x00005be8                startDataWaitIntervalTimer

.text.keepAliveTimerHandler%209
                0x00005c80       0x98
 .text.keepAliveTimerHandler
                0x00005c80       0x98 build/default/production/_ext/1181623987/miwi_mesh_join.o
                0x00005c80                keepAliveTimerHandler

.text.PORT_Initialize%210
                0x00005d18       0x98
 .text.PORT_Initialize
                0x00005d18       0x98 build/default/production/_ext/1865521619/plib_port.o
                0x00005d18                PORT_Initialize

.text.prvUnlockQueue%211
                0x00005db0       0x98
 .text.prvUnlockQueue
                0x00005db0       0x98 build/default/production/_ext/404212886/queue.o

.text.addDuplicateRejectionTableEntry%212
                0x00005e48       0x94
 .text.addDuplicateRejectionTableEntry
                0x00005e48       0x94 build/default/production/_ext/1181623987/miwi_mesh_frame.o
                0x00005e48                addDuplicateRejectionTableEntry

.text.addRoute%213
                0x00005edc       0x94
 .text.addRoute
                0x00005edc       0x94 build/default/production/_ext/1181623987/miwi_mesh_routing.o
                0x00005edc                addRoute

.text.sendForceLeaveNetwork%214
                0x00005f70       0x94
 .text.sendForceLeaveNetwork
                0x00005f70       0x94 build/default/production/_ext/1181623987/miwi_mesh_join.o
                0x00005f70                sendForceLeaveNetwork

.text.SYS_Tasks%215
                0x00006004       0x90
 .text.SYS_Tasks
                0x00006004       0x90 build/default/production/_ext/1171490990/tasks.o
                0x00006004                SYS_Tasks

.text.xTaskPriorityInherit%216
                0x00006094       0x90
 .text.xTaskPriorityInherit
                0x00006094       0x90 build/default/production/_ext/404212886/FreeRTOS_tasks.o
                0x00006094                xTaskPriorityInherit

.text.handle_tx_end_irq%217
                0x00006124       0x8c
 .text.handle_tx_end_irq
                0x00006124       0x8c build/default/production/_ext/559172130/phy_tx.o
                0x00006124                handle_tx_end_irq

.text%218       0x000061b0       0x8c
 .text          0x000061b0       0x8c c:/program files/microchip/xc32/v4.35/bin/bin/../../lib/gcc/pic32c/8.3.1/thumb/v6-m/nofp\libgcc.a(_udivsi3.o)
                0x000061b0                __aeabi_uidiv
                0x000061b0                __udivsi3
                0x00006228                __aeabi_uidivmod

.text.appDataConf%219
                0x0000623c       0x88
 .text.appDataConf
                0x0000623c       0x88 build/default/production/_ext/1181623987/miwi_app.o

.text.dataWaitIntervalTimerHandler%220
                0x000062c4       0x88
 .text.dataWaitIntervalTimerHandler
                0x000062c4       0x88 build/default/production/_ext/1181623987/miwi_mesh_join.o
                0x000062c4                dataWaitIntervalTimerHandler

.text.SYS_TIME_TimerCounterGet%221
                0x0000634c       0x88
 .text.SYS_TIME_TimerCounterGet
                0x0000634c       0x88 build/default/production/_ext/101884895/sys_time.o
                0x0000634c                SYS_TIME_TimerCounterGet

.text.tfa_pib_set%222
                0x000063d4       0x84
 .text.tfa_pib_set
                0x000063d4       0x84 build/default/production/_ext/559172130/tfa.o
                0x000063d4                tfa_pib_set

.text.write_all_tal_pib_to_trx%223
                0x00006458       0x84
 .text.write_all_tal_pib_to_trx
                0x00006458       0x84 build/default/production/_ext/559172130/phy_pib.o
                0x00006458                write_all_tal_pib_to_trx

.text.searchConfim%224
                0x000064dc       0x84
 .text.searchConfim
                0x000064dc       0x84 build/default/production/_ext/1181623987/miwi_app.o
                0x000064dc                searchConfim

.text.MiApp_Get%225
                0x00006560       0x84
 .text.MiApp_Get
                0x00006560       0x84 build/default/production/_ext/1181623987/miwi_mesh.o
                0x00006560                MiApp_Get

.text.PHY_TaskHandler%226
                0x000065e4       0x80
 .text.PHY_TaskHandler
                0x000065e4       0x80 build/default/production/_ext/559172130/phy.o
                0x000065e4                PHY_TaskHandler

.text.addRebroadcastTableEntry%227
                0x00006664       0x80
 .text.addRebroadcastTableEntry
                0x00006664       0x80 build/default/production/_ext/1181623987/miwi_mesh_frame.o
                0x00006664                addRebroadcastTableEntry

.text.roleUpgradeTimerExpired%228
                0x000066e4       0x80
 .text.roleUpgradeTimerExpired
                0x000066e4       0x80 build/default/production/_ext/1181623987/miwi_mesh_join.o
                0x000066e4                roleUpgradeTimerExpired

.text.EIC_Initialize%229
                0x00006764       0x80
 .text.EIC_Initialize
                0x00006764       0x80 build/default/production/_ext/60167341/plib_eic.o
                0x00006764                EIC_Initialize

.text.prvAddCurrentTaskToDelayedList%230
                0x000067e4       0x7c
 .text.prvAddCurrentTaskToDelayedList
                0x000067e4       0x7c build/default/production/_ext/404212886/FreeRTOS_tasks.o

.text.xQueueGiveFromISR%231
                0x00006860       0x7a
 .text.xQueueGiveFromISR
                0x00006860       0x7a build/default/production/_ext/404212886/queue.o
                0x00006860                xQueueGiveFromISR

.text.Demomsg_Init%232
                0x000068dc       0x78
 .text.Demomsg_Init
                0x000068dc       0x78 build/default/production/_ext/1181623987/miwi_app.o
                0x000068dc                Demomsg_Init

.text.xTaskRemoveFromEventList%233
                0x00006954       0x78
 .text.xTaskRemoveFromEventList
                0x00006954       0x78 build/default/production/_ext/404212886/FreeRTOS_tasks.o
                0x00006954                xTaskRemoveFromEventList

.text.prvCopyDataToQueue%234
                0x000069cc       0x76
 .text.prvCopyDataToQueue
                0x000069cc       0x76 build/default/production/_ext/404212886/queue.o

.text.bmm_buffer_init%235
                0x00006a44       0x74
 .text.bmm_buffer_init
                0x00006a44       0x74 build/default/production/_ext/1374435801/bmm.o
                0x00006a44                bmm_buffer_init

.text.checkLinkFailureAtNoAck%236
                0x00006ab8       0x74
 .text.checkLinkFailureAtNoAck
                0x00006ab8       0x74 build/default/production/_ext/1181623987/miwi_mesh_join.o
                0x00006ab8                checkLinkFailureAtNoAck

.text.initRouteTable%237
                0x00006b2c       0x70
 .text.initRouteTable
                0x00006b2c       0x70 build/default/production/_ext/1181623987/miwi_mesh_routing.o
                0x00006b2c                initRouteTable

.text.trx_reg_read%238
                0x00006b9c       0x6c
 .text.trx_reg_read
                0x00006b9c       0x6c build/default/production/_ext/559172130/phy_trx_reg_access.o
                0x00006b9c                trx_reg_read

.text.vTaskPriorityDisinheritAfterTimeout%239
                0x00006c08       0x6c
 .text.vTaskPriorityDisinheritAfterTimeout
                0x00006c08       0x6c build/default/production/_ext/404212886/FreeRTOS_tasks.o
                0x00006c08                vTaskPriorityDisinheritAfterTimeout

.text.qmm_queue_remove%240
                0x00006c74       0x6a
 .text.qmm_queue_remove
                0x00006c74       0x6a build/default/production/_ext/874725666/qmm.o
                0x00006c74                qmm_queue_remove

.text.trx_reg_write%241
                0x00006ce0       0x68
 .text.trx_reg_write
                0x00006ce0       0x68 build/default/production/_ext/559172130/phy_trx_reg_access.o
                0x00006ce0                trx_reg_write

.rodata.PHY_GetTrxStatus%242
                0x00006d48       0x68
 .rodata.PHY_GetTrxStatus
                0x00006d48       0x68 build/default/production/_ext/559172130/phy.o

.text.tal_generate_rand_seed%243
                0x00006db0       0x68
 .text.tal_generate_rand_seed
                0x00006db0       0x68 build/default/production/_ext/559172130/phy_init.o
                0x00006db0                tal_generate_rand_seed

.text.nonAckDataCallback%244
                0x00006e18       0x68
 .text.nonAckDataCallback
                0x00006e18       0x68 build/default/production/_ext/1181623987/miwi_mesh.o
                0x00006e18                nonAckDataCallback

.text.prvIdleTask%245
                0x00006e80       0x68
 .text.prvIdleTask
                0x00006e80       0x68 build/default/production/_ext/404212886/FreeRTOS_tasks.o

.text.EstcommandConfcb%246
                0x00006ee8       0x64
 .text.EstcommandConfcb
                0x00006ee8       0x64 build/default/production/_ext/1181623987/miwi_mesh_join.o

.text.xQueueGenericReset%247
                0x00006f4c       0x62
 .text.xQueueGenericReset
                0x00006f4c       0x62 build/default/production/_ext/404212886/queue.o
                0x00006f4c                xQueueGenericReset

.text.trx_frame_write%248
                0x00006fb0       0x60
 .text.trx_frame_write
                0x00006fb0       0x60 build/default/production/_ext/559172130/phy_trx_reg_access.o
                0x00006fb0                trx_frame_write

.text.trx_frame_read%249
                0x00007010       0x60
 .text.trx_frame_read
                0x00007010       0x60 build/default/production/_ext/559172130/phy_trx_reg_access.o
                0x00007010                trx_frame_read

.text.prepareGenericHeader%250
                0x00007070       0x60
 .text.prepareGenericHeader
                0x00007070       0x60 build/default/production/_ext/1181623987/miwi_mesh_frame.o
                0x00007070                prepareGenericHeader

.text.indirectDataTimerHandler%251
                0x000070d0       0x60
 .text.indirectDataTimerHandler
                0x000070d0       0x60 build/default/production/_ext/1181623987/miwi_mesh_frame.o
                0x000070d0                indirectDataTimerHandler

.text.EIC_InterruptHandler%252
                0x00007130       0x60
 .text.EIC_InterruptHandler
                0x00007130       0x60 build/default/production/_ext/60167341/plib_eic.o
                0x00007130                EIC_InterruptHandler

.text.SYS_TIME_RemoveFromList%253
                0x00007190       0x60
 .text.SYS_TIME_RemoveFromList
                0x00007190       0x60 build/default/production/_ext/101884895/sys_time.o

.text.SYS_TIME_TimerStart%254
                0x000071f0       0x60
 .text.SYS_TIME_TimerStart
                0x000071f0       0x60 build/default/production/_ext/101884895/sys_time.o
                0x000071f0                SYS_TIME_TimerStart

.text.xTaskPriorityDisinherit%255
                0x00007250       0x60
 .text.xTaskPriorityDisinherit
                0x00007250       0x60 build/default/production/_ext/404212886/FreeRTOS_tasks.o
                0x00007250                xTaskPriorityDisinherit

.text.appDataSendingTimerHandler%256
                0x000072b0       0x5c
 .text.appDataSendingTimerHandler
                0x000072b0       0x5c build/default/production/_ext/1181623987/miwi_app.o

.text.appLinkFailureCallback%257
                0x0000730c       0x5c
 .text.appLinkFailureCallback
                0x0000730c       0x5c build/default/production/_ext/1181623987/miwi_app.o
                0x0000730c                appLinkFailureCallback

.text.rebroadcastTimerHandler%258
                0x00007368       0x5c
 .text.rebroadcastTimerHandler
                0x00007368       0x5c build/default/production/_ext/1181623987/miwi_mesh_frame.o
                0x00007368                rebroadcastTimerHandler

.text.duplicateRejectionTimerHandler%259
                0x000073c4       0x5c
 .text.duplicateRejectionTimerHandler
                0x000073c4       0x5c build/default/production/_ext/1181623987/miwi_mesh_frame.o
                0x000073c4                duplicateRejectionTimerHandler

.text.calculateAckWaitTimeout%260
                0x00007420       0x5c
 .text.calculateAckWaitTimeout
                0x00007420       0x5c build/default/production/_ext/1181623987/miwi_mesh.o
                0x00007420                calculateAckWaitTimeout

.text.__libc_start_init%261
                0x0000747c       0x5c
 .text.__libc_start_init
                0x0000747c       0x5c c:/program files/microchip/xc32/v4.35/bin/bin/../../lib/gcc/pic32c/8.3.1/../../../../pic32c/lib/thumb/v6-m/nofp\libc-musl.a(__libc_start_main.o)
                0x0000747c                __libc_init_array

.text.OSAL_SEM_Create%262
                0x000074d8       0x5a
 .text.OSAL_SEM_Create
                0x000074d8       0x5a build/default/production/_ext/1529399856/osal_freertos.o
                0x000074d8                OSAL_SEM_Create

.text.PHY_RxEnable%263
                0x00007534       0x58
 .text.PHY_RxEnable
                0x00007534       0x58 build/default/production/_ext/559172130/phy_rx_enable.o
                0x00007534                PHY_RxEnable

.text.NVIC_Initialize%264
                0x0000758c       0x58
 .text.NVIC_Initialize
                0x0000758c       0x58 build/default/production/_ext/1865468468/plib_nvic.o
                0x0000758c                NVIC_Initialize

.text.SYS_TIME_TimerAdd%265
                0x000075e4       0x58
 .text.SYS_TIME_TimerAdd
                0x000075e4       0x58 build/default/production/_ext/101884895/sys_time.o

.text.SYS_TIME_CallbackRegisterMS%266
                0x0000763c       0x58
 .text.SYS_TIME_CallbackRegisterMS
                0x0000763c       0x58 build/default/production/_ext/101884895/sys_time.o
                0x0000763c                SYS_TIME_CallbackRegisterMS

.text.vPortFree%267
                0x00007694       0x58
 .text.vPortFree
                0x00007694       0x58 build/default/production/_ext/1665200909/heap_4.o
                0x00007694                vPortFree

.text.xTaskCheckForTimeOut%268
                0x000076ec       0x58
 .text.xTaskCheckForTimeOut
                0x000076ec       0x58 build/default/production/_ext/404212886/FreeRTOS_tasks.o
                0x000076ec                xTaskCheckForTimeOut

.text.trx_irq_handler_cb%269
                0x00007744       0x54
 .text.trx_irq_handler_cb
                0x00007744       0x54 build/default/production/_ext/559172130/phy_irq_handler.o
                0x00007744                trx_irq_handler_cb

.text.SYS_TIME_DelayUS%270
                0x00007798       0x54
 .text.SYS_TIME_DelayUS
                0x00007798       0x54 build/default/production/_ext/101884895/sys_time.o
                0x00007798                SYS_TIME_DelayUS

.text.prvInsertBlockIntoFreeList%271
                0x000077ec       0x54
 .text.prvInsertBlockIntoFreeList
                0x000077ec       0x54 build/default/production/_ext/1665200909/heap_4.o

.text.vTaskStartScheduler%272
                0x00007840       0x54
 .text.vTaskStartScheduler
                0x00007840       0x54 build/default/production/_ext/404212886/FreeRTOS_tasks.o
                0x00007840                vTaskStartScheduler

.text.ed_scan_done%273
                0x00007894       0x50
 .text.ed_scan_done
                0x00007894       0x50 build/default/production/_ext/559172130/phy_ed.o
                0x00007894                ed_scan_done

.text.APP_Tasks%274
                0x000078e4       0x50
 .text.APP_Tasks
                0x000078e4       0x50 build/default/production/_ext/1360937237/app.o
                0x000078e4                APP_Tasks

.text.prvNotifyQueueSetContainer%275
                0x00007934       0x4e
 .text.prvNotifyQueueSetContainer
                0x00007934       0x4e build/default/production/_ext/404212886/queue.o

.text.convert_phyTransmitPower_to_reg_value%276
                0x00007984       0x4c
 .text.convert_phyTransmitPower_to_reg_value
                0x00007984       0x4c build/default/production/_ext/559172130/phy_pib.o

.text.PHY_RxFrameCallback%277
                0x000079d0       0x4c
 .text.PHY_RxFrameCallback
                0x000079d0       0x4c build/default/production/_ext/1181623987/mimac.o
                0x000079d0                PHY_RxFrameCallback

.text.removeRoute%278
                0x00007a1c       0x4c
 .text.removeRoute
                0x00007a1c       0x4c build/default/production/_ext/1181623987/miwi_mesh_routing.o
                0x00007a1c                removeRoute

.text.__pic32c_data_initialization%279
                0x00007a68       0x4c
 .text.__pic32c_data_initialization
                0x00007a68       0x4c c:/program files/microchip/xc32/v4.35/bin/bin/../../lib/gcc/pic32c/8.3.1/../../../../pic32c/lib/thumb/v6-m/nofp\libpic32c.a(data_init.o)
                0x00007a68                __pic32c_data_initialization

.text%280       0x00007ab4       0x48
 .text          0x00007ab4       0x48 c:/program files/microchip/xc32/v4.35/bin/bin/../../lib/gcc/pic32c/8.3.1/thumb/v6-m/nofp/crtbegin.o

.text.PAL_GetRandomNumber%281
                0x00007afc       0x48
 .text.PAL_GetRandomNumber
                0x00007afc       0x48 build/default/production/_ext/745501718/pal.o
                0x00007afc                PAL_GetRandomNumber

.text.limit_tx_pwr%282
                0x00007b44       0x48
 .text.limit_tx_pwr
                0x00007b44       0x48 build/default/production/_ext/559172130/phy_pib.o

.text.init_tal_pib%283
                0x00007b8c       0x48
 .text.init_tal_pib
                0x00007b8c       0x48 build/default/production/_ext/559172130/phy_pib.o
                0x00007b8c                init_tal_pib

.text.MiApp_Init%284
                0x00007bd4       0x48
 .text.MiApp_Init
                0x00007bd4       0x48 build/default/production/_ext/1181623987/miwi_app.o
                0x00007bd4                MiApp_Init

.text.scanDurationExpired%285
                0x00007c1c       0x48
 .text.scanDurationExpired
                0x00007c1c       0x48 build/default/production/_ext/1181623987/miwi_mesh_join.o

.text.Reset_Handler%286
                0x00007c64       0x48
 .text.Reset_Handler
                0x00007c64       0x48 build/default/production/_ext/1171490990/startup_xc32.o
                0x00007c64                Reset_Handler

.text.PAL_Init%287
                0x00007cac       0x44
 .text.PAL_Init
                0x00007cac       0x44 build/default/production/_ext/745501718/pal.o
                0x00007cac                PAL_Init

.text.tx_done_handling%288
                0x00007cf0       0x44
 .text.tx_done_handling
                0x00007cf0       0x44 build/default/production/_ext/559172130/phy_tx.o
                0x00007cf0                tx_done_handling

.text.PHY_TxFrame%289
                0x00007d34       0x44
 .text.PHY_TxFrame
                0x00007d34       0x44 build/default/production/_ext/559172130/phy_tx.o
                0x00007d34                PHY_TxFrame

.text.PHY_TrxSleep%290
                0x00007d78       0x44
 .text.PHY_TrxSleep
                0x00007d78       0x44 build/default/production/_ext/559172130/phy_pwr_mgmt.o
                0x00007d78                PHY_TrxSleep

.text.process_incoming_frame%291
                0x00007dbc       0x44
 .text.process_incoming_frame
                0x00007dbc       0x44 build/default/production/_ext/559172130/phy_rx.o
                0x00007dbc                process_incoming_frame

.text.trx_ed_irq_handler_cb%292
                0x00007e00       0x44
 .text.trx_ed_irq_handler_cb
                0x00007e00       0x44 build/default/production/_ext/559172130/phy_ed.o
                0x00007e00                trx_ed_irq_handler_cb

.text.setHopCount%293
                0x00007e44       0x44
 .text.setHopCount
                0x00007e44       0x44 build/default/production/_ext/1181623987/miwi_mesh_routing.o
                0x00007e44                setHopCount

.text.xPortPendSVHandler%294
                0x00007e90       0x44
 .text.xPortPendSVHandler
                0x00007e90       0x44 build/default/production/_ext/1624415188/port.o
                0x00007e90                xPortPendSVHandler

.text%295       0x00007ed4       0x44
 .text          0x00007ed4       0x44 c:/program files/microchip/xc32/v4.35/bin/bin/../../lib/gcc/pic32c/8.3.1/thumb/v6-m/nofp\libgcc.a(_muldi3.o)
                0x00007ed4                __muldi3
                0x00007ed4                __aeabi_lmul

.text.Connection_Confirm%296
                0x00007f18       0x40
 .text.Connection_Confirm
                0x00007f18       0x40 build/default/production/_ext/1181623987/miwi_app.o

.text.TC0_TimerInitialize%297
                0x00007f58       0x40
 .text.TC0_TimerInitialize
                0x00007f58       0x40 build/default/production/_ext/829342655/plib_tc0.o
                0x00007f58                TC0_TimerInitialize

.text.SYS_TIME_GetTimerObject%298
                0x00007f98       0x40
 .text.SYS_TIME_GetTimerObject
                0x00007f98       0x40 build/default/production/_ext/101884895/sys_time.o

.text.SYS_TIME_TimerDestroy%299
                0x00007fd8       0x40
 .text.SYS_TIME_TimerDestroy
                0x00007fd8       0x40 build/default/production/_ext/101884895/sys_time.o
                0x00007fd8                SYS_TIME_TimerDestroy

.text.SYS_TIME_TimerStop%300
                0x00008018       0x40
 .text.SYS_TIME_TimerStop
                0x00008018       0x40 build/default/production/_ext/101884895/sys_time.o
                0x00008018                SYS_TIME_TimerStop

.text%301       0x00008058       0x40
 .text          0x00008058       0x40 c:/program files/microchip/xc32/v4.35/bin/bin/../../lib/gcc/pic32c/8.3.1/thumb/v6-m/nofp\libgcc.a(_aeabi_uldivmod.o)
                0x00008058                __aeabi_uldivmod

.text.switch_pll_on%302
                0x00008098       0x3e
 .text.switch_pll_on
                0x00008098       0x3e build/default/production/_ext/559172130/phy.o

.text.isCorrectIeeeAddr%303
                0x000080d6       0x3e
 .text.isCorrectIeeeAddr
                0x000080d6       0x3e build/default/production/_ext/1181623987/miwi_mesh_join.o
                0x000080d6                isCorrectIeeeAddr

.text.checkDuplicateRejectionTableEntry%304
                0x00008114       0x3c
 .text.checkDuplicateRejectionTableEntry
                0x00008114       0x3c build/default/production/_ext/1181623987/miwi_mesh_frame.o
                0x00008114                checkDuplicateRejectionTableEntry

.text.MiMAC_Init%305
                0x00008150       0x3c
 .text.MiMAC_Init
                0x00008150       0x3c build/default/production/_ext/1181623987/mimac.o
                0x00008150                MiMAC_Init

.text.SERCOM4_SPI_Initialize%306
                0x0000818c       0x3c
 .text.SERCOM4_SPI_Initialize
                0x0000818c       0x3c build/default/production/_ext/17022449/plib_sercom4_spi_master.o
                0x0000818c                SERCOM4_SPI_Initialize

.text.SYS_INT_SourceDisable%307
                0x000081c8       0x3c
 .text.SYS_INT_SourceDisable
                0x000081c8       0x3c build/default/production/_ext/1881668453/sys_int.o
                0x000081c8                SYS_INT_SourceDisable

.text.SYS_TIME_ResourceLock%308
                0x00008204       0x3c
 .text.SYS_TIME_ResourceLock
                0x00008204       0x3c build/default/production/_ext/101884895/sys_time.o

.text.xPortStartScheduler%309
                0x00008240       0x3c
 .text.xPortStartScheduler
                0x00008240       0x3c build/default/production/_ext/1624415188/port.o
                0x00008240                xPortStartScheduler

.text%310       0x0000827c       0x3c
 .text          0x0000827c       0x3c c:/program files/microchip/xc32/v4.35/bin/bin/../../lib/gcc/pic32c/8.3.1/thumb/v6-m/nofp\libgcc.a(_clzsi2.o)
                0x0000827c                __clzsi2

.text.bmm_buffer_alloc%311
                0x000082b8       0x38
 .text.bmm_buffer_alloc
                0x000082b8       0x38 build/default/production/_ext/1374435801/bmm.o
                0x000082b8                bmm_buffer_alloc

.text.eic_custom_cb%312
                0x000082f0       0x38
 .text.eic_custom_cb
                0x000082f0       0x38 build/default/production/_ext/1181623987/miwi_init.o
                0x000082f0                eic_custom_cb

.text.generalFrameConstruct%313
                0x00008328       0x38
 .text.generalFrameConstruct
                0x00008328       0x38 build/default/production/_ext/1181623987/miwi_mesh_frame.o
                0x00008328                generalFrameConstruct

.text.SYS_TIME_UpdateTimerList%314
                0x00008360       0x38
 .text.SYS_TIME_UpdateTimerList
                0x00008360       0x38 build/default/production/_ext/101884895/sys_time.o

.text.PHY_ConfigRxPromiscuousMode%315
                0x00008398       0x34
 .text.PHY_ConfigRxPromiscuousMode
                0x00008398       0x34 build/default/production/_ext/559172130/phy_helper.o
                0x00008398                PHY_ConfigRxPromiscuousMode

.text.getNumberOfCoordinators%316
                0x000083cc       0x34
 .text.getNumberOfCoordinators
                0x000083cc       0x34 build/default/production/_ext/1181623987/miwi_mesh_routing.o
                0x000083cc                getNumberOfCoordinators

.text.generateJitterTimeout%317
                0x00008400       0x34
 .text.generateJitterTimeout
                0x00008400       0x34 build/default/production/_ext/1181623987/miwi_mesh_join.o
                0x00008400                generateJitterTimeout

.text.OSAL_SEM_PostISR%318
                0x00008434       0x34
 .text.OSAL_SEM_PostISR
                0x00008434       0x34 build/default/production/_ext/1529399856/osal_freertos.o
                0x00008434                OSAL_SEM_PostISR

.text.OSAL_QUEUE_SendISR%319
                0x00008468       0x34
 .text.OSAL_QUEUE_SendISR
                0x00008468       0x34 build/default/production/_ext/1529399856/osal_freertos_extend.o
                0x00008468                OSAL_QUEUE_SendISR

.text.TC0_TimerInterruptHandler%320
                0x0000849c       0x34
 .text.TC0_TimerInterruptHandler
                0x0000849c       0x34 build/default/production/_ext/829342655/plib_tc0.o
                0x0000849c                TC0_TimerInterruptHandler

.text.vPortStartFirstTask%321
                0x000084d0       0x34
 .text.vPortStartFirstTask
                0x000084d0       0x34 build/default/production/_ext/1624415188/port.o

.text.xQueueGenericCreate%322
                0x00008504       0x32
 .text.xQueueGenericCreate
                0x00008504       0x32 build/default/production/_ext/404212886/queue.o
                0x00008504                xQueueGenericCreate

.rodata.PHY_GetTrxConfig%323
                0x00008538       0x30
 .rodata.PHY_GetTrxConfig
                0x00008538       0x30 build/default/production/_ext/559172130/phy_helper.o

.text.bmm_buffer_free%324
                0x00008568       0x30
 .text.bmm_buffer_free
                0x00008568       0x30 build/default/production/_ext/1374435801/bmm.o
                0x00008568                bmm_buffer_free

.text.MiWi_Init%325
                0x00008598       0x30
 .text.MiWi_Init
                0x00008598       0x30 build/default/production/_ext/1181623987/miwi_init.o
                0x00008598                MiWi_Init

.text.initRebroadcastTable%326
                0x000085c8       0x30
 .text.initRebroadcastTable
                0x000085c8       0x30 build/default/production/_ext/1181623987/miwi_mesh_frame.o
                0x000085c8                initRebroadcastTable

.text.initDuplicateRejectionTable%327
                0x000085f8       0x30
 .text.initDuplicateRejectionTable
                0x000085f8       0x30 build/default/production/_ext/1181623987/miwi_mesh_frame.o
                0x000085f8                initDuplicateRejectionTable

.text.PHY_EdEndCallback%328
                0x00008628       0x30
 .text.PHY_EdEndCallback
                0x00008628       0x30 build/default/production/_ext/1181623987/mimac.o
                0x00008628                PHY_EdEndCallback

.text.PHY_TxDoneCallback%329
                0x00008658       0x30
 .text.PHY_TxDoneCallback
                0x00008658       0x30 build/default/production/_ext/1181623987/mimac.o
                0x00008658                PHY_TxDoneCallback

.rodata%330     0x00008688       0x30
 .rodata        0x00008688       0x30 build/default/production/_ext/1171490990/tasks.o

.text.qmm_queue_read%331
                0x000086b8       0x2e
 .text.qmm_queue_read
                0x000086b8       0x2e build/default/production/_ext/874725666/qmm.o
                0x000086b8                qmm_queue_read

.text.PhyToMiwi_Status%332
                0x000086e6       0x2e
 .text.PhyToMiwi_Status
                0x000086e6       0x2e build/default/production/_ext/1181623987/miwi_app.o
                0x000086e6                PhyToMiwi_Status

.text.PM_Initialize%333
                0x00008714       0x2e
 .text.PM_Initialize
                0x00008714       0x2e build/default/production/_ext/829342769/plib_pm.o
                0x00008714                PM_Initialize

.text.vListInsert%334
                0x00008742       0x2e
 .text.vListInsert
                0x00008742       0x2e build/default/production/_ext/404212886/list.o
                0x00008742                vListInsert

.text.PHY_GetTrxStatus%335
                0x00008770       0x2c
 .text.PHY_GetTrxStatus
                0x00008770       0x2c build/default/production/_ext/559172130/phy.o
                0x00008770                PHY_GetTrxStatus

.text.MIWI_API_CALL%336
                0x0000879c       0x2c
 .text.MIWI_API_CALL
                0x0000879c       0x2c build/default/production/_ext/1181623987/mimac_task.o
                0x0000879c                MIWI_API_CALL

.text.appCmdDataRequest%337
                0x000087c8       0x2c
 .text.appCmdDataRequest
                0x000087c8       0x2c build/default/production/_ext/1181623987/commands.o
                0x000087c8                appCmdDataRequest

.text.getNextHopAddr%338
                0x000087f4       0x2c
 .text.getNextHopAddr
                0x000087f4       0x2c build/default/production/_ext/1181623987/miwi_mesh_routing.o
                0x000087f4                getNextHopAddr

.text.TC0_Timer16bitCounterGet%339
                0x00008820       0x2c
 .text.TC0_Timer16bitCounterGet
                0x00008820       0x2c build/default/production/_ext/829342655/plib_tc0.o
                0x00008820                TC0_Timer16bitCounterGet

.text.prvResetNextTaskUnblockTime%340
                0x0000884c       0x2c
 .text.prvResetNextTaskUnblockTime
                0x0000884c       0x2c build/default/production/_ext/404212886/FreeRTOS_tasks.o

.text.SYS_TIME_TimerPeriodHasExpired%341
                0x00008878       0x2a
 .text.SYS_TIME_TimerPeriodHasExpired
                0x00008878       0x2a build/default/production/_ext/101884895/sys_time.o
                0x00008878                SYS_TIME_TimerPeriodHasExpired

.text.PAL_TimerDelay%342
                0x000088a2       0x28
 .text.PAL_TimerDelay
                0x000088a2       0x28 build/default/production/_ext/745501718/pal.o
                0x000088a2                PAL_TimerDelay

.text.PHY_TrxWakeup%343
                0x000088cc       0x28
 .text.PHY_TrxWakeup
                0x000088cc       0x28 build/default/production/_ext/559172130/phy_pwr_mgmt.o
                0x000088cc                PHY_TrxWakeup

.rodata.tx_pwr_table_China%344
                0x000088f4       0x28
 .rodata.tx_pwr_table_China
                0x000088f4       0x28 build/default/production/_ext/559172130/phy_pib.o

.rodata.tx_pwr_table_EU%345
                0x0000891c       0x28
 .rodata.tx_pwr_table_EU
                0x0000891c       0x28 build/default/production/_ext/559172130/phy_pib.o

.rodata.tx_pwr_table_NA%346
                0x00008944       0x28
 .rodata.tx_pwr_table_NA
                0x00008944       0x28 build/default/production/_ext/559172130/phy_pib.o

.text.PHY_PostTask%347
                0x0000896c       0x28
 .text.PHY_PostTask
                0x0000896c       0x28 build/default/production/_ext/957911548/phy_task.o
                0x0000896c                PHY_PostTask

.text.TAL_PostTask%348
                0x00008994       0x28
 .text.TAL_PostTask
                0x00008994       0x28 build/default/production/_ext/957911548/phy_task.o
                0x00008994                TAL_PostTask

.text.qmm_queue_append%349
                0x000089bc       0x28
 .text.qmm_queue_append
                0x000089bc       0x28 build/default/production/_ext/874725666/qmm.o
                0x000089bc                qmm_queue_append

.text.MiMac_PostTask%350
                0x000089e4       0x28
 .text.MiMac_PostTask
                0x000089e4       0x28 build/default/production/_ext/1181623987/mimac_task.o
                0x000089e4                MiMac_PostTask

.text.frameTxCallback%351
                0x00008a0c       0x28
 .text.frameTxCallback
                0x00008a0c       0x28 build/default/production/_ext/1181623987/miwi_mesh.o

.text.handleCommissiongMessage%352
                0x00008a34       0x28
 .text.handleCommissiongMessage
                0x00008a34       0x28 build/default/production/_ext/1181623987/miwi_mesh_commissioning.o
                0x00008a34                handleCommissiongMessage

.text.MiMAC_SetPanId%353
                0x00008a5c       0x28
 .text.MiMAC_SetPanId
                0x00008a5c       0x28 build/default/production/_ext/1181623987/mimac.o
                0x00008a5c                MiMAC_SetPanId

.text.MiMAC_SetAltAddress%354
                0x00008a84       0x28
 .text.MiMAC_SetAltAddress
                0x00008a84       0x28 build/default/production/_ext/1181623987/mimac.o
                0x00008a84                MiMAC_SetAltAddress

.text.MiMAC_PowerState%355
                0x00008aac       0x28
 .text.MiMAC_PowerState
                0x00008aac       0x28 build/default/production/_ext/1181623987/mimac.o
                0x00008aac                MiMAC_PowerState

.text.getHopCount%356
                0x00008ad4       0x28
 .text.getHopCount
                0x00008ad4       0x28 build/default/production/_ext/1181623987/miwi_mesh_routing.o
                0x00008ad4                getHopCount

.text.EIC_CallbackRegister%357
                0x00008afc       0x28
 .text.EIC_CallbackRegister
                0x00008afc       0x28 build/default/production/_ext/60167341/plib_eic.o
                0x00008afc                EIC_CallbackRegister

.text.SERCOM4_SPI_IsBusy%358
                0x00008b24       0x28
 .text.SERCOM4_SPI_IsBusy
                0x00008b24       0x28 build/default/production/_ext/17022449/plib_sercom4_spi_master.o
                0x00008b24                SERCOM4_SPI_IsBusy

.text.SYS_TIME_ResourceUnlock%359
                0x00008b4c       0x28
 .text.SYS_TIME_ResourceUnlock
                0x00008b4c       0x28 build/default/production/_ext/101884895/sys_time.o

.text.vPortSetupTimerInterrupt%360
                0x00008b74       0x28
 .text.vPortSetupTimerInterrupt
                0x00008b74       0x28 build/default/production/_ext/1624415188/port.o
                0x00008b74                vPortSetupTimerInterrupt

.text.MiApp_SendData%361
                0x00008b9c       0x26
 .text.MiApp_SendData
                0x00008b9c       0x26 build/default/production/_ext/1181623987/miwi_mesh.o
                0x00008b9c                MiApp_SendData

.text.MiMAC_Set%362
                0x00008bc2       0x26
 .text.MiMAC_Set
                0x00008bc2       0x26 build/default/production/_ext/1181623987/mimac.o
                0x00008bc2                MiMAC_Set

.text.uxListRemove%363
                0x00008be8       0x26
 .text.uxListRemove
                0x00008be8       0x26 build/default/production/_ext/404212886/list.o
                0x00008be8                uxListRemove

.text.xQueueAddToSet%364
                0x00008c0e       0x26
 .text.xQueueAddToSet
                0x00008c0e       0x26 build/default/production/_ext/404212886/queue.o
                0x00008c0e                xQueueAddToSet

.text.trx_reg_bit_write%365
                0x00008c34       0x24
 .text.trx_reg_bit_write
                0x00008c34       0x24 build/default/production/_ext/559172130/phy_trx_reg_access.o
                0x00008c34                trx_reg_bit_write

.text.tal_trx_wakeup%366
                0x00008c58       0x24
 .text.tal_trx_wakeup
                0x00008c58       0x24 build/default/production/_ext/559172130/phy_pwr_mgmt.o
                0x00008c58                tal_trx_wakeup

.text.trx_delay_micros%367
                0x00008c7c       0x24
 .text.trx_delay_micros
                0x00008c7c       0x24 build/default/production/_ext/559172130/phy.o
                0x00008c7c                trx_delay_micros

.text.MiApp_StateInit%368
                0x00008ca0       0x24
 .text.MiApp_StateInit
                0x00008ca0       0x24 build/default/production/_ext/1181623987/miwi_app.o
                0x00008ca0                MiApp_StateInit

.text.appCmdDataConf%369
                0x00008cc4       0x24
 .text.appCmdDataConf
                0x00008cc4       0x24 build/default/production/_ext/1181623987/commands.o

.rodata.handleJoinMessage%370
                0x00008ce8       0x24
 .rodata.handleJoinMessage
                0x00008ce8       0x24 build/default/production/_ext/1181623987/miwi_mesh_join.o

.text.OSAL_SEM_Pend%371
                0x00008d0c       0x24
 .text.OSAL_SEM_Pend
                0x00008d0c       0x24 build/default/production/_ext/1529399856/osal_freertos.o
                0x00008d0c                OSAL_SEM_Pend

.text.OSAL_MUTEX_Lock%372
                0x00008d30       0x24
 .text.OSAL_MUTEX_Lock
                0x00008d30       0x24 build/default/production/_ext/1529399856/osal_freertos.o
                0x00008d30                OSAL_MUTEX_Lock

.text.OSAL_QUEUE_Send%373
                0x00008d54       0x24
 .text.OSAL_QUEUE_Send
                0x00008d54       0x24 build/default/production/_ext/1529399856/osal_freertos_extend.o
                0x00008d54                OSAL_QUEUE_Send

.text.OSAL_QUEUE_Receive%374
                0x00008d78       0x24
 .text.OSAL_QUEUE_Receive
                0x00008d78       0x24 build/default/production/_ext/1529399856/osal_freertos_extend.o
                0x00008d78                OSAL_QUEUE_Receive

.text.xPortSysTickHandler%375
                0x00008d9c       0x24
 .text.xPortSysTickHandler
                0x00008d9c       0x24 build/default/production/_ext/1624415188/port.o
                0x00008d9c                xPortSysTickHandler

.text.prvCopyDataFromQueue%376
                0x00008dc0       0x24
 .text.prvCopyDataFromQueue
                0x00008dc0       0x24 build/default/production/_ext/404212886/queue.o

.text.xQueueCreateMutex%377
                0x00008de4       0x24
 .text.xQueueCreateMutex
                0x00008de4       0x24 build/default/production/_ext/404212886/queue.o
                0x00008de4                xQueueCreateMutex

.text.Rx_On%378
                0x00008e08       0x22
 .text.Rx_On    0x00008e08       0x22 build/default/production/_ext/1181623987/miwi_app.o
                0x00008e08                Rx_On

.rodata.tx_done_handling%379
                0x00008e2c       0x20
 .rodata.tx_done_handling
                0x00008e2c       0x20 build/default/production/_ext/559172130/phy_tx.o

.text.PHY_Tasks%380
                0x00008e4c       0x20
 .text.PHY_Tasks
                0x00008e4c       0x20 build/default/production/_ext/957911548/phy_task.o
                0x00008e4c                PHY_Tasks

.text.TAL_Tasks%381
                0x00008e6c       0x20
 .text.TAL_Tasks
                0x00008e6c       0x20 build/default/production/_ext/957911548/phy_task.o
                0x00008e6c                TAL_Tasks

.text.MiApp_MeshGetNextHopAddr%382
                0x00008e8c       0x20
 .text.MiApp_MeshGetNextHopAddr
                0x00008e8c       0x20 build/default/production/_ext/1181623987/miwi_mesh.o
                0x00008e8c                MiApp_MeshGetNextHopAddr

.text.establishTimerExpired%383
                0x00008eac       0x20
 .text.establishTimerExpired
                0x00008eac       0x20 build/default/production/_ext/1181623987/miwi_mesh_join.o

.text.pxPortInitialiseStack%384
                0x00008ecc       0x20
 .text.pxPortInitialiseStack
                0x00008ecc       0x20 build/default/production/_ext/1624415188/port.o
                0x00008ecc                pxPortInitialiseStack

.text.__dinit_copy%385
                0x00008eec       0x1e
 .text.__dinit_copy
                0x00008eec       0x1e c:/program files/microchip/xc32/v4.35/bin/bin/../../lib/gcc/pic32c/8.3.1/../../../../pic32c/lib/thumb/v6-m/nofp\libpic32c.a(pic32_data_init_copy.o)
                0x00008eec                __dinit_copy_needed
                0x00008eec                __dinit_copy

.text.PAL_TimerGetId%386
                0x00008f0c       0x1c
 .text.PAL_TimerGetId
                0x00008f0c       0x1c build/default/production/_ext/745501718/pal.o
                0x00008f0c                PAL_TimerGetId

.text.tal_get_trx_status%387
                0x00008f28       0x1c
 .text.tal_get_trx_status
                0x00008f28       0x1c build/default/production/_ext/559172130/phy_helper.o
                0x00008f28                tal_get_trx_status

.rodata.MiApp_Get%388
                0x00008f44       0x1c
 .rodata.MiApp_Get
                0x00008f44       0x1c build/default/production/_ext/1181623987/miwi_mesh.o

.text.MiMAC_SymbolToTicks%389
                0x00008f60       0x1c
 .text.MiMAC_SymbolToTicks
                0x00008f60       0x1c build/default/production/_ext/1181623987/mimac.o
                0x00008f60                MiMAC_SymbolToTicks

.text.keepAliveReqConfcb%390
                0x00008f7c       0x1c
 .text.keepAliveReqConfcb
                0x00008f7c       0x1c build/default/production/_ext/1181623987/miwi_mesh_join.o

.text.TC0_TimerStart%391
                0x00008f98       0x1c
 .text.TC0_TimerStart
                0x00008f98       0x1c build/default/production/_ext/829342655/plib_tc0.o
                0x00008f98                TC0_TimerStart

.text.TC0_TimerStop%392
                0x00008fb4       0x1c
 .text.TC0_TimerStop
                0x00008fb4       0x1c build/default/production/_ext/829342655/plib_tc0.o
                0x00008fb4                TC0_TimerStop

.text.SYS_INT_SourceRestore%393
                0x00008fd0       0x1c
 .text.SYS_INT_SourceRestore
                0x00008fd0       0x1c build/default/production/_ext/1881668453/sys_int.o
                0x00008fd0                SYS_INT_SourceRestore

.text.SYS_TIME_GetElapsedCount%394
                0x00008fec       0x1c
 .text.SYS_TIME_GetElapsedCount
                0x00008fec       0x1c build/default/production/_ext/101884895/sys_time.o

.rodata.sysTimePlibAPI%395
                0x00009008       0x1c
 .rodata.sysTimePlibAPI
                0x00009008       0x1c build/default/production/_ext/1171490990/initialization.o

.text.vTaskPlaceOnEventList%396
                0x00009024       0x1c
 .text.vTaskPlaceOnEventList
                0x00009024       0x1c build/default/production/_ext/404212886/FreeRTOS_tasks.o
                0x00009024                vTaskPlaceOnEventList

.text.pvTaskIncrementMutexHeldCount%397
                0x00009040       0x1c
 .text.pvTaskIncrementMutexHeldCount
                0x00009040       0x1c build/default/production/_ext/404212886/FreeRTOS_tasks.o
                0x00009040                pvTaskIncrementMutexHeldCount

.text.APP_Initialize%398
                0x0000905c       0x1c
 .text.APP_Initialize
                0x0000905c       0x1c build/default/production/_ext/1360937237/app.o
                0x0000905c                APP_Initialize

.text.memcmp%399
                0x00009078       0x1c
 .text.memcmp   0x00009078       0x1c c:/program files/microchip/xc32/v4.35/bin/bin/../../lib/gcc/pic32c/8.3.1/../../../../pic32c/lib/thumb/v6-m/nofp\libc-musl.a(memcmp.o)
                0x00009078                memcmp

.text.OSAL_CRIT_Enter%400
                0x00009094       0x1a
 .text.OSAL_CRIT_Enter
                0x00009094       0x1a build/default/production/_ext/1529399856/osal_freertos.o
                0x00009094                OSAL_CRIT_Enter

.text.OSAL_MUTEX_Create%401
                0x000090ae       0x1a
 .text.OSAL_MUTEX_Create
                0x000090ae       0x1a build/default/production/_ext/1529399856/osal_freertos.o
                0x000090ae                OSAL_MUTEX_Create

.text.trx_irq_awake_handler_cb%402
                0x000090c8       0x18
 .text.trx_irq_awake_handler_cb
                0x000090c8       0x18 build/default/production/_ext/559172130/phy_irq_handler.o
                0x000090c8                trx_irq_awake_handler_cb

.text.tfa_init%403
                0x000090e0       0x18
 .text.tfa_init
                0x000090e0       0x18 build/default/production/_ext/559172130/tfa.o
                0x000090e0                tfa_init

.text.PHY_GetRSSIBaseVal%404
                0x000090f8       0x18
 .text.PHY_GetRSSIBaseVal
                0x000090f8       0x18 build/default/production/_ext/559172130/phy_helper.o
                0x000090f8                PHY_GetRSSIBaseVal

.text.OSAL_CRIT_Leave%405
                0x00009110       0x18
 .text.OSAL_CRIT_Leave
                0x00009110       0x18 build/default/production/_ext/1529399856/osal_freertos.o
                0x00009110                OSAL_CRIT_Leave

.text.OSAL_SEM_Post%406
                0x00009128       0x18
 .text.OSAL_SEM_Post
                0x00009128       0x18 build/default/production/_ext/1529399856/osal_freertos.o
                0x00009128                OSAL_SEM_Post

.text.OSAL_MUTEX_Unlock%407
                0x00009140       0x18
 .text.OSAL_MUTEX_Unlock
                0x00009140       0x18 build/default/production/_ext/1529399856/osal_freertos.o
                0x00009140                OSAL_MUTEX_Unlock

.text.OSAL_QUEUE_Create%408
                0x00009158       0x18
 .text.OSAL_QUEUE_Create
                0x00009158       0x18 build/default/production/_ext/1529399856/osal_freertos_extend.o
                0x00009158                OSAL_QUEUE_Create

.text.SYS_TIME_DelayIsComplete%409
                0x00009170       0x18
 .text.SYS_TIME_DelayIsComplete
                0x00009170       0x18 build/default/production/_ext/101884895/sys_time.o
                0x00009170                SYS_TIME_DelayIsComplete

.text.vPortYield%410
                0x00009188       0x18
 .text.vPortYield
                0x00009188       0x18 build/default/production/_ext/1624415188/port.o
                0x00009188                vPortYield

.text.vPortEnterCritical%411
                0x000091a0       0x18
 .text.vPortEnterCritical
                0x000091a0       0x18 build/default/production/_ext/1624415188/port.o
                0x000091a0                vPortEnterCritical

.text.vTaskInternalSetTimeOutState%412
                0x000091b8       0x18
 .text.vTaskInternalSetTimeOutState
                0x000091b8       0x18 build/default/production/_ext/404212886/FreeRTOS_tasks.o
                0x000091b8                vTaskInternalSetTimeOutState

.text.rand%413  0x000091d0       0x18
 .text.rand     0x000091d0       0x18 c:/program files/microchip/xc32/v4.35/bin/bin/../../lib/gcc/pic32c/8.3.1/../../../../pic32c/lib/thumb/v6-m/nofp\libc-musl.a(rand.o)
                0x000091d0                rand

.text%414       0x000091e8       0x18
 .text          0x000091e8       0x18 c:/program files/microchip/xc32/v4.35/bin/bin/../../lib/gcc/pic32c/8.3.1/thumb/v6-m/nofp\libgcc.a(_lshrdi3.o)
                0x000091e8                __lshrdi3
                0x000091e8                __aeabi_llsr

.text%415       0x00009200       0x18
 .text          0x00009200       0x18 c:/program files/microchip/xc32/v4.35/bin/bin/../../lib/gcc/pic32c/8.3.1/thumb/v6-m/nofp\libgcc.a(_ashldi3.o)
                0x00009200                __aeabi_llsl
                0x00009200                __ashldi3

.text%416       0x00009218       0x18
 .text          0x00009218       0x18 c:/program files/microchip/xc32/v4.35/bin/bin/../../lib/gcc/pic32c/8.3.1/thumb/v6-m/nofp\libgcc.a(_clzdi2.o)
                0x00009218                __clzdi2

.text.OSAL_QUEUE_SelectFromSet%417
                0x00009230       0x16
 .text.OSAL_QUEUE_SelectFromSet
                0x00009230       0x16 build/default/production/_ext/1529399856/osal_freertos_extend.o
                0x00009230                OSAL_QUEUE_SelectFromSet

.text.vListInitialise%418
                0x00009246       0x16
 .text.vListInitialise
                0x00009246       0x16 build/default/production/_ext/404212886/list.o
                0x00009246                vListInitialise

.text.vListInsertEnd%419
                0x0000925c       0x16
 .text.vListInsertEnd
                0x0000925c       0x16 build/default/production/_ext/404212886/list.o
                0x0000925c                vListInsertEnd

.text.xQueueSelectFromSet%420
                0x00009272       0x16
 .text.xQueueSelectFromSet
                0x00009272       0x16 build/default/production/_ext/404212886/queue.o
                0x00009272                xQueueSelectFromSet

.text.MiApp_SubscribeDataIndicationCallback%421
                0x00009288       0x14
 .text.MiApp_SubscribeDataIndicationCallback
                0x00009288       0x14 build/default/production/_ext/1181623987/miwi_mesh_frame.o
                0x00009288                MiApp_SubscribeDataIndicationCallback

.text.MiApp_SubscribeLinkFailureCallback%422
                0x0000929c       0x14
 .text.MiApp_SubscribeLinkFailureCallback
                0x0000929c       0x14 build/default/production/_ext/1181623987/miwi_mesh_join.o
                0x0000929c                MiApp_SubscribeLinkFailureCallback

.text.OSAL_QUEUE_CreateSet%423
                0x000092b0       0x14
 .text.OSAL_QUEUE_CreateSet
                0x000092b0       0x14 build/default/production/_ext/1529399856/osal_freertos_extend.o
                0x000092b0                OSAL_QUEUE_CreateSet

.text.OSAL_QUEUE_AddToSet%424
                0x000092c4       0x14
 .text.OSAL_QUEUE_AddToSet
                0x000092c4       0x14 build/default/production/_ext/1529399856/osal_freertos_extend.o
                0x000092c4                OSAL_QUEUE_AddToSet

.text.NVIC_INT_Restore%425
                0x000092d8       0x14
 .text.NVIC_INT_Restore
                0x000092d8       0x14 build/default/production/_ext/1865468468/plib_nvic.o
                0x000092d8                NVIC_INT_Restore

.text.TC0_Timer16bitPeriodSet%426
                0x000092ec       0x14
 .text.TC0_Timer16bitPeriodSet
                0x000092ec       0x14 build/default/production/_ext/829342655/plib_tc0.o
                0x000092ec                TC0_Timer16bitPeriodSet

.text.TC0_Timer16bitCompareSet%427
                0x00009300       0x14
 .text.TC0_Timer16bitCompareSet
                0x00009300       0x14 build/default/production/_ext/829342655/plib_tc0.o
                0x00009300                TC0_Timer16bitCompareSet

.text.vPortExitCritical%428
                0x00009314       0x14
 .text.vPortExitCritical
                0x00009314       0x14 build/default/production/_ext/1624415188/port.o
                0x00009314                vPortExitCritical

.text.prvIsQueueEmpty%429
                0x00009328       0x14
 .text.prvIsQueueEmpty
                0x00009328       0x14 build/default/production/_ext/404212886/queue.o

.text.xQueueCreateCountingSemaphore%430
                0x0000933c       0x14
 .text.xQueueCreateCountingSemaphore
                0x0000933c       0x14 build/default/production/_ext/404212886/queue.o
                0x0000933c                xQueueCreateCountingSemaphore

.rodata%431     0x00009350       0x14
 .rodata        0x00009350       0x14 c:/program files/microchip/xc32/v4.35/bin/bin/../../lib/gcc/pic32c/8.3.1/../../../../pic32c/lib/thumb/v6-m/nofp\libpic32c.a(data_init.o)

.text.memcpy%432
                0x00009364       0x14
 .text.memcpy   0x00009364       0x14 c:/program files/microchip/xc32/v4.35/bin/bin/../../lib/gcc/pic32c/8.3.1/../../../../pic32c/lib/thumb/v6-m/nofp\libc-musl.a(memcpy.o)
                0x00009364                memcpy

.text.memset%433
                0x00009378       0x14
 .text.memset   0x00009378       0x14 c:/program files/microchip/xc32/v4.35/bin/bin/../../lib/gcc/pic32c/8.3.1/../../../../pic32c/lib/thumb/v6-m/nofp\libc-musl.a(memset.o)
                0x00009378                memset

.text.trx_reg_bit_read%434
                0x0000938c       0x12
 .text.trx_reg_bit_read
                0x0000938c       0x12 build/default/production/_ext/559172130/phy_trx_reg_access.o
                0x0000938c                trx_reg_bit_read

.text.appDataInd%435
                0x0000939e       0x12
 .text.appDataInd
                0x0000939e       0x12 build/default/production/_ext/1181623987/miwi_app.o

.text.OSAL_SEM_GetCount%436
                0x000093b0       0x12
 .text.OSAL_SEM_GetCount
                0x000093b0       0x12 build/default/production/_ext/1529399856/osal_freertos.o
                0x000093b0                OSAL_SEM_GetCount

.text.OSAL_QUEUE_IsFullISR%437
                0x000093c2       0x12
 .text.OSAL_QUEUE_IsFullISR
                0x000093c2       0x12 build/default/production/_ext/1529399856/osal_freertos_extend.o
                0x000093c2                OSAL_QUEUE_IsFullISR

.text.NVIC_INT_Disable%438
                0x000093d4       0x12
 .text.NVIC_INT_Disable
                0x000093d4       0x12 build/default/production/_ext/1865468468/plib_nvic.o
                0x000093d4                NVIC_INT_Disable

.text.prvTaskExitError%439
                0x000093e6       0x12
 .text.prvTaskExitError
                0x000093e6       0x12 build/default/production/_ext/1624415188/port.o

.text.uxQueueMessagesWaiting%440
                0x000093f8       0x12
 .text.uxQueueMessagesWaiting
                0x000093f8       0x12 build/default/production/_ext/404212886/queue.o
                0x000093f8                uxQueueMessagesWaiting

.text.__dinit_clear%441
                0x0000940a       0x12
 .text.__dinit_clear
                0x0000940a       0x12 c:/program files/microchip/xc32/v4.35/bin/bin/../../lib/gcc/pic32c/8.3.1/../../../../pic32c/lib/thumb/v6-m/nofp\libpic32c.a(pic32_data_init_clear.o)
                0x0000940a                __dinit_clear
                0x0000940a                __dinit_clear_needed

.text.EIC_InterruptEnable%442
                0x0000941c       0x10
 .text.EIC_InterruptEnable
                0x0000941c       0x10 build/default/production/_ext/60167341/plib_eic.o
                0x0000941c                EIC_InterruptEnable

.text.EIC_InterruptDisable%443
                0x0000942c       0x10
 .text.EIC_InterruptDisable
                0x0000942c       0x10 build/default/production/_ext/60167341/plib_eic.o
                0x0000942c                EIC_InterruptDisable

.text.SERCOM4_SPI_Read%444
                0x0000943c       0x10
 .text.SERCOM4_SPI_Read
                0x0000943c       0x10 build/default/production/_ext/17022449/plib_sercom4_spi_master.o
                0x0000943c                SERCOM4_SPI_Read

.text.vTaskSuspendAll%445
                0x0000944c       0x10
 .text.vTaskSuspendAll
                0x0000944c       0x10 build/default/production/_ext/404212886/FreeRTOS_tasks.o
                0x0000944c                vTaskSuspendAll

.text.main%446  0x0000945c        0xe
 .text.main     0x0000945c        0xe build/default/production/_ext/1360937237/main.o
                0x0000945c                main

.text.qmm_queue_init%447
                0x0000946a        0xc
 .text.qmm_queue_init
                0x0000946a        0xc build/default/production/_ext/874725666/qmm.o
                0x0000946a                qmm_queue_init

.text.MiAppTimer_Init%448
                0x00009478        0xc
 .text.MiAppTimer_Init
                0x00009478        0xc build/default/production/_ext/1181623987/miwi_app.o
                0x00009478                MiAppTimer_Init

.rodata%449     0x00009484        0xc
 .rodata        0x00009484        0xc build/default/production/_ext/1181623987/miwi_app.o

.text.NVMCTRL_Initialize%450
                0x00009490        0xc
 .text.NVMCTRL_Initialize
                0x00009490        0xc build/default/production/_ext/1593096446/plib_nvmctrl.o
                0x00009490                NVMCTRL_Initialize

.text.SERCOM4_SPI_Write%451
                0x0000949c        0xc
 .text.SERCOM4_SPI_Write
                0x0000949c        0xc build/default/production/_ext/17022449/plib_sercom4_spi_master.o
                0x0000949c                SERCOM4_SPI_Write

.text.TC0_TimerCallbackRegister%452
                0x000094a8        0xc
 .text.TC0_TimerCallbackRegister
                0x000094a8        0xc build/default/production/_ext/829342655/plib_tc0.o
                0x000094a8                TC0_TimerCallbackRegister

.text.vTaskMissedYield%453
                0x000094b4        0xc
 .text.vTaskMissedYield
                0x000094b4        0xc build/default/production/_ext/404212886/FreeRTOS_tasks.o
                0x000094b4                vTaskMissedYield

.text.xQueueIsQueueFullFromISR%454
                0x000094c0        0xc
 .text.xQueueIsQueueFullFromISR
                0x000094c0        0xc build/default/production/_ext/404212886/queue.o
                0x000094c0                xQueueIsQueueFullFromISR

.text.xQueueCreateSet%455
                0x000094cc        0xc
 .text.xQueueCreateSet
                0x000094cc        0xc build/default/production/_ext/404212886/queue.o
                0x000094cc                xQueueCreateSet

.text.srand%456
                0x000094d8        0xc
 .text.srand    0x000094d8        0xc c:/program files/microchip/xc32/v4.35/bin/bin/../../lib/gcc/pic32c/8.3.1/../../../../pic32c/lib/thumb/v6-m/nofp\libc-musl.a(rand.o)
                0x000094d8                srand

.text.EIC_interrupt_cb%457
                0x000094e4        0xa
 .text.EIC_interrupt_cb
                0x000094e4        0xa build/default/production/_ext/559172130/phy_irq_handler.o
                0x000094e4                EIC_interrupt_cb

.text.roleUpGradeReqConfcb%458
                0x000094ee        0xa
 .text.roleUpGradeReqConfcb
                0x000094ee        0xa build/default/production/_ext/1181623987/miwi_mesh_join.o

.text.TAL_TaskHandler%459
                0x00007e88        0x8
 .text.TAL_TaskHandler
                0x00007e88        0x8 build/default/production/_ext/559172130/phy.o
                0x00007e88                TAL_TaskHandler

.text.MiMac_TaskHandler%460
                0x000094f8        0x8
 .text.MiMac_TaskHandler
                0x000094f8        0x8 build/default/production/_ext/1181623987/miwi_app.o
                0x000094f8                MiMac_TaskHandler

.text.MiWi_ApplicationInit%461
                0x00009500        0x8
 .text.MiWi_ApplicationInit
                0x00009500        0x8 build/default/production/_ext/1181623987/miwi_init.o
                0x00009500                MiWi_ApplicationInit

.text.MiMAC_GetPHYChannelInfo%462
                0x00009508        0x8
 .text.MiMAC_GetPHYChannelInfo
                0x00009508        0x8 build/default/production/_ext/1181623987/mimac.o
                0x00009508                MiMAC_GetPHYChannelInfo

.text.rxOffEdKeepAliveTimerHandler%463
                0x00009510        0x8
 .text.rxOffEdKeepAliveTimerHandler
                0x00009510        0x8 build/default/production/_ext/1181623987/miwi_mesh_join.o
                0x00009510                rxOffEdKeepAliveTimerHandler

.text.OSAL_Malloc%464
                0x00009518        0x8
 .text.OSAL_Malloc
                0x00009518        0x8 build/default/production/_ext/1529399856/osal_freertos.o
                0x00009518                OSAL_Malloc

.text.OSAL_Free%465
                0x00009520        0x8
 .text.OSAL_Free
                0x00009520        0x8 build/default/production/_ext/1529399856/osal_freertos.o
                0x00009520                OSAL_Free

.text.TC0_TimerFrequencyGet%466
                0x00009528        0x8
 .text.TC0_TimerFrequencyGet
                0x00009528        0x8 build/default/production/_ext/829342655/plib_tc0.o
                0x00009528                TC0_TimerFrequencyGet

.text.SYS_INT_Disable%467
                0x00009530        0x8
 .text.SYS_INT_Disable
                0x00009530        0x8 build/default/production/_ext/1881668453/sys_int.o
                0x00009530                SYS_INT_Disable

.text.SYS_INT_Restore%468
                0x00009538        0x8
 .text.SYS_INT_Restore
                0x00009538        0x8 build/default/production/_ext/1881668453/sys_int.o
                0x00009538                SYS_INT_Restore

.text._MiMAC_Tasks%469
                0x00009540        0x8
 .text._MiMAC_Tasks
                0x00009540        0x8 build/default/production/_ext/1171490990/tasks.o
                0x00009540                _MiMAC_Tasks

.text.lAPP_Tasks%470
                0x00009548        0x8
 .text.lAPP_Tasks
                0x00009548        0x8 build/default/production/_ext/1171490990/tasks.o

.text._TAL_Tasks%471
                0x00009550        0x8
 .text._TAL_Tasks
                0x00009550        0x8 build/default/production/_ext/1171490990/tasks.o

.text._PHY_Tasks%472
                0x00009558        0x8
 .text._PHY_Tasks
                0x00009558        0x8 build/default/production/_ext/1171490990/tasks.o

.rodata.sysTimeInitData%473
                0x00009560        0x8
 .rodata.sysTimeInitData
                0x00009560        0x8 build/default/production/_ext/1171490990/initialization.o

.text.ulSetInterruptMaskFromISR%474
                0x00009568        0x8
 .text.ulSetInterruptMaskFromISR
                0x00009568        0x8 build/default/production/_ext/1624415188/port.o
                0x00009568                ulSetInterruptMaskFromISR

.rodata%475     0x00009570        0x8
 .rodata        0x00009570        0x8 build/default/production/_ext/404212886/FreeRTOS_tasks.o

.text.vClearInterruptMaskFromISR%476
                0x00009578        0x6
 .text.vClearInterruptMaskFromISR
                0x00009578        0x6 build/default/production/_ext/1624415188/port.o
                0x00009578                vClearInterruptMaskFromISR

.text.vListInitialiseItem%477
                0x0000957e        0x6
 .text.vListInitialiseItem
                0x0000957e        0x6 build/default/production/_ext/404212886/list.o
                0x0000957e                vListInitialiseItem

.text.vApplicationStackOverflowHook%478
                0x00009584        0x4
 .text.vApplicationStackOverflowHook
                0x00009584        0x4 build/default/production/_ext/1171490990/freertos_hooks.o
                0x00009584                vApplicationStackOverflowHook

.text.vApplicationMallocFailedHook%479
                0x00009588        0x4
 .text.vApplicationMallocFailedHook
                0x00009588        0x4 build/default/production/_ext/1171490990/freertos_hooks.o
                0x00009588                vApplicationMallocFailedHook

.text.__dummy_decompress%480
                0x0000958c        0x4
 .text.__dummy_decompress
                0x0000958c        0x4 c:/program files/microchip/xc32/v4.35/bin/bin/../../lib/gcc/pic32c/8.3.1/../../../../pic32c/lib/thumb/v6-m/nofp\libpic32c.a(data_init.o)
                0x0000958c                __dinit_decompress
                0x0000958c                __dinit_copy_val_data
                0x0000958c                __dinit_copy_emb

.text%481       0x00009590        0x4
 .text          0x00009590        0x4 c:/program files/microchip/xc32/v4.35/bin/bin/../../lib/gcc/pic32c/8.3.1/thumb/v6-m/nofp\libgcc.a(_dvmd_tls.o)
                0x00009590                __aeabi_idiv0
                0x00009590                __aeabi_ldiv0

.text.appNetworkStatusTimerHandler%482
                0x00003e12        0x2
 .text.appNetworkStatusTimerHandler
                0x00003e12        0x2 build/default/production/_ext/1181623987/miwi_app.o

.text.memFreeConfcb%483
                0x00004b26        0x2
 .text.memFreeConfcb
                0x00004b26        0x2 build/default/production/_ext/1181623987/miwi_mesh_frame.o

.text.nwkAckConfCb%484
                0x000058e2        0x2
 .text.nwkAckConfCb
                0x000058e2        0x2 build/default/production/_ext/1181623987/miwi_mesh_frame.o

.text.appCmdDataInd%485
                0x000068da        0x2
 .text.appCmdDataInd
                0x000068da        0x2 build/default/production/_ext/1181623987/commands.o
                0x000068da                appCmdDataInd

.text.routeUpdateConfcb%486
                0x00006a42        0x2
 .text.routeUpdateConfcb
                0x00006a42        0x2 build/default/production/_ext/1181623987/miwi_mesh_routing.o

.text.routeReqConfcb%487
                0x00006cde        0x2
 .text.routeReqConfcb
                0x00006cde        0x2 build/default/production/_ext/1181623987/miwi_mesh_routing.o

.text.routeReplyConfcb%488
                0x00006fae        0x2
 .text.routeReplyConfcb
                0x00006fae        0x2 build/default/production/_ext/1181623987/miwi_mesh_routing.o

.text.commandConfcb%489
                0x00007532        0x2
 .text.commandConfcb
                0x00007532        0x2 build/default/production/_ext/1181623987/miwi_mesh_join.o

.text.EVSYS_Initialize%490
                0x00007982        0x2
 .text.EVSYS_Initialize
                0x00007982        0x2 build/default/production/_ext/1986646378/plib_evsys.o
                0x00007982                EVSYS_Initialize

.text.Dummy_Handler%491
                0x00008536        0x2
 .text.Dummy_Handler
                0x00008536        0x2 build/default/production/_ext/1171490990/interrupts.o
                0x00008536                DMAC_Handler
                0x00008536                AC_Handler
                0x00008536                SERCOM1_Handler
                0x00008536                ADC_Handler
                0x00008536                TCC1_Handler
                0x00008536                SERCOM2_Handler
                0x00008536                TCC0_Handler
                0x00008536                RTC_Handler
                0x00008536                WDT_Handler
                0x00008536                TC4_Handler
                0x00008536                TC1_Handler
                0x00008536                USB_Handler
                0x00008536                Dummy_Handler
                0x00008536                SERCOM5_Handler
                0x00008536                TCC2_Handler
                0x00008536                EVSYS_Handler
                0x00008536                SERCOM3_Handler
                0x00008536                NVMCTRL_Handler
                0x00008536                SYSTEM_Handler
                0x00008536                SERCOM0_Handler
                0x00008536                PTC_Handler

.text.Dummy_App_Func%492
                0x000088ca        0x2
 .text.Dummy_App_Func
                0x000088ca        0x2 build/default/production/_ext/1171490990/startup_xc32.o
                0x000088ca                _on_reset
                0x000088ca                _on_bootstrap
                0x000088ca                __xc32_on_reset
                0x000088ca                Dummy_App_Func
                0x000088ca                __xc32_on_bootstrap

.text.NonMaskableInt_Handler%493
                0x00008e2a        0x2
 .text.NonMaskableInt_Handler
                0x00008e2a        0x2 build/default/production/_ext/1171490990/exceptions.o
                0x00008e2a                NonMaskableInt_Handler

.text.HardFault_Handler%494
                0x00008f0a        0x2
 .text.HardFault_Handler
                0x00008f0a        0x2 build/default/production/_ext/1171490990/exceptions.o
                0x00008f0a                HardFault_Handler

.text.vPortSVCHandler%495
                0x00009476        0x2
 .text.vPortSVCHandler
                0x00009476        0x2 build/default/production/_ext/1624415188/port.o
                0x00009476                vPortSVCHandler

.text.__dummy%496
                0x00009594        0x2
 .text.__dummy  0x00009594        0x2 c:/program files/microchip/xc32/v4.35/bin/bin/../../lib/gcc/pic32c/8.3.1/../../../../pic32c/lib/thumb/v6-m/nofp\libc-musl.a(__libc_start_main.o)
                0x00009594                __init_stdio
                0x00009594                __init_host
